libCHART-1.6.so.0:_ZN2FX7FXChart10onQueryTipEPNS_8FXObjectEjPv
libCHART-1.6.so.0:_ZN2FX7FXChart10setTipTextERKNS_8FXStringE
libCHART-1.6.so.0:_ZN2FX7FXChart11manufactureEv
libCHART-1.6.so.0:_ZN2FX7FXChart11onQueryHelpEPNS_8FXObjectEjPv
libCHART-1.6.so.0:_ZN2FX7FXChart11setHelpTextERKNS_8FXStringE
libCHART-1.6.so.0:_ZN2FX7FXChart12setFillStyleERKNS_9FillStyleE
libCHART-1.6.so.0:_ZN2FX7FXChart15onClipboardLostEPNS_8FXObjectEjPv
libCHART-1.6.so.0:_ZN2FX7FXChart18onClipboardRequestEPNS_8FXObjectEjPv
libCHART-1.6.so.0:_ZN2FX7FXChart4loadERNS_8FXStreamE
libCHART-1.6.so.0:_ZN2FX7FXChart6createEv
libCHART-1.6.so.0:_ZN2FX7FXChart6detachEv
libCHART-1.6.so.0:_ZN2FX7FXChart6handleEPNS_8FXObjectEjPv
libCHART-1.6.so.0:_ZN2FX7FXChart6layoutEv
libCHART-1.6.so.0:_ZN2FX7FXChart7onPaintEPNS_8FXObjectEjPv
libCHART-1.6.so.0:_ZN2FX7FXChartC1EPNS_11FXCompositeEPNS_8FXObjectEjjiiii
libCHART-1.6.so.0:_ZN2FX7FXChartC1Ev
libCHART-1.6.so.0:_ZN2FX7FXChartC2EPNS_11FXCompositeEPNS_8FXObjectEjjiiii
libCHART-1.6.so.0:_ZN2FX7FXChartC2Ev
libCHART-1.6.so.0:_ZN2FX7FXChartD0Ev
libCHART-1.6.so.0:_ZN2FX7FXChartD1Ev
libCHART-1.6.so.0:_ZN2FX7FXChartD2Ev
libCHART-1.6.so.0:_ZNK2FX7FXChart10drawMarkerERNS_4FXDCEiiRKNS_6MarkerE
libCHART-1.6.so.0:_ZNK2FX7FXChart4saveERNS_8FXStreamE
libFOX-1.6.so.0:_ZN2FX10FX7Segment10onQueryTipEPNS_8FXObjectEjPv
libFOX-1.6.so.0:_ZN2FX10FX7Segment10setJustifyEj
libFOX-1.6.so.0:_ZN2FX10FX7Segment11manufactureEv
libFOX-1.6.so.0:_ZN2FX10FX7Segment11onCmdGetTipEPNS_8FXObjectEjPv
libFOX-1.6.so.0:_ZN2FX10FX7Segment11onCmdSetTipEPNS_8FXObjectEjPv
libFOX-1.6.so.0:_ZN2FX10FX7Segment11onQueryHelpEPNS_8FXObjectEjPv
libFOX-1.6.so.0:_ZN2FX10FX7Segment12drawSegmentsERNS_10FXDCWindowEiiiij
libFOX-1.6.so.0:_ZN2FX10FX7Segment12onCmdGetHelpEPNS_8FXObjectEjPv
libFOX-1.6.so.0:_ZN2FX10FX7Segment12onCmdSetHelpEPNS_8FXObjectEjPv
libFOX-1.6.so.0:_ZN2FX10FX7Segment12setCellWidthEi
libFOX-1.6.so.0:_ZN2FX10FX7Segment12setTextColorEj
libFOX-1.6.so.0:_ZN2FX10FX7Segment12setThicknessEi
libFOX-1.6.so.0:_ZN2FX10FX7Segment13onCmdSetValueEPNS_8FXObjectEjPv
libFOX-1.6.so.0:_ZN2FX10FX7Segment13setCellHeightEi
libFOX-1.6.so.0:_ZN2FX10FX7Segment15getDefaultWidthEv
libFOX-1.6.so.0:_ZN2FX10FX7Segment16getDefaultHeightEv
libFOX-1.6.so.0:_ZN2FX10FX7Segment16onCmdGetIntValueEPNS_8FXObjectEjPv
libFOX-1.6.so.0:_ZN2FX10FX7Segment16onCmdSetIntValueEPNS_8FXObjectEjPv
libFOX-1.6.so.0:_ZN2FX10FX7Segment16set7SegmentStyleEj
libFOX-1.6.so.0:_ZN2FX10FX7Segment17onCmdGetRealValueEPNS_8FXObjectEjPv
libFOX-1.6.so.0:_ZN2FX10FX7Segment17onCmdSetRealValueEPNS_8FXObjectEjPv
libFOX-1.6.so.0:_ZN2FX10FX7Segment19onCmdGetStringValueEPNS_8FXObjectEjPv
libFOX-1.6.so.0:_ZN2FX10FX7Segment19onCmdSetStringValueEPNS_8FXObjectEjPv
libFOX-1.6.so.0:_ZN2FX10FX7Segment4loadERNS_8FXStreamE
libFOX-1.6.so.0:_ZN2FX10FX7Segment6handleEPNS_8FXObjectEjPv
libFOX-1.6.so.0:_ZN2FX10FX7Segment7onPaintEPNS_8FXObjectEjPv
libFOX-1.6.so.0:_ZN2FX10FX7Segment7setTextERKNS_8FXStringE
libFOX-1.6.so.0:_ZN2FX10FX7Segment9drawCellsERNS_10FXDCWindowEiiii
libFOX-1.6.so.0:_ZN2FX10FX7SegmentC1EPNS_11FXCompositeERKNS_8FXStringEjiiiiiiii
libFOX-1.6.so.0:_ZN2FX10FX7SegmentC1Ev
libFOX-1.6.so.0:_ZN2FX10FX7SegmentC2EPNS_11FXCompositeERKNS_8FXStringEjiiiiiiii
libFOX-1.6.so.0:_ZN2FX10FX7SegmentC2Ev
libFOX-1.6.so.0:_ZN2FX10FXBMPImage10loadPixelsERNS_8FXStreamE
libFOX-1.6.so.0:_ZN2FX10FXBMPImage11manufactureEv
libFOX-1.6.so.0:_ZN2FX10FXBMPImage6handleEPNS_8FXObjectEjPv
libFOX-1.6.so.0:_ZN2FX10FXBMPImageC1EPNS_5FXAppEPKvjii
libFOX-1.6.so.0:_ZN2FX10FXBMPImageC2EPNS_5FXAppEPKvjii
libFOX-1.6.so.0:_ZN2FX10FXBMPImageD0Ev
libFOX-1.6.so.0:_ZN2FX10FXBMPImageD1Ev
libFOX-1.6.so.0:_ZN2FX10FXBMPImageD2Ev
libFOX-1.6.so.0:_ZN2FX10FXColorBar10onQueryTipEPNS_8FXObjectEjPv
libFOX-1.6.so.0:_ZN2FX10FXColorBar11manufactureEv
libFOX-1.6.so.0:_ZN2FX10FXColorBar11onCmdGetTipEPNS_8FXObjectEjPv
libFOX-1.6.so.0:_ZN2FX10FXColorBar11onCmdSetTipEPNS_8FXObjectEjPv
libFOX-1.6.so.0:_ZN2FX10FXColorBar11onQueryHelpEPNS_8FXObjectEjPv
libFOX-1.6.so.0:_ZN2FX10FXColorBar11setBarStyleEj
libFOX-1.6.so.0:_ZN2FX10FXColorBar12onCmdGetHelpEPNS_8FXObjectEjPv
libFOX-1.6.so.0:_ZN2FX10FXColorBar12onCmdSetHelpEPNS_8FXObjectEjPv
libFOX-1.6.so.0:_ZN2FX10FXColorBar14onLeftBtnPressEPNS_8FXObjectEjPv
libFOX-1.6.so.0:_ZN2FX10FXColorBar15getDefaultWidthEv
libFOX-1.6.so.0:_ZN2FX10FXColorBar16getDefaultHeightEv
libFOX-1.6.so.0:_ZN2FX10FXColorBar16onLeftBtnReleaseEPNS_8FXObjectEjPv
libFOX-1.6.so.0:_ZN2FX10FXColorBar4loadERNS_8FXStreamE
libFOX-1.6.so.0:_ZN2FX10FXColorBar6createEv
libFOX-1.6.so.0:_ZN2FX10FXColorBar6detachEv
libFOX-1.6.so.0:_ZN2FX10FXColorBar6handleEPNS_8FXObjectEjPv
libFOX-1.6.so.0:_ZN2FX10FXColorBar6layoutEv
libFOX-1.6.so.0:_ZN2FX10FXColorBar6setHueEf
libFOX-1.6.so.0:_ZN2FX10FXColorBar6setSatEf
libFOX-1.6.so.0:_ZN2FX10FXColorBar6setValEf
libFOX-1.6.so.0:_ZN2FX10FXColorBar7onPaintEPNS_8FXObjectEjPv
libFOX-1.6.so.0:_ZN2FX10FXColorBar8onMotionEPNS_8FXObjectEjPv
libFOX-1.6.so.0:_ZN2FX10FXColorBar9updatebarEv
libFOX-1.6.so.0:_ZN2FX10FXColorBarC1EPNS_11FXCompositeEPNS_8FXObjectEjjiiiiiiii
libFOX-1.6.so.0:_ZN2FX10FXColorBarC1Ev
libFOX-1.6.so.0:_ZN2FX10FXColorBarC2EPNS_11FXCompositeEPNS_8FXObjectEjjiiiiiiii
libFOX-1.6.so.0:_ZN2FX10FXColorBarC2Ev
libFOX-1.6.so.0:_ZN2FX10FXColorBarD0Ev
libFOX-1.6.so.0:_ZN2FX10FXColorBarD1Ev
libFOX-1.6.so.0:_ZN2FX10FXColorBarD2Ev
libFOX-1.6.so.0:_ZN2FX10FXComboBox10appendItemERKNS_8FXStringEPv
libFOX-1.6.so.0:_ZN2FX10FXComboBox10clearItemsEv
libFOX-1.6.so.0:_ZN2FX10FXComboBox10insertItemEiRKNS_8FXStringEPv
libFOX-1.6.so.0:_ZN2FX10FXComboBox10removeItemEi
libFOX-1.6.so.0:_ZN2FX10FXComboBox10setJustifyEj
libFOX-1.6.so.0:_ZN2FX10FXComboBox10setTipTextERKNS_8FXStringE
libFOX-1.6.so.0:_ZN2FX10FXComboBox11manufactureEv
libFOX-1.6.so.0:_ZN2FX10FXComboBox11onFocusDownEPNS_8FXObjectEjPv
libFOX-1.6.so.0:_ZN2FX10FXComboBox11onFocusSelfEPNS_8FXObjectEjPv
libFOX-1.6.so.0:_ZN2FX10FXComboBox11onFwdToTextEPNS_8FXObjectEjPv
libFOX-1.6.so.0:_ZN2FX10FXComboBox11onUpdFmTextEPNS_8FXObjectEjPv
libFOX-1.6.so.0:_ZN2FX10FXComboBox11prependItemERKNS_8FXStringEPv
libFOX-1.6.so.0:_ZN2FX10FXComboBox11setEditableEh
libFOX-1.6.so.0:_ZN2FX10FXComboBox11setHelpTextERKNS_8FXStringE
libFOX-1.6.so.0:_ZN2FX10FXComboBox11setItemTextEiRKNS_8FXStringE
libFOX-1.6.so.0:_ZN2FX10FXComboBox11setSortFuncEPFiPKNS_10FXListItemES3_E
libFOX-1.6.so.0:_ZN2FX10FXComboBox12onMouseWheelEPNS_8FXObjectEjPv
libFOX-1.6.so.0:_ZN2FX10FXComboBox12onTextButtonEPNS_8FXObjectEjPv
libFOX-1.6.so.0:_ZN2FX10FXComboBox12setBackColorEj
libFOX-1.6.so.0:_ZN2FX10FXComboBox12setTextColorEj
libFOX-1.6.so.0:_ZN2FX10FXComboBox13onListClickedEPNS_8FXObjectEjPv
libFOX-1.6.so.0:_ZN2FX10FXComboBox13onTextChangedEPNS_8FXObjectEjPv
libFOX-1.6.so.0:_ZN2FX10FXComboBox13onTextCommandEPNS_8FXObjectEjPv
libFOX-1.6.so.0:_ZN2FX10FXComboBox13setComboStyleEj
libFOX-1.6.so.0:_ZN2FX10FXComboBox13setNumColumnsEi
libFOX-1.6.so.0:_ZN2FX10FXComboBox13setNumVisibleEi
libFOX-1.6.so.0:_ZN2FX10FXComboBox14setCurrentItemEih
libFOX-1.6.so.0:_ZN2FX10FXComboBox15getDefaultWidthEv
libFOX-1.6.so.0:_ZN2FX10FXComboBox15setSelBackColorEj
libFOX-1.6.so.0:_ZN2FX10FXComboBox15setSelTextColorEj
libFOX-1.6.so.0:_ZN2FX10FXComboBox16getDefaultHeightEv
libFOX-1.6.so.0:_ZN2FX10FXComboBox4loadERNS_8FXStreamE
libFOX-1.6.so.0:_ZN2FX10FXComboBox6createEv
libFOX-1.6.so.0:_ZN2FX10FXComboBox6detachEv
libFOX-1.6.so.0:_ZN2FX10FXComboBox6enableEv
libFOX-1.6.so.0:_ZN2FX10FXComboBox6handleEPNS_8FXObjectEjPv
libFOX-1.6.so.0:_ZN2FX10FXComboBox6layoutEv
libFOX-1.6.so.0:_ZN2FX10FXComboBox7destroyEv
libFOX-1.6.so.0:_ZN2FX10FXComboBox7disableEv
libFOX-1.6.so.0:_ZN2FX10FXComboBox7setFontEPNS_6FXFontE
libFOX-1.6.so.0:_ZN2FX10FXComboBox7setItemEiRKNS_8FXStringEPv
libFOX-1.6.so.0:_ZN2FX10FXComboBox7setTextERKNS_8FXStringE
libFOX-1.6.so.0:_ZN2FX10FXComboBox8moveItemEii
libFOX-1.6.so.0:_ZN2FX10FXComboBox9fillItemsEPPKc
libFOX-1.6.so.0:_ZN2FX10FXComboBox9fillItemsERKNS_8FXStringE
libFOX-1.6.so.0:_ZN2FX10FXComboBox9onFocusUpEPNS_8FXObjectEjPv
libFOX-1.6.so.0:_ZN2FX10FXComboBox9sortItemsEv
libFOX-1.6.so.0:_ZN2FX10FXComboBoxC1EPNS_11FXCompositeEiPNS_8FXObjectEjjiiiiiiii
libFOX-1.6.so.0:_ZN2FX10FXComboBoxC2EPNS_11FXCompositeEiPNS_8FXObjectEjjiiiiiiii
libFOX-1.6.so.0:_ZN2FX10FXComboBoxD0Ev
libFOX-1.6.so.0:_ZN2FX10FXComboBoxD1Ev
libFOX-1.6.so.0:_ZN2FX10FXComboBoxD2Ev
libFOX-1.6.so.0:_ZN2FX10FXDCWindow10drawBitmapEPKNS_8FXBitmapEii
libFOX-1.6.so.0:_ZN2FX10FXDCWindow10drawPointsEPKNS_7FXPointEj
libFOX-1.6.so.0:_ZN2FX10FXDCWindow10fillChordsEPKNS_5FXArcEj
libFOX-1.6.so.0:_ZN2FX10FXDCWindow10setLineCapENS_10FXCapStyleE
libFOX-1.6.so.0:_ZN2FX10FXDCWindow10setStippleENS_16FXStipplePatternEii
libFOX-1.6.so.0:_ZN2FX10FXDCWindow10setStippleEPNS_8FXBitmapEii
libFOX-1.6.so.0:_ZN2FX10FXDCWindow11drawEllipseEiiii
libFOX-1.6.so.0:_ZN2FX10FXDCWindow11drawHashBoxEiiiii
libFOX-1.6.so.0:_ZN2FX10FXDCWindow11fillEllipseEiiii
libFOX-1.6.so.0:_ZN2FX10FXDCWindow11fillPolygonEPKNS_7FXPointEj
libFOX-1.6.so.0:_ZN2FX10FXDCWindow11setClipMaskEPNS_8FXBitmapEii
libFOX-1.6.so.0:_ZN2FX10FXDCWindow11setFillRuleENS_10FXFillRuleE
libFOX-1.6.so.0:_ZN2FX10FXDCWindow11setFunctionENS_10FXFunctionE
libFOX-1.6.so.0:_ZN2FX10FXDCWindow11setLineJoinENS_11FXJoinStyleE
libFOX-1.6.so.0:_ZN2FX10FXDCWindow12clipChildrenEh
libFOX-1.6.so.0:_ZN2FX10FXDCWindow12drawLinesRelEPKNS_7FXPointEj
libFOX-1.6.so.0:_ZN2FX10FXDCWindow12setFillStyleENS_11FXFillStyleE
libFOX-1.6.so.0:_ZN2FX10FXDCWindow12setLineStyleENS_11FXLineStyleE
libFOX-1.6.so.0:_ZN2FX10FXDCWindow12setLineWidthEj
libFOX-1.6.so.0:_ZN2FX10FXDCWindow13clearClipMaskEv
libFOX-1.6.so.0:_ZN2FX10FXDCWindow13drawImageTextEiiPKcj
libFOX-1.6.so.0:_ZN2FX10FXDCWindow13drawImageTextEiiRKNS_8FXStringE
libFOX-1.6.so.0:_ZN2FX10FXDCWindow13drawPointsRelEPKNS_7FXPointEj
libFOX-1.6.so.0:_ZN2FX10FXDCWindow13drawRectangleEiiii
libFOX-1.6.so.0:_ZN2FX10FXDCWindow13fillRectangleEiiii
libFOX-1.6.so.0:_ZN2FX10FXDCWindow13setBackgroundEj
libFOX-1.6.so.0:_ZN2FX10FXDCWindow13setClipRegionERKNS_8FXRegionE
libFOX-1.6.so.0:_ZN2FX10FXDCWindow13setForegroundEj
libFOX-1.6.so.0:_ZN2FX10FXDCWindow14drawIconShadedEPKNS_6FXIconEii
libFOX-1.6.so.0:_ZN2FX10FXDCWindow14drawIconSunkenEPKNS_6FXIconEii
libFOX-1.6.so.0:_ZN2FX10FXDCWindow14drawRectanglesEPKNS_11FXRectangleEj
libFOX-1.6.so.0:_ZN2FX10FXDCWindow14fillPolygonRelEPKNS_7FXPointEj
libFOX-1.6.so.0:_ZN2FX10FXDCWindow14fillRectanglesEPKNS_11FXRectangleEj
libFOX-1.6.so.0:_ZN2FX10FXDCWindow16drawLineSegmentsEPKNS_9FXSegmentEj
libFOX-1.6.so.0:_ZN2FX10FXDCWindow16setClipRectangleERKNS_11FXRectangleE
libFOX-1.6.so.0:_ZN2FX10FXDCWindow16setClipRectangleEiiii
libFOX-1.6.so.0:_ZN2FX10FXDCWindow18clearClipRectangleEv
libFOX-1.6.so.0:_ZN2FX10FXDCWindow18drawFocusRectangleEiiii
libFOX-1.6.so.0:_ZN2FX10FXDCWindow18drawRoundRectangleEiiiiii
libFOX-1.6.so.0:_ZN2FX10FXDCWindow18fillComplexPolygonEPKNS_7FXPointEj
libFOX-1.6.so.0:_ZN2FX10FXDCWindow18fillConcavePolygonEPKNS_7FXPointEj
libFOX-1.6.so.0:_ZN2FX10FXDCWindow18fillRoundRectangleEiiiiii
libFOX-1.6.so.0:_ZN2FX10FXDCWindow21fillComplexPolygonRelEPKNS_7FXPointEj
libFOX-1.6.so.0:_ZN2FX10FXDCWindow21fillConcavePolygonRelEPKNS_7FXPointEj
libFOX-1.6.so.0:_ZN2FX10FXDCWindow3endEv
libFOX-1.6.so.0:_ZN2FX10FXDCWindow5beginEPNS_10FXDrawableE
libFOX-1.6.so.0:_ZN2FX10FXDCWindow7drawArcEiiiiii
libFOX-1.6.so.0:_ZN2FX10FXDCWindow7fillArcEiiiiii
libFOX-1.6.so.0:_ZN2FX10FXDCWindow7setFontEPNS_6FXFontE
libFOX-1.6.so.0:_ZN2FX10FXDCWindow7setTileEPNS_7FXImageEii
libFOX-1.6.so.0:_ZN2FX10FXDCWindow8drawArcsEPKNS_5FXArcEj
libFOX-1.6.so.0:_ZN2FX10FXDCWindow8drawAreaEPKNS_10FXDrawableEiiiiii
libFOX-1.6.so.0:_ZN2FX10FXDCWindow8drawAreaEPKNS_10FXDrawableEiiiiiiii
libFOX-1.6.so.0:_ZN2FX10FXDCWindow8drawIconEPKNS_6FXIconEii
libFOX-1.6.so.0:_ZN2FX10FXDCWindow8drawLineEiiii
libFOX-1.6.so.0:_ZN2FX10FXDCWindow8drawTextEiiPKcj
libFOX-1.6.so.0:_ZN2FX10FXDCWindow8drawTextEiiRKNS_8FXStringE
libFOX-1.6.so.0:_ZN2FX10FXDCWindow8fillArcsEPKNS_5FXArcEj
libFOX-1.6.so.0:_ZN2FX10FXDCWindow9drawImageEPKNS_7FXImageEii
libFOX-1.6.so.0:_ZN2FX10FXDCWindow9drawLinesEPKNS_7FXPointEj
libFOX-1.6.so.0:_ZN2FX10FXDCWindow9drawPointEii
libFOX-1.6.so.0:_ZN2FX10FXDCWindow9fillChordEiiiiii
libFOX-1.6.so.0:_ZN2FX10FXDCWindow9readPixelEii
libFOX-1.6.so.0:_ZN2FX10FXDCWindow9setDashesEjPKcj
libFOX-1.6.so.0:_ZN2FX10FXDCWindowC1EPNS_10FXDrawableE
libFOX-1.6.so.0:_ZN2FX10FXDCWindowC1EPNS_10FXDrawableEPNS_7FXEventE
libFOX-1.6.so.0:_ZN2FX10FXDCWindowC2EPNS_10FXDrawableE
libFOX-1.6.so.0:_ZN2FX10FXDCWindowC2EPNS_10FXDrawableEPNS_7FXEventE
libFOX-1.6.so.0:_ZN2FX10FXDCWindowD0Ev
libFOX-1.6.so.0:_ZN2FX10FXDCWindowD1Ev
libFOX-1.6.so.0:_ZN2FX10FXDCWindowD2Ev
libFOX-1.6.so.0:_ZN2FX10FXDockSite10moveHorBarEPNS_8FXWindowES2_S2_ii
libFOX-1.6.so.0:_ZN2FX10FXDockSite10moveVerBarEPNS_8FXWindowES2_S2_ii
libFOX-1.6.so.0:_ZN2FX10FXDockSite11dockToolBarEPNS_9FXDockBarEPNS_8FXWindowE
libFOX-1.6.so.0:_ZN2FX10FXDockSite11dockToolBarEPNS_9FXDockBarEii
libFOX-1.6.so.0:_ZN2FX10FXDockSite11manufactureEv
libFOX-1.6.so.0:_ZN2FX10FXDockSite11moveToolBarEPNS_9FXDockBarEii
libFOX-1.6.so.0:_ZN2FX10FXDockSite11wrapGalleysEh
libFOX-1.6.so.0:_ZN2FX10FXDockSite13undockToolBarEPNS_9FXDockBarE
libFOX-1.6.so.0:_ZN2FX10FXDockSite15getDefaultWidthEv
libFOX-1.6.so.0:_ZN2FX10FXDockSite16getDefaultHeightEv
libFOX-1.6.so.0:_ZN2FX10FXDockSite17getHeightForWidthEi
libFOX-1.6.so.0:_ZN2FX10FXDockSite17getWidthForHeightEi
libFOX-1.6.so.0:_ZN2FX10FXDockSite6handleEPNS_8FXObjectEjPv
libFOX-1.6.so.0:_ZN2FX10FXDockSite6layoutEv
libFOX-1.6.so.0:_ZN2FX10FXDockSiteC1EPNS_11FXCompositeEjiiiiiiiiii
libFOX-1.6.so.0:_ZN2FX10FXDockSiteC2EPNS_11FXCompositeEjiiiiiiiiii
libFOX-1.6.so.0:_ZN2FX10FXDocument10onUpdTitleEPNS_8FXObjectEjPv
libFOX-1.6.so.0:_ZN2FX10FXDocument11manufactureEv
libFOX-1.6.so.0:_ZN2FX10FXDocument11setFilenameERKNS_8FXStringE
libFOX-1.6.so.0:_ZN2FX10FXDocument13onUpdFilenameEPNS_8FXObjectEjPv
libFOX-1.6.so.0:_ZN2FX10FXDocument4loadERNS_8FXStreamE
libFOX-1.6.so.0:_ZN2FX10FXDocument6handleEPNS_8FXObjectEjPv
libFOX-1.6.so.0:_ZN2FX10FXDocument8setTitleERKNS_8FXStringE
libFOX-1.6.so.0:_ZN2FX10FXDocumentC1Ev
libFOX-1.6.so.0:_ZN2FX10FXDocumentC2Ev
libFOX-1.6.so.0:_ZN2FX10FXDocumentD0Ev
libFOX-1.6.so.0:_ZN2FX10FXDocumentD1Ev
libFOX-1.6.so.0:_ZN2FX10FXDocumentD2Ev
libFOX-1.6.so.0:_ZN2FX10FXDrawable4loadERNS_8FXStreamE
libFOX-1.6.so.0:_ZN2FX10FXDrawable6handleEPNS_8FXObjectEjPv
libFOX-1.6.so.0:_ZN2FX10FXDrawable6resizeEii
libFOX-1.6.so.0:_ZN2FX10FXDrawable9setVisualEPNS_8FXVisualE
libFOX-1.6.so.0:_ZN2FX10FXDrawableC1EPNS_5FXAppEii
libFOX-1.6.so.0:_ZN2FX10FXDrawableC1Ev
libFOX-1.6.so.0:_ZN2FX10FXDrawableC2EPNS_5FXAppEii
libFOX-1.6.so.0:_ZN2FX10FXDrawableC2Ev
libFOX-1.6.so.0:_ZN2FX10FXDrawableD0Ev
libFOX-1.6.so.0:_ZN2FX10FXDrawableD1Ev
libFOX-1.6.so.0:_ZN2FX10FXDrawableD2Ev
libFOX-1.6.so.0:_ZN2FX10FXDriveBox10listDrivesEv
libFOX-1.6.so.0:_ZN2FX10FXDriveBox11manufactureEv
libFOX-1.6.so.0:_ZN2FX10FXDriveBox13onCmdSetValueEPNS_8FXObjectEjPv
libFOX-1.6.so.0:_ZN2FX10FXDriveBox13onListChangedEPNS_8FXObjectEjPv
libFOX-1.6.so.0:_ZN2FX10FXDriveBox13onListClickedEPNS_8FXObjectEjPv
libFOX-1.6.so.0:_ZN2FX10FXDriveBox15setAssociationsEPNS_10FXFileDictE
libFOX-1.6.so.0:_ZN2FX10FXDriveBox19onCmdGetStringValueEPNS_8FXObjectEjPv
libFOX-1.6.so.0:_ZN2FX10FXDriveBox19onCmdSetStringValueEPNS_8FXObjectEjPv
libFOX-1.6.so.0:_ZN2FX10FXDriveBox4loadERNS_8FXStreamE
libFOX-1.6.so.0:_ZN2FX10FXDriveBox6createEv
libFOX-1.6.so.0:_ZN2FX10FXDriveBox6detachEv
libFOX-1.6.so.0:_ZN2FX10FXDriveBox6handleEPNS_8FXObjectEjPv
libFOX-1.6.so.0:_ZN2FX10FXDriveBox7destroyEv
libFOX-1.6.so.0:_ZN2FX10FXDriveBox8setDriveERKNS_8FXStringE
libFOX-1.6.so.0:_ZN2FX10FXDriveBoxC1EPNS_11FXCompositeEPNS_8FXObjectEjjiiiiiiii
libFOX-1.6.so.0:_ZN2FX10FXDriveBoxC2EPNS_11FXCompositeEPNS_8FXObjectEjjiiiiiiii
libFOX-1.6.so.0:_ZN2FX10FXDriveBoxD0Ev
libFOX-1.6.so.0:_ZN2FX10FXDriveBoxD1Ev
libFOX-1.6.so.0:_ZN2FX10FXDriveBoxD2Ev
libFOX-1.6.so.0:_ZN2FX10FXFileDict10createDataEPKv
libFOX-1.6.so.0:_ZN2FX10FXFileDict10deleteDataEPv
libFOX-1.6.so.0:_ZN2FX10FXFileDict11manufactureEv
libFOX-1.6.so.0:_ZN2FX10FXFileDict11setIconPathERKNS_8FXStringE
libFOX-1.6.so.0:_ZN2FX10FXFileDict14findDirBindingEPKc
libFOX-1.6.so.0:_ZN2FX10FXFileDict15findExecBindingEPKc
libFOX-1.6.so.0:_ZN2FX10FXFileDict15findFileBindingEPKc
libFOX-1.6.so.0:_ZN2FX10FXFileDict4findEPKc
libFOX-1.6.so.0:_ZN2FX10FXFileDict4loadERNS_8FXStreamE
libFOX-1.6.so.0:_ZN2FX10FXFileDict6handleEPNS_8FXObjectEjPv
libFOX-1.6.so.0:_ZN2FX10FXFileDict6removeEPKc
libFOX-1.6.so.0:_ZN2FX10FXFileDict7replaceEPKcS2_
libFOX-1.6.so.0:_ZN2FX10FXFileDictC1EPNS_5FXAppE
libFOX-1.6.so.0:_ZN2FX10FXFileDictC1EPNS_5FXAppEPNS_10FXSettingsE
libFOX-1.6.so.0:_ZN2FX10FXFileDictC2EPNS_5FXAppE
libFOX-1.6.so.0:_ZN2FX10FXFileDictC2EPNS_5FXAppEPNS_10FXSettingsE
libFOX-1.6.so.0:_ZN2FX10FXFileDictD0Ev
libFOX-1.6.so.0:_ZN2FX10FXFileDictD1Ev
libFOX-1.6.so.0:_ZN2FX10FXFileDictD2Ev
libFOX-1.6.so.0:_ZN2FX10FXFileItem11manufactureEv
libFOX-1.6.so.0:_ZN2FX10FXFileItem6handleEPNS_8FXObjectEjPv
libFOX-1.6.so.0:_ZN2FX10FXFileList10createItemERKNS_8FXStringEPNS_6FXIconES5_Pv
libFOX-1.6.so.0:_ZN2FX10FXFileList10descendingEPKNS_10FXIconItemES3_
libFOX-1.6.so.0:_ZN2FX10FXFileList10onDNDEnterEPNS_8FXObjectEjPv
libFOX-1.6.so.0:_ZN2FX10FXFileList10onDNDLeaveEPNS_8FXObjectEjPv
libFOX-1.6.so.0:_ZN2FX10FXFileList10setPatternERKNS_8FXStringE
libFOX-1.6.so.0:_ZN2FX10FXFileList10showImagesEh
libFOX-1.6.so.0:_ZN2FX10FXFileList11manufactureEv
libFOX-1.6.so.0:_ZN2FX10FXFileList11onBeginDragEPNS_8FXObjectEjPv
libFOX-1.6.so.0:_ZN2FX10FXFileList11onCmdHeaderEPNS_8FXObjectEjPv
libFOX-1.6.so.0:_ZN2FX10FXFileList11onDNDMotionEPNS_8FXObjectEjPv
libFOX-1.6.so.0:_ZN2FX10FXFileList11onOpenTimerEPNS_8FXObjectEjPv
libFOX-1.6.so.0:_ZN2FX10FXFileList11onUpdHeaderEPNS_8FXObjectEjPv
libFOX-1.6.so.0:_ZN2FX10FXFileList11showParentsEh
libFOX-1.6.so.0:_ZN2FX10FXFileList12onCmdRefreshEPNS_8FXObjectEjPv
libFOX-1.6.so.0:_ZN2FX10FXFileList12onDNDRequestEPNS_8FXObjectEjPv
libFOX-1.6.so.0:_ZN2FX10FXFileList12setDirectoryERKNS_8FXStringE
libFOX-1.6.so.0:_ZN2FX10FXFileList12setImageSizeEi
libFOX-1.6.so.0:_ZN2FX10FXFileList12setMatchModeEj
libFOX-1.6.so.0:_ZN2FX10FXFileList13ascendingCaseEPKNS_10FXIconItemES3_
libFOX-1.6.so.0:_ZN2FX10FXFileList13ascendingSizeEPKNS_10FXIconItemES3_
libFOX-1.6.so.0:_ZN2FX10FXFileList13ascendingTimeEPKNS_10FXIconItemES3_
libFOX-1.6.so.0:_ZN2FX10FXFileList13ascendingTypeEPKNS_10FXIconItemES3_
libFOX-1.6.so.0:_ZN2FX10FXFileList13ascendingUserEPKNS_10FXIconItemES3_
libFOX-1.6.so.0:_ZN2FX10FXFileList13onCmdSetValueEPNS_8FXObjectEjPv
libFOX-1.6.so.0:_ZN2FX10FXFileList13onCmdSortCaseEPNS_8FXObjectEjPv
libFOX-1.6.so.0:_ZN2FX10FXFileList13onUpdSortCaseEPNS_8FXObjectEjPv
libFOX-1.6.so.0:_ZN2FX10FXFileList13showOnlyFilesEh
libFOX-1.6.so.0:_ZN2FX10FXFileList14ascendingGroupEPKNS_10FXIconItemES3_
libFOX-1.6.so.0:_ZN2FX10FXFileList14descendingCaseEPKNS_10FXIconItemES3_
libFOX-1.6.so.0:_ZN2FX10FXFileList14descendingSizeEPKNS_10FXIconItemES3_
libFOX-1.6.so.0:_ZN2FX10FXFileList14descendingTimeEPKNS_10FXIconItemES3_
libFOX-1.6.so.0:_ZN2FX10FXFileList14descendingTypeEPKNS_10FXIconItemES3_
libFOX-1.6.so.0:_ZN2FX10FXFileList14descendingUserEPKNS_10FXIconItemES3_
libFOX-1.6.so.0:_ZN2FX10FXFileList14onRefreshTimerEPNS_8FXObjectEjPv
libFOX-1.6.so.0:_ZN2FX10FXFileList14setCurrentFileERKNS_8FXStringEh
libFOX-1.6.so.0:_ZN2FX10FXFileList15descendingGroupEPKNS_10FXIconItemES3_
libFOX-1.6.so.0:_ZN2FX10FXFileList15onCmdHideHiddenEPNS_8FXObjectEjPv
libFOX-1.6.so.0:_ZN2FX10FXFileList15onCmdSetPatternEPNS_8FXObjectEjPv
libFOX-1.6.so.0:_ZN2FX10FXFileList15onCmdShowHiddenEPNS_8FXObjectEjPv
libFOX-1.6.so.0:_ZN2FX10FXFileList15onCmdSortByNameEPNS_8FXObjectEjPv
libFOX-1.6.so.0:_ZN2FX10FXFileList15onCmdSortBySizeEPNS_8FXObjectEjPv
libFOX-1.6.so.0:_ZN2FX10FXFileList15onCmdSortByTimeEPNS_8FXObjectEjPv
libFOX-1.6.so.0:_ZN2FX10FXFileList15onCmdSortByTypeEPNS_8FXObjectEjPv
libFOX-1.6.so.0:_ZN2FX10FXFileList15onCmdSortByUserEPNS_8FXObjectEjPv
libFOX-1.6.so.0:_ZN2FX10FXFileList15onUpdHideHiddenEPNS_8FXObjectEjPv
libFOX-1.6.so.0:_ZN2FX10FXFileList15onUpdSetPatternEPNS_8FXObjectEjPv
libFOX-1.6.so.0:_ZN2FX10FXFileList15onUpdShowHiddenEPNS_8FXObjectEjPv
libFOX-1.6.so.0:_ZN2FX10FXFileList15onUpdSortByNameEPNS_8FXObjectEjPv
libFOX-1.6.so.0:_ZN2FX10FXFileList15onUpdSortBySizeEPNS_8FXObjectEjPv
libFOX-1.6.so.0:_ZN2FX10FXFileList15onUpdSortByTimeEPNS_8FXObjectEjPv
libFOX-1.6.so.0:_ZN2FX10FXFileList15onUpdSortByTypeEPNS_8FXObjectEjPv
libFOX-1.6.so.0:_ZN2FX10FXFileList15onUpdSortByUserEPNS_8FXObjectEjPv
libFOX-1.6.so.0:_ZN2FX10FXFileList15setAssociationsEPNS_10FXFileDictE
libFOX-1.6.so.0:_ZN2FX10FXFileList15showHiddenFilesEh
libFOX-1.6.so.0:_ZN2FX10FXFileList16onCmdDirectoryUpEPNS_8FXObjectEjPv
libFOX-1.6.so.0:_ZN2FX10FXFileList16onCmdSortByGroupEPNS_8FXObjectEjPv
libFOX-1.6.so.0:_ZN2FX10FXFileList16onCmdSortReverseEPNS_8FXObjectEjPv
libFOX-1.6.so.0:_ZN2FX10FXFileList16onUpdDirectoryUpEPNS_8FXObjectEjPv
libFOX-1.6.so.0:_ZN2FX10FXFileList16onUpdSortByGroupEPNS_8FXObjectEjPv
libFOX-1.6.so.0:_ZN2FX10FXFileList16onUpdSortReverseEPNS_8FXObjectEjPv
libFOX-1.6.so.0:_ZN2FX10FXFileList17onCmdSetDirectoryEPNS_8FXObjectEjPv
libFOX-1.6.so.0:_ZN2FX10FXFileList17onCmdToggleHiddenEPNS_8FXObjectEjPv
libFOX-1.6.so.0:_ZN2FX10FXFileList17onCmdToggleImagesEPNS_8FXObjectEjPv
libFOX-1.6.so.0:_ZN2FX10FXFileList17onUpdSetDirectoryEPNS_8FXObjectEjPv
libFOX-1.6.so.0:_ZN2FX10FXFileList17onUpdToggleHiddenEPNS_8FXObjectEjPv
libFOX-1.6.so.0:_ZN2FX10FXFileList17onUpdToggleImagesEPNS_8FXObjectEjPv
libFOX-1.6.so.0:_ZN2FX10FXFileList19onCmdGetStringValueEPNS_8FXObjectEjPv
libFOX-1.6.so.0:_ZN2FX10FXFileList19onCmdSetStringValueEPNS_8FXObjectEjPv
libFOX-1.6.so.0:_ZN2FX10FXFileList19showOnlyDirectoriesEh
libFOX-1.6.so.0:_ZN2FX10FXFileList4loadERNS_8FXStreamE
libFOX-1.6.so.0:_ZN2FX10FXFileList4scanEh
libFOX-1.6.so.0:_ZN2FX10FXFileList6createEv
libFOX-1.6.so.0:_ZN2FX10FXFileList6detachEv
libFOX-1.6.so.0:_ZN2FX10FXFileList6handleEPNS_8FXObjectEjPv
libFOX-1.6.so.0:_ZN2FX10FXFileList7destroyEv
libFOX-1.6.so.0:_ZN2FX10FXFileList9ascendingEPKNS_10FXIconItemES3_
libFOX-1.6.so.0:_ZN2FX10FXFileList9listItemsEh
libFOX-1.6.so.0:_ZN2FX10FXFileList9onDNDDropEPNS_8FXObjectEjPv
libFOX-1.6.so.0:_ZN2FX10FXFileList9onDraggedEPNS_8FXObjectEjPv
libFOX-1.6.so.0:_ZN2FX10FXFileList9onEndDragEPNS_8FXObjectEjPv
libFOX-1.6.so.0:_ZN2FX10FXFileListC1EPNS_11FXCompositeEPNS_8FXObjectEjjiiii
libFOX-1.6.so.0:_ZN2FX10FXFileListC1Ev
libFOX-1.6.so.0:_ZN2FX10FXFileListC2EPNS_11FXCompositeEPNS_8FXObjectEjjiiii
libFOX-1.6.so.0:_ZN2FX10FXFileListC2Ev
libFOX-1.6.so.0:_ZN2FX10FXFileListD0Ev
libFOX-1.6.so.0:_ZN2FX10FXFileListD1Ev
libFOX-1.6.so.0:_ZN2FX10FXFileListD2Ev
libFOX-1.6.so.0:_ZN2FX10FXFloatValERKNS_8FXStringE
libFOX-1.6.so.0:_ZN2FX10FXGIFImage10loadPixelsERNS_8FXStreamE
libFOX-1.6.so.0:_ZN2FX10FXGIFImage11manufactureEv
libFOX-1.6.so.0:_ZN2FX10FXGIFImage6handleEPNS_8FXObjectEjPv
libFOX-1.6.so.0:_ZN2FX10FXGIFImageC1EPNS_5FXAppEPKvjii
libFOX-1.6.so.0:_ZN2FX10FXGIFImageC2EPNS_5FXAppEPKvjii
libFOX-1.6.so.0:_ZN2FX10FXGIFImageD0Ev
libFOX-1.6.so.0:_ZN2FX10FXGIFImageD1Ev
libFOX-1.6.so.0:_ZN2FX10FXGIFImageD2Ev
libFOX-1.6.so.0:_ZN2FX10FXGLCanvas11makeCurrentEv
libFOX-1.6.so.0:_ZN2FX10FXGLCanvas11manufactureEv
libFOX-1.6.so.0:_ZN2FX10FXGLCanvas11swapBuffersEv
libFOX-1.6.so.0:_ZN2FX10FXGLCanvas14makeNonCurrentEv
libFOX-1.6.so.0:_ZN2FX10FXGLCanvas17getCurrentContextEv
libFOX-1.6.so.0:_ZN2FX10FXGLCanvas4loadERNS_8FXStreamE
libFOX-1.6.so.0:_ZN2FX10FXGLCanvas6createEv
libFOX-1.6.so.0:_ZN2FX10FXGLCanvas6detachEv
libFOX-1.6.so.0:_ZN2FX10FXGLCanvas6handleEPNS_8FXObjectEjPv
libFOX-1.6.so.0:_ZN2FX10FXGLCanvas7destroyEv
libFOX-1.6.so.0:_ZN2FX10FXGLCanvasC1EPNS_11FXCompositeEPNS_10FXGLVisualEPNS_8FXObjectEjjiiii
libFOX-1.6.so.0:_ZN2FX10FXGLCanvasC1EPNS_11FXCompositeEPNS_10FXGLVisualEPS0_PNS_8FXObjectEjjiiii
libFOX-1.6.so.0:_ZN2FX10FXGLCanvasC1Ev
libFOX-1.6.so.0:_ZN2FX10FXGLCanvasC2EPNS_11FXCompositeEPNS_10FXGLVisualEPNS_8FXObjectEjjiiii
libFOX-1.6.so.0:_ZN2FX10FXGLCanvasC2EPNS_11FXCompositeEPNS_10FXGLVisualEPS0_PNS_8FXObjectEjjiiii
libFOX-1.6.so.0:_ZN2FX10FXGLCanvasC2Ev
libFOX-1.6.so.0:_ZN2FX10FXGLCanvasD0Ev
libFOX-1.6.so.0:_ZN2FX10FXGLCanvasD1Ev
libFOX-1.6.so.0:_ZN2FX10FXGLCanvasD2Ev
libFOX-1.6.so.0:_ZN2FX10FXGLObject11manufactureEv
libFOX-1.6.so.0:_ZN2FX10FXGLObject3hitEPNS_10FXGLViewerE
libFOX-1.6.so.0:_ZN2FX10FXGLObject4copyEv
libFOX-1.6.so.0:_ZN2FX10FXGLObject4dragEPNS_10FXGLViewerEiiii
libFOX-1.6.so.0:_ZN2FX10FXGLObject4drawEPNS_10FXGLViewerE
libFOX-1.6.so.0:_ZN2FX10FXGLObject6boundsERNS_8FXRangefE
libFOX-1.6.so.0:_ZN2FX10FXGLObject6handleEPNS_8FXObjectEjPv
libFOX-1.6.so.0:_ZN2FX10FXGLObject8identifyEPj
libFOX-1.6.so.0:_ZN2FX10FXGLSphere11manufactureEv
libFOX-1.6.so.0:_ZN2FX10FXGLSphere4copyEv
libFOX-1.6.so.0:_ZN2FX10FXGLSphere4loadERNS_8FXStreamE
libFOX-1.6.so.0:_ZN2FX10FXGLSphere6handleEPNS_8FXObjectEjPv
libFOX-1.6.so.0:_ZN2FX10FXGLSphere9drawshapeEPNS_10FXGLViewerE
libFOX-1.6.so.0:_ZN2FX10FXGLSphereC1ERKS0_
libFOX-1.6.so.0:_ZN2FX10FXGLSphereC1Effff
libFOX-1.6.so.0:_ZN2FX10FXGLSphereC1EffffRKNS_10FXMaterialE
libFOX-1.6.so.0:_ZN2FX10FXGLSphereC1Ev
libFOX-1.6.so.0:_ZN2FX10FXGLSphereC2ERKS0_
libFOX-1.6.so.0:_ZN2FX10FXGLSphereC2Effff
libFOX-1.6.so.0:_ZN2FX10FXGLSphereC2EffffRKNS_10FXMaterialE
libFOX-1.6.so.0:_ZN2FX10FXGLSphereC2Ev
libFOX-1.6.so.0:_ZN2FX10FXGLSphereD0Ev
libFOX-1.6.so.0:_ZN2FX10FXGLSphereD1Ev
libFOX-1.6.so.0:_ZN2FX10FXGLSphereD2Ev
libFOX-1.6.so.0:_ZN2FX10FXGLViewer10eyeToWorldENS_7FXVec3fE
libFOX-1.6.so.0:_ZN2FX10FXGLViewer10initializeEv
libFOX-1.6.so.0:_ZN2FX10FXGLViewer10onCmdFrontEPNS_8FXObjectEjPv
libFOX-1.6.so.0:_ZN2FX10FXGLViewer10onCmdRightEPNS_8FXObjectEjPv
libFOX-1.6.so.0:_ZN2FX10FXGLViewer10onCmdTurboEPNS_8FXObjectEjPv
libFOX-1.6.so.0:_ZN2FX10FXGLViewer10onDNDEnterEPNS_8FXObjectEjPv
libFOX-1.6.so.0:_ZN2FX10FXGLViewer10onDNDLeaveEPNS_8FXObjectEjPv
libFOX-1.6.so.0:_ZN2FX10FXGLViewer10onFocusOutEPNS_8FXObjectEjPv
libFOX-1.6.so.0:_ZN2FX10FXGLViewer10onInsertedEPNS_8FXObjectEjPv
libFOX-1.6.so.0:_ZN2FX10FXGLViewer10onKeyPressEPNS_8FXObjectEjPv
libFOX-1.6.so.0:_ZN2FX10FXGLViewer10onQueryTipEPNS_8FXObjectEjPv
libFOX-1.6.so.0:_ZN2FX10FXGLViewer10onSelectedEPNS_8FXObjectEjPv
libFOX-1.6.so.0:_ZN2FX10FXGLViewer10onTipTimerEPNS_8FXObjectEjPv
libFOX-1.6.so.0:_ZN2FX10FXGLViewer10onUpdFrontEPNS_8FXObjectEjPv
libFOX-1.6.so.0:_ZN2FX10FXGLViewer10onUpdRightEPNS_8FXObjectEjPv
libFOX-1.6.so.0:_ZN2FX10FXGLViewer10onUpdTurboEPNS_8FXObjectEjPv
libFOX-1.6.so.0:_ZN2FX10FXGLViewer10readPixelsERPjiiii
libFOX-1.6.so.0:_ZN2FX10FXGLViewer10selectHitsERPjRiiiii
libFOX-1.6.so.0:_ZN2FX10FXGLViewer10setTipTextERKNS_8FXStringE
libFOX-1.6.so.0:_ZN2FX10FXGLViewer10worldToEyeENS_7FXVec3fE
libFOX-1.6.so.0:_ZN2FX10FXGLViewer11eyeToScreenERiS1_NS_7FXVec3fE
libFOX-1.6.so.0:_ZN2FX10FXGLViewer11fitToBoundsERKNS_8FXRangefE
libFOX-1.6.so.0:_ZN2FX10FXGLViewer11manufactureEv
libFOX-1.6.so.0:_ZN2FX10FXGLViewer11onCmdBottomEPNS_8FXObjectEjPv
libFOX-1.6.so.0:_ZN2FX10FXGLViewer11onCmdCutSelEPNS_8FXObjectEjPv
libFOX-1.6.so.0:_ZN2FX10FXGLViewer11onCmdDitherEPNS_8FXObjectEjPv
libFOX-1.6.so.0:_ZN2FX10FXGLViewer11onDNDMotionEPNS_8FXObjectEjPv
libFOX-1.6.so.0:_ZN2FX10FXGLViewer11onQueryHelpEPNS_8FXObjectEjPv
libFOX-1.6.so.0:_ZN2FX10FXGLViewer11onUngrabbedEPNS_8FXObjectEjPv
libFOX-1.6.so.0:_ZN2FX10FXGLViewer11onUpdBottomEPNS_8FXObjectEjPv
libFOX-1.6.so.0:_ZN2FX10FXGLViewer11onUpdDitherEPNS_8FXObjectEjPv
libFOX-1.6.so.0:_ZN2FX10FXGLViewer11processHitsEPji
libFOX-1.6.so.0:_ZN2FX10FXGLViewer11screenToEyeEiif
libFOX-1.6.so.0:_ZN2FX10FXGLViewer11setDistanceEd
libFOX-1.6.so.0:_ZN2FX10FXGLViewer11setHelpTextERKNS_8FXStringE
libFOX-1.6.so.0:_ZN2FX10FXGLViewer11setMaterialERKNS_10FXMaterialE
libFOX-1.6.so.0:_ZN2FX10FXGLViewer11spherePointEii
libFOX-1.6.so.0:_ZN2FX10FXGLViewer11worldToEyeZENS_7FXVec3fE
libFOX-1.6.so.0:_ZN2FX10FXGLViewer11worldVectorEiiii
libFOX-1.6.so.0:_ZN2FX10FXGLViewer12drawFeedbackERNS_9FXDCPrintEPKfi
libFOX-1.6.so.0:_ZN2FX10FXGLViewer12onCmdCopySelEPNS_8FXObjectEjPv
libFOX-1.6.so.0:_ZN2FX10FXGLViewer12onCmdFitViewEPNS_8FXObjectEjPv
libFOX-1.6.so.0:_ZN2FX10FXGLViewer12onCmdXYZDialEPNS_8FXObjectEjPv
libFOX-1.6.so.0:_ZN2FX10FXGLViewer12onDeselectedEPNS_8FXObjectEjPv
libFOX-1.6.so.0:_ZN2FX10FXGLViewer12onKeyReleaseEPNS_8FXObjectEjPv
libFOX-1.6.so.0:_ZN2FX10FXGLViewer12onMouseWheelEPNS_8FXObjectEjPv
libFOX-1.6.so.0:_ZN2FX10FXGLViewer12onUpdCurrentEPNS_8FXObjectEjPv
libFOX-1.6.so.0:_ZN2FX10FXGLViewer12onUpdXYZDialEPNS_8FXObjectEjPv
libFOX-1.6.so.0:_ZN2FX10FXGLViewer12readFeedbackERPfRiS3_iiii
libFOX-1.6.so.0:_ZN2FX10FXGLViewer12setSelectionEPNS_10FXGLObjectE
libFOX-1.6.so.0:_ZN2FX10FXGLViewer12setTurboModeEh
libFOX-1.6.so.0:_ZN2FX10FXGLViewer13getBoreVectorEiiRNS_7FXVec3fES2_
libFOX-1.6.so.0:_ZN2FX10FXGLViewer13onCmdLightingEPNS_8FXObjectEjPv
libFOX-1.6.so.0:_ZN2FX10FXGLViewer13onCmdParallelEPNS_8FXObjectEjPv
libFOX-1.6.so.0:_ZN2FX10FXGLViewer13onCmdPasteSelEPNS_8FXObjectEjPv
libFOX-1.6.so.0:_ZN2FX10FXGLViewer13onCmdXYZScaleEPNS_8FXObjectEjPv
libFOX-1.6.so.0:_ZN2FX10FXGLViewer13onUpdLightingEPNS_8FXObjectEjPv
libFOX-1.6.so.0:_ZN2FX10FXGLViewer13onUpdParallelEPNS_8FXObjectEjPv
libFOX-1.6.so.0:_ZN2FX10FXGLViewer13onUpdXYZScaleEPNS_8FXObjectEjPv
libFOX-1.6.so.0:_ZN2FX10FXGLViewer13setProjectionEj
libFOX-1.6.so.0:_ZN2FX10FXGLViewer14onCmdBackColorEPNS_8FXObjectEjPv
libFOX-1.6.so.0:_ZN2FX10FXGLViewer14onCmdDeleteSelEPNS_8FXObjectEjPv
libFOX-1.6.so.0:_ZN2FX10FXGLViewer14onCmdLassoZoomEPNS_8FXObjectEjPv
libFOX-1.6.so.0:_ZN2FX10FXGLViewer14onCmdResetViewEPNS_8FXObjectEjPv
libFOX-1.6.so.0:_ZN2FX10FXGLViewer14onLeftBtnPressEPNS_8FXObjectEjPv
libFOX-1.6.so.0:_ZN2FX10FXGLViewer14onUpdBackColorEPNS_8FXObjectEjPv
libFOX-1.6.so.0:_ZN2FX10FXGLViewer14onUpdDeleteSelEPNS_8FXObjectEjPv
libFOX-1.6.so.0:_ZN2FX10FXGLViewer14renderFeedbackEPfiiiii
libFOX-1.6.so.0:_ZN2FX10FXGLViewer14screenToTargetEii
libFOX-1.6.so.0:_ZN2FX10FXGLViewer14setFieldOfViewEd
libFOX-1.6.so.0:_ZN2FX10FXGLViewer14setOrientationENS_7FXQuatfE
libFOX-1.6.so.0:_ZN2FX10FXGLViewer15onClipboardLostEPNS_8FXObjectEjPv
libFOX-1.6.so.0:_ZN2FX10FXGLViewer15onCmdPrintImageEPNS_8FXObjectEjPv
libFOX-1.6.so.0:_ZN2FX10FXGLViewer15onDoubleClickedEPNS_8FXObjectEjPv
libFOX-1.6.so.0:_ZN2FX10FXGLViewer15onRightBtnPressEPNS_8FXObjectEjPv
libFOX-1.6.so.0:_ZN2FX10FXGLViewer15onTripleClickedEPNS_8FXObjectEjPv
libFOX-1.6.so.0:_ZN2FX10FXGLViewer15setAmbientColorERKNS_7FXVec4fE
libFOX-1.6.so.0:_ZN2FX10FXGLViewer15updateTransformEv
libFOX-1.6.so.0:_ZN2FX10FXGLViewer16onCmdLassoSelectEPNS_8FXObjectEjPv
libFOX-1.6.so.0:_ZN2FX10FXGLViewer16onCmdPerspectiveEPNS_8FXObjectEjPv
libFOX-1.6.so.0:_ZN2FX10FXGLViewer16onCmdPrintVectorEPNS_8FXObjectEjPv
libFOX-1.6.so.0:_ZN2FX10FXGLViewer16onLeftBtnReleaseEPNS_8FXObjectEjPv
libFOX-1.6.so.0:_ZN2FX10FXGLViewer16onMiddleBtnPressEPNS_8FXObjectEjPv
libFOX-1.6.so.0:_ZN2FX10FXGLViewer16onUpdPerspectiveEPNS_8FXObjectEjPv
libFOX-1.6.so.0:_ZN2FX10FXGLViewer16updateProjectionEv
libFOX-1.6.so.0:_ZN2FX10FXGLViewer17onClipboardGainedEPNS_8FXObjectEjPv
libFOX-1.6.so.0:_ZN2FX10FXGLViewer17onCmdAmbientColorEPNS_8FXObjectEjPv
libFOX-1.6.so.0:_ZN2FX10FXGLViewer17onCmdLightAmbientEPNS_8FXObjectEjPv
libFOX-1.6.so.0:_ZN2FX10FXGLViewer17onCmdLightDiffuseEPNS_8FXObjectEjPv
libFOX-1.6.so.0:_ZN2FX10FXGLViewer17onCmdRollPitchYawEPNS_8FXObjectEjPv
libFOX-1.6.so.0:_ZN2FX10FXGLViewer17onRightBtnReleaseEPNS_8FXObjectEjPv
libFOX-1.6.so.0:_ZN2FX10FXGLViewer17onUpdAmbientColorEPNS_8FXObjectEjPv
libFOX-1.6.so.0:_ZN2FX10FXGLViewer17onUpdLightAmbientEPNS_8FXObjectEjPv
libFOX-1.6.so.0:_ZN2FX10FXGLViewer17onUpdLightDiffuseEPNS_8FXObjectEjPv
libFOX-1.6.so.0:_ZN2FX10FXGLViewer17onUpdRollPitchYawEPNS_8FXObjectEjPv
libFOX-1.6.so.0:_ZN2FX10FXGLViewer18onClipboardRequestEPNS_8FXObjectEjPv
libFOX-1.6.so.0:_ZN2FX10FXGLViewer18onCmdLightSpecularEPNS_8FXObjectEjPv
libFOX-1.6.so.0:_ZN2FX10FXGLViewer18onMiddleBtnReleaseEPNS_8FXObjectEjPv
libFOX-1.6.so.0:_ZN2FX10FXGLViewer18onUpdLightSpecularEPNS_8FXObjectEjPv
libFOX-1.6.so.0:_ZN2FX10FXGLViewer18setBackgroundColorERKNS_7FXVec4fEh
libFOX-1.6.so.0:_ZN2FX10FXGLViewer22onCmdGradientBackColorEPNS_8FXObjectEjPv
libFOX-1.6.so.0:_ZN2FX10FXGLViewer22onUpdGradientBackColorEPNS_8FXObjectEjPv
libFOX-1.6.so.0:_ZN2FX10FXGLViewer4loadERNS_8FXStreamE
libFOX-1.6.so.0:_ZN2FX10FXGLViewer4pickEii
libFOX-1.6.so.0:_ZN2FX10FXGLViewer4turnEiiii
libFOX-1.6.so.0:_ZN2FX10FXGLViewer5lassoEiiii
libFOX-1.6.so.0:_ZN2FX10FXGLViewer5setOpEj
libFOX-1.6.so.0:_ZN2FX10FXGLViewer6createEv
libFOX-1.6.so.0:_ZN2FX10FXGLViewer6detachEv
libFOX-1.6.so.0:_ZN2FX10FXGLViewer6handleEPNS_8FXObjectEjPv
libFOX-1.6.so.0:_ZN2FX10FXGLViewer6layoutEv
libFOX-1.6.so.0:_ZN2FX10FXGLViewer6onPickEPNS_8FXObjectEjPv
libFOX-1.6.so.0:_ZN2FX10FXGLViewer6selectEiiii
libFOX-1.6.so.0:_ZN2FX10FXGLViewer7glsetupEv
libFOX-1.6.so.0:_ZN2FX10FXGLViewer7onEnterEPNS_8FXObjectEjPv
libFOX-1.6.so.0:_ZN2FX10FXGLViewer7onLeaveEPNS_8FXObjectEjPv
libFOX-1.6.so.0:_ZN2FX10FXGLViewer7onPaintEPNS_8FXObjectEjPv
libFOX-1.6.so.0:_ZN2FX10FXGLViewer7setZoomEd
libFOX-1.6.so.0:_ZN2FX10FXGLViewer8drawAntiERNS_10FXViewportE
libFOX-1.6.so.0:_ZN2FX10FXGLViewer8onCmdFogEPNS_8FXObjectEjPv
libFOX-1.6.so.0:_ZN2FX10FXGLViewer8onCmdFovEPNS_8FXObjectEjPv
libFOX-1.6.so.0:_ZN2FX10FXGLViewer8onCmdTopEPNS_8FXObjectEjPv
libFOX-1.6.so.0:_ZN2FX10FXGLViewer8onMotionEPNS_8FXObjectEjPv
libFOX-1.6.so.0:_ZN2FX10FXGLViewer8onUpdFogEPNS_8FXObjectEjPv
libFOX-1.6.so.0:_ZN2FX10FXGLViewer8onUpdFovEPNS_8FXObjectEjPv
libFOX-1.6.so.0:_ZN2FX10FXGLViewer8onUpdTopEPNS_8FXObjectEjPv
libFOX-1.6.so.0:_ZN2FX10FXGLViewer8setLightERKNS_7FXLightE
libFOX-1.6.so.0:_ZN2FX10FXGLViewer8setScaleENS_7FXVec3fE
libFOX-1.6.so.0:_ZN2FX10FXGLViewer8setSceneEPNS_10FXGLObjectE
libFOX-1.6.so.0:_ZN2FX10FXGLViewer9drawLassoEiiii
libFOX-1.6.so.0:_ZN2FX10FXGLViewer9drawWorldERNS_10FXViewportE
libFOX-1.6.so.0:_ZN2FX10FXGLViewer9onChangedEPNS_8FXObjectEjPv
libFOX-1.6.so.0:_ZN2FX10FXGLViewer9onClickedEPNS_8FXObjectEjPv
libFOX-1.6.so.0:_ZN2FX10FXGLViewer9onCmdBackEPNS_8FXObjectEjPv
libFOX-1.6.so.0:_ZN2FX10FXGLViewer9onCmdLeftEPNS_8FXObjectEjPv
libFOX-1.6.so.0:_ZN2FX10FXGLViewer9onCmdZoomEPNS_8FXObjectEjPv
libFOX-1.6.so.0:_ZN2FX10FXGLViewer9onDNDDropEPNS_8FXObjectEjPv
libFOX-1.6.so.0:_ZN2FX10FXGLViewer9onDefaultEPNS_8FXObjectEjPv
libFOX-1.6.so.0:_ZN2FX10FXGLViewer9onDeletedEPNS_8FXObjectEjPv
libFOX-1.6.so.0:_ZN2FX10FXGLViewer9onFocusInEPNS_8FXObjectEjPv
libFOX-1.6.so.0:_ZN2FX10FXGLViewer9onLassoedEPNS_8FXObjectEjPv
libFOX-1.6.so.0:_ZN2FX10FXGLViewer9onUpdBackEPNS_8FXObjectEjPv
libFOX-1.6.so.0:_ZN2FX10FXGLViewer9onUpdLeftEPNS_8FXObjectEjPv
libFOX-1.6.so.0:_ZN2FX10FXGLViewer9onUpdZoomEPNS_8FXObjectEjPv
libFOX-1.6.so.0:_ZN2FX10FXGLViewer9setBoundsERKNS_8FXRangefE
libFOX-1.6.so.0:_ZN2FX10FXGLViewer9setCenterENS_7FXVec3fE
libFOX-1.6.so.0:_ZN2FX10FXGLViewer9translateENS_7FXVec3fE
libFOX-1.6.so.0:_ZN2FX10FXGLViewerC1EPNS_11FXCompositeEPNS_10FXGLVisualEPNS_8FXObjectEjjiiii
libFOX-1.6.so.0:_ZN2FX10FXGLViewerC1EPNS_11FXCompositeEPNS_10FXGLVisualEPS0_PNS_8FXObjectEjjiiii
libFOX-1.6.so.0:_ZN2FX10FXGLViewerC1Ev
libFOX-1.6.so.0:_ZN2FX10FXGLViewerC2EPNS_11FXCompositeEPNS_10FXGLVisualEPNS_8FXObjectEjjiiii
libFOX-1.6.so.0:_ZN2FX10FXGLViewerC2EPNS_11FXCompositeEPNS_10FXGLVisualEPS0_PNS_8FXObjectEjjiiii
libFOX-1.6.so.0:_ZN2FX10FXGLViewerC2Ev
libFOX-1.6.so.0:_ZN2FX10FXGLViewerD0Ev
libFOX-1.6.so.0:_ZN2FX10FXGLViewerD1Ev
libFOX-1.6.so.0:_ZN2FX10FXGLViewerD2Ev
libFOX-1.6.so.0:_ZN2FX10FXGLVisual11manufactureEv
libFOX-1.6.so.0:_ZN2FX10FXGLVisual4loadERNS_8FXStreamE
libFOX-1.6.so.0:_ZN2FX10FXGLVisual6createEv
libFOX-1.6.so.0:_ZN2FX10FXGLVisual6detachEv
libFOX-1.6.so.0:_ZN2FX10FXGLVisual6handleEPNS_8FXObjectEjPv
libFOX-1.6.so.0:_ZN2FX10FXGLVisual7destroyEv
libFOX-1.6.so.0:_ZN2FX10FXGLVisual9supportedEPNS_5FXAppERiS3_
libFOX-1.6.so.0:_ZN2FX10FXGLVisualC1EPNS_5FXAppEj
libFOX-1.6.so.0:_ZN2FX10FXGLVisualC1Ev
libFOX-1.6.so.0:_ZN2FX10FXGLVisualC2EPNS_5FXAppEj
libFOX-1.6.so.0:_ZN2FX10FXGLVisualC2Ev
libFOX-1.6.so.0:_ZN2FX10FXGLVisualD0Ev
libFOX-1.6.so.0:_ZN2FX10FXGLVisualD1Ev
libFOX-1.6.so.0:_ZN2FX10FXGLVisualD2Ev
libFOX-1.6.so.0:_ZN2FX10FXGroupBox11manufactureEv
libFOX-1.6.so.0:_ZN2FX10FXGroupBox12setTextColorEj
libFOX-1.6.so.0:_ZN2FX10FXGroupBox13onCmdSetValueEPNS_8FXObjectEjPv
libFOX-1.6.so.0:_ZN2FX10FXGroupBox15getDefaultWidthEv
libFOX-1.6.so.0:_ZN2FX10FXGroupBox16getDefaultHeightEv
libFOX-1.6.so.0:_ZN2FX10FXGroupBox16setGroupBoxStyleEj
libFOX-1.6.so.0:_ZN2FX10FXGroupBox19onCmdGetStringValueEPNS_8FXObjectEjPv
libFOX-1.6.so.0:_ZN2FX10FXGroupBox19onCmdSetStringValueEPNS_8FXObjectEjPv
libFOX-1.6.so.0:_ZN2FX10FXGroupBox4loadERNS_8FXStreamE
libFOX-1.6.so.0:_ZN2FX10FXGroupBox6createEv
libFOX-1.6.so.0:_ZN2FX10FXGroupBox6detachEv
libFOX-1.6.so.0:_ZN2FX10FXGroupBox6enableEv
libFOX-1.6.so.0:_ZN2FX10FXGroupBox6handleEPNS_8FXObjectEjPv
libFOX-1.6.so.0:_ZN2FX10FXGroupBox6layoutEv
libFOX-1.6.so.0:_ZN2FX10FXGroupBox7disableEv
libFOX-1.6.so.0:_ZN2FX10FXGroupBox7onPaintEPNS_8FXObjectEjPv
libFOX-1.6.so.0:_ZN2FX10FXGroupBox7setFontEPNS_6FXFontE
libFOX-1.6.so.0:_ZN2FX10FXGroupBox7setTextERKNS_8FXStringE
libFOX-1.6.so.0:_ZN2FX10FXGroupBoxC1EPNS_11FXCompositeERKNS_8FXStringEjiiiiiiiiii
libFOX-1.6.so.0:_ZN2FX10FXGroupBoxC1Ev
libFOX-1.6.so.0:_ZN2FX10FXGroupBoxC2EPNS_11FXCompositeERKNS_8FXStringEjiiiiiiiiii
libFOX-1.6.so.0:_ZN2FX10FXGroupBoxC2Ev
libFOX-1.6.so.0:_ZN2FX10FXICOImage10loadPixelsERNS_8FXStreamE
libFOX-1.6.so.0:_ZN2FX10FXICOImage11manufactureEv
libFOX-1.6.so.0:_ZN2FX10FXICOImage6handleEPNS_8FXObjectEjPv
libFOX-1.6.so.0:_ZN2FX10FXICOImageC1EPNS_5FXAppEPKvjii
libFOX-1.6.so.0:_ZN2FX10FXICOImageC2EPNS_5FXAppEPKvjii
libFOX-1.6.so.0:_ZN2FX10FXICOImageD0Ev
libFOX-1.6.so.0:_ZN2FX10FXICOImageD1Ev
libFOX-1.6.so.0:_ZN2FX10FXICOImageD2Ev
libFOX-1.6.so.0:_ZN2FX10FXIFFImage10loadPixelsERNS_8FXStreamE
libFOX-1.6.so.0:_ZN2FX10FXIFFImage11manufactureEv
libFOX-1.6.so.0:_ZN2FX10FXIFFImage6handleEPNS_8FXObjectEjPv
libFOX-1.6.so.0:_ZN2FX10FXIFFImageC1EPNS_5FXAppEPKvjii
libFOX-1.6.so.0:_ZN2FX10FXIFFImageC2EPNS_5FXAppEPKvjii
libFOX-1.6.so.0:_ZN2FX10FXIFFImageD0Ev
libFOX-1.6.so.0:_ZN2FX10FXIFFImageD1Ev
libFOX-1.6.so.0:_ZN2FX10FXIFFImageD2Ev
libFOX-1.6.so.0:_ZN2FX10FXIconDict10createDataEPKv
libFOX-1.6.so.0:_ZN2FX10FXIconDict10deleteDataEPv
libFOX-1.6.so.0:_ZN2FX10FXIconDict11manufactureEv
libFOX-1.6.so.0:_ZN2FX10FXIconDict4loadERNS_8FXStreamE
libFOX-1.6.so.0:_ZN2FX10FXIconDict6handleEPNS_8FXObjectEjPv
libFOX-1.6.so.0:_ZN2FX10FXIconDictC1EPNS_5FXAppERKNS_8FXStringE
libFOX-1.6.so.0:_ZN2FX10FXIconDictC2EPNS_5FXAppERKNS_8FXStringE
libFOX-1.6.so.0:_ZN2FX10FXIconDictD0Ev
libFOX-1.6.so.0:_ZN2FX10FXIconDictD1Ev
libFOX-1.6.so.0:_ZN2FX10FXIconDictD2Ev
libFOX-1.6.so.0:_ZN2FX10FXIconItem10setBigIconEPNS_6FXIconEh
libFOX-1.6.so.0:_ZN2FX10FXIconItem10setEnabledEh
libFOX-1.6.so.0:_ZN2FX10FXIconItem11manufactureEv
libFOX-1.6.so.0:_ZN2FX10FXIconItem11setMiniIconEPNS_6FXIconEh
libFOX-1.6.so.0:_ZN2FX10FXIconItem11setSelectedEh
libFOX-1.6.so.0:_ZN2FX10FXIconItem12setDraggableEh
libFOX-1.6.so.0:_ZN2FX10FXIconItem4loadERNS_8FXStreamE
libFOX-1.6.so.0:_ZN2FX10FXIconItem6createEv
libFOX-1.6.so.0:_ZN2FX10FXIconItem6detachEv
libFOX-1.6.so.0:_ZN2FX10FXIconItem6handleEPNS_8FXObjectEjPv
libFOX-1.6.so.0:_ZN2FX10FXIconItem7destroyEv
libFOX-1.6.so.0:_ZN2FX10FXIconItem7setTextERKNS_8FXStringE
libFOX-1.6.so.0:_ZN2FX10FXIconItem8setFocusEh
libFOX-1.6.so.0:_ZN2FX10FXIconItemD0Ev
libFOX-1.6.so.0:_ZN2FX10FXIconItemD1Ev
libFOX-1.6.so.0:_ZN2FX10FXIconItemD2Ev
libFOX-1.6.so.0:_ZN2FX10FXIconList10appendItemEPNS_10FXIconItemEh
libFOX-1.6.so.0:_ZN2FX10FXIconList10appendItemERKNS_8FXStringEPNS_6FXIconES5_Pvh
libFOX-1.6.so.0:_ZN2FX10FXIconList10clearItemsEh
libFOX-1.6.so.0:_ZN2FX10FXIconList10createItemERKNS_8FXStringEPNS_6FXIconES5_Pv
libFOX-1.6.so.0:_ZN2FX10FXIconList10descendingEPKNS_10FXIconItemES3_
libFOX-1.6.so.0:_ZN2FX10FXIconList10enableItemEi
libFOX-1.6.so.0:_ZN2FX10FXIconList10insertItemEiPNS_10FXIconItemEh
libFOX-1.6.so.0:_ZN2FX10FXIconList10insertItemEiRKNS_8FXStringEPNS_6FXIconES5_Pvh
libFOX-1.6.so.0:_ZN2FX10FXIconList10onFocusOutEPNS_8FXObjectEjPv
libFOX-1.6.so.0:_ZN2FX10FXIconList10onKeyPressEPNS_8FXObjectEjPv
libFOX-1.6.so.0:_ZN2FX10FXIconList10onQueryTipEPNS_8FXObjectEjPv
libFOX-1.6.so.0:_ZN2FX10FXIconList10onTipTimerEPNS_8FXObjectEjPv
libFOX-1.6.so.0:_ZN2FX10FXIconList10removeItemEih
libFOX-1.6.so.0:_ZN2FX10FXIconList10selectItemEih
libFOX-1.6.so.0:_ZN2FX10FXIconList10setHeadersEPPKci
libFOX-1.6.so.0:_ZN2FX10FXIconList10setHeadersERKNS_8FXStringEi
libFOX-1.6.so.0:_ZN2FX10FXIconList10toggleItemEih
libFOX-1.6.so.0:_ZN2FX10FXIconList11disableItemEi
libFOX-1.6.so.0:_ZN2FX10FXIconList11extractItemEih
libFOX-1.6.so.0:_ZN2FX10FXIconList11manufactureEv
libFOX-1.6.so.0:_ZN2FX10FXIconList11onQueryHelpEPNS_8FXObjectEjPv
libFOX-1.6.so.0:_ZN2FX10FXIconList11onUngrabbedEPNS_8FXObjectEjPv
libFOX-1.6.so.0:_ZN2FX10FXIconList11prependItemEPNS_10FXIconItemEh
libFOX-1.6.so.0:_ZN2FX10FXIconList11prependItemERKNS_8FXStringEPNS_6FXIconES5_Pvh
libFOX-1.6.so.0:_ZN2FX10FXIconList11setHelpTextERKNS_8FXStringE
libFOX-1.6.so.0:_ZN2FX10FXIconList11setItemDataEiPv
libFOX-1.6.so.0:_ZN2FX10FXIconList11setItemTextEiRKNS_8FXStringE
libFOX-1.6.so.0:_ZN2FX10FXIconList12appendHeaderERKNS_8FXStringEPNS_6FXIconEi
libFOX-1.6.so.0:_ZN2FX10FXIconList12deselectItemEih
libFOX-1.6.so.0:_ZN2FX10FXIconList12lassoChangedEiiiiiiiih
libFOX-1.6.so.0:_ZN2FX10FXIconList12moveContentsEii
libFOX-1.6.so.0:_ZN2FX10FXIconList12onAutoScrollEPNS_8FXObjectEjPv
libFOX-1.6.so.0:_ZN2FX10FXIconList12onKeyReleaseEPNS_8FXObjectEjPv
libFOX-1.6.so.0:_ZN2FX10FXIconList12removeHeaderEi
libFOX-1.6.so.0:_ZN2FX10FXIconList12setItemSpaceEi
libFOX-1.6.so.0:_ZN2FX10FXIconList12setListStyleEj
libFOX-1.6.so.0:_ZN2FX10FXIconList12setTextColorEj
libFOX-1.6.so.0:_ZN2FX10FXIconList13ascendingCaseEPKNS_10FXIconItemES3_
libFOX-1.6.so.0:_ZN2FX10FXIconList13killSelectionEh
libFOX-1.6.so.0:_ZN2FX10FXIconList13onCmdSetValueEPNS_8FXObjectEjPv
libFOX-1.6.so.0:_ZN2FX10FXIconList13onLookupTimerEPNS_8FXObjectEjPv
libFOX-1.6.so.0:_ZN2FX10FXIconList13setAnchorItemEi
libFOX-1.6.so.0:_ZN2FX10FXIconList13setHeaderIconEiPNS_6FXIconE
libFOX-1.6.so.0:_ZN2FX10FXIconList13setHeaderSizeEii
libFOX-1.6.so.0:_ZN2FX10FXIconList13setHeaderTextEiRKNS_8FXStringE
libFOX-1.6.so.0:_ZN2FX10FXIconList14compareSectionEPKcS2_i
libFOX-1.6.so.0:_ZN2FX10FXIconList14descendingCaseEPKNS_10FXIconItemES3_
libFOX-1.6.so.0:_ZN2FX10FXIconList14onCmdSelectAllEPNS_8FXObjectEjPv
libFOX-1.6.so.0:_ZN2FX10FXIconList14onHeaderResizeEPNS_8FXObjectEjPv
libFOX-1.6.so.0:_ZN2FX10FXIconList14onLeftBtnPressEPNS_8FXObjectEjPv
libFOX-1.6.so.0:_ZN2FX10FXIconList14setCurrentItemEih
libFOX-1.6.so.0:_ZN2FX10FXIconList14setItemBigIconEiPNS_6FXIconEh
libFOX-1.6.so.0:_ZN2FX10FXIconList15extendSelectionEih
libFOX-1.6.so.0:_ZN2FX10FXIconList15getContentWidthEv
libFOX-1.6.so.0:_ZN2FX10FXIconList15makeItemVisibleEi
libFOX-1.6.so.0:_ZN2FX10FXIconList15onDoubleClickedEPNS_8FXObjectEjPv
libFOX-1.6.so.0:_ZN2FX10FXIconList15onHeaderChangedEPNS_8FXObjectEjPv
libFOX-1.6.so.0:_ZN2FX10FXIconList15onRightBtnPressEPNS_8FXObjectEjPv
libFOX-1.6.so.0:_ZN2FX10FXIconList15onTripleClickedEPNS_8FXObjectEjPv
libFOX-1.6.so.0:_ZN2FX10FXIconList15setItemMiniIconEiPNS_6FXIconEh
libFOX-1.6.so.0:_ZN2FX10FXIconList15setSelBackColorEj
libFOX-1.6.so.0:_ZN2FX10FXIconList15setSelTextColorEj
libFOX-1.6.so.0:_ZN2FX10FXIconList16getContentHeightEv
libFOX-1.6.so.0:_ZN2FX10FXIconList16onCmdDeselectAllEPNS_8FXObjectEjPv
libFOX-1.6.so.0:_ZN2FX10FXIconList16onCmdGetIntValueEPNS_8FXObjectEjPv
libFOX-1.6.so.0:_ZN2FX10FXIconList16onCmdSetIntValueEPNS_8FXObjectEjPv
libFOX-1.6.so.0:_ZN2FX10FXIconList16onCmdShowDetailsEPNS_8FXObjectEjPv
libFOX-1.6.so.0:_ZN2FX10FXIconList16onLeftBtnReleaseEPNS_8FXObjectEjPv
libFOX-1.6.so.0:_ZN2FX10FXIconList16onUpdShowDetailsEPNS_8FXObjectEjPv
libFOX-1.6.so.0:_ZN2FX10FXIconList17getViewportHeightEv
libFOX-1.6.so.0:_ZN2FX10FXIconList17onCmdShowBigIconsEPNS_8FXObjectEjPv
libFOX-1.6.so.0:_ZN2FX10FXIconList17onRightBtnReleaseEPNS_8FXObjectEjPv
libFOX-1.6.so.0:_ZN2FX10FXIconList17onUpdShowBigIconsEPNS_8FXObjectEjPv
libFOX-1.6.so.0:_ZN2FX10FXIconList17selectInRectangleEiiiih
libFOX-1.6.so.0:_ZN2FX10FXIconList18compareSectionCaseEPKcS2_i
libFOX-1.6.so.0:_ZN2FX10FXIconList18onCmdArrangeByRowsEPNS_8FXObjectEjPv
libFOX-1.6.so.0:_ZN2FX10FXIconList18onCmdSelectInverseEPNS_8FXObjectEjPv
libFOX-1.6.so.0:_ZN2FX10FXIconList18onCmdShowMiniIconsEPNS_8FXObjectEjPv
libFOX-1.6.so.0:_ZN2FX10FXIconList18onUpdArrangeByRowsEPNS_8FXObjectEjPv
libFOX-1.6.so.0:_ZN2FX10FXIconList18onUpdShowMiniIconsEPNS_8FXObjectEjPv
libFOX-1.6.so.0:_ZN2FX10FXIconList21onCmdArrangeByColumnsEPNS_8FXObjectEjPv
libFOX-1.6.so.0:_ZN2FX10FXIconList21onUpdArrangeByColumnsEPNS_8FXObjectEjPv
libFOX-1.6.so.0:_ZN2FX10FXIconList4loadERNS_8FXStreamE
libFOX-1.6.so.0:_ZN2FX10FXIconList6createEv
libFOX-1.6.so.0:_ZN2FX10FXIconList6detachEv
libFOX-1.6.so.0:_ZN2FX10FXIconList6handleEPNS_8FXObjectEjPv
libFOX-1.6.so.0:_ZN2FX10FXIconList6layoutEv
libFOX-1.6.so.0:_ZN2FX10FXIconList6recalcEv
libFOX-1.6.so.0:_ZN2FX10FXIconList6resizeEii
libFOX-1.6.so.0:_ZN2FX10FXIconList7onEnterEPNS_8FXObjectEjPv
libFOX-1.6.so.0:_ZN2FX10FXIconList7onLeaveEPNS_8FXObjectEjPv
libFOX-1.6.so.0:_ZN2FX10FXIconList7onPaintEPNS_8FXObjectEjPv
libFOX-1.6.so.0:_ZN2FX10FXIconList7setFontEPNS_6FXFontE
libFOX-1.6.so.0:_ZN2FX10FXIconList7setItemEiPNS_10FXIconItemEh
libFOX-1.6.so.0:_ZN2FX10FXIconList7setItemEiRKNS_8FXStringEPNS_6FXIconES5_Pvh
libFOX-1.6.so.0:_ZN2FX10FXIconList8moveItemEiih
libFOX-1.6.so.0:_ZN2FX10FXIconList8onMotionEPNS_8FXObjectEjPv
libFOX-1.6.so.0:_ZN2FX10FXIconList8positionEiiii
libFOX-1.6.so.0:_ZN2FX10FXIconList8setFocusEv
libFOX-1.6.so.0:_ZN2FX10FXIconList9ascendingEPKNS_10FXIconItemES3_
libFOX-1.6.so.0:_ZN2FX10FXIconList9drawLassoEiiii
libFOX-1.6.so.0:_ZN2FX10FXIconList9fillItemsEPPKcPNS_6FXIconES5_Pvh
libFOX-1.6.so.0:_ZN2FX10FXIconList9fillItemsERKNS_8FXStringEPNS_6FXIconES5_Pvh
libFOX-1.6.so.0:_ZN2FX10FXIconList9killFocusEv
libFOX-1.6.so.0:_ZN2FX10FXIconList9onClickedEPNS_8FXObjectEjPv
libFOX-1.6.so.0:_ZN2FX10FXIconList9onCommandEPNS_8FXObjectEjPv
libFOX-1.6.so.0:_ZN2FX10FXIconList9onFocusInEPNS_8FXObjectEjPv
libFOX-1.6.so.0:_ZN2FX10FXIconList9recomputeEv
libFOX-1.6.so.0:_ZN2FX10FXIconList9sortItemsEv
libFOX-1.6.so.0:_ZN2FX10FXIconListC1EPNS_11FXCompositeEPNS_8FXObjectEjjiiii
libFOX-1.6.so.0:_ZN2FX10FXIconListC1Ev
libFOX-1.6.so.0:_ZN2FX10FXIconListC2EPNS_11FXCompositeEPNS_8FXObjectEjjiiii
libFOX-1.6.so.0:_ZN2FX10FXIconListC2Ev
libFOX-1.6.so.0:_ZN2FX10FXIconListD0Ev
libFOX-1.6.so.0:_ZN2FX10FXIconListD1Ev
libFOX-1.6.so.0:_ZN2FX10FXIconListD2Ev
libFOX-1.6.so.0:_ZN2FX10FXJPGImage10loadPixelsERNS_8FXStreamE
libFOX-1.6.so.0:_ZN2FX10FXJPGImage11manufactureEv
libFOX-1.6.so.0:_ZN2FX10FXJPGImage6handleEPNS_8FXObjectEjPv
libFOX-1.6.so.0:_ZN2FX10FXJPGImageC1EPNS_5FXAppEPKvjiii
libFOX-1.6.so.0:_ZN2FX10FXJPGImageC2EPNS_5FXAppEPKvjiii
libFOX-1.6.so.0:_ZN2FX10FXJPGImageD0Ev
libFOX-1.6.so.0:_ZN2FX10FXJPGImageD1Ev
libFOX-1.6.so.0:_ZN2FX10FXJPGImageD2Ev
libFOX-1.6.so.0:_ZN2FX10FXListItem10setEnabledEh
libFOX-1.6.so.0:_ZN2FX10FXListItem11manufactureEv
libFOX-1.6.so.0:_ZN2FX10FXListItem11setSelectedEh
libFOX-1.6.so.0:_ZN2FX10FXListItem12setDraggableEh
libFOX-1.6.so.0:_ZN2FX10FXListItem4drawEPKNS_6FXListERNS_4FXDCEiiii
libFOX-1.6.so.0:_ZN2FX10FXListItem4loadERNS_8FXStreamE
libFOX-1.6.so.0:_ZN2FX10FXListItem6createEv
libFOX-1.6.so.0:_ZN2FX10FXListItem6detachEv
libFOX-1.6.so.0:_ZN2FX10FXListItem6handleEPNS_8FXObjectEjPv
libFOX-1.6.so.0:_ZN2FX10FXListItem7destroyEv
libFOX-1.6.so.0:_ZN2FX10FXListItem7setIconEPNS_6FXIconEh
libFOX-1.6.so.0:_ZN2FX10FXListItem7setTextERKNS_8FXStringE
libFOX-1.6.so.0:_ZN2FX10FXListItem8setFocusEh
libFOX-1.6.so.0:_ZN2FX10FXListItemD0Ev
libFOX-1.6.so.0:_ZN2FX10FXListItemD1Ev
libFOX-1.6.so.0:_ZN2FX10FXListItemD2Ev
libFOX-1.6.so.0:_ZN2FX10FXMDIChild10onCmdCloseEPNS_8FXObjectEjPv
libFOX-1.6.so.0:_ZN2FX10FXMDIChild10onFocusOutEPNS_8FXObjectEjPv
libFOX-1.6.so.0:_ZN2FX10FXMDIChild10onSelectedEPNS_8FXObjectEjPv
libFOX-1.6.so.0:_ZN2FX10FXMDIChild10onUpdCloseEPNS_8FXObjectEjPv
libFOX-1.6.so.0:_ZN2FX10FXMDIChild11manufactureEv
libFOX-1.6.so.0:_ZN2FX10FXMDIChild11onFocusSelfEPNS_8FXObjectEjPv
libFOX-1.6.so.0:_ZN2FX10FXMDIChild11onUpdWindowEPNS_8FXObjectEjPv
libFOX-1.6.so.0:_ZN2FX10FXMDIChild11setTrackingEh
libFOX-1.6.so.0:_ZN2FX10FXMDIChild12changeCursorEii
libFOX-1.6.so.0:_ZN2FX10FXMDIChild12onCmdRestoreEPNS_8FXObjectEjPv
libFOX-1.6.so.0:_ZN2FX10FXMDIChild12onDeselectedEPNS_8FXObjectEjPv
libFOX-1.6.so.0:_ZN2FX10FXMDIChild12onUpdRestoreEPNS_8FXObjectEjPv
libFOX-1.6.so.0:_ZN2FX10FXMDIChild12revertCursorEv
libFOX-1.6.so.0:_ZN2FX10FXMDIChild12setBaseColorEj
libFOX-1.6.so.0:_ZN2FX10FXMDIChild13drawRubberBoxEiiii
libFOX-1.6.so.0:_ZN2FX10FXMDIChild13onCmdMaximizeEPNS_8FXObjectEjPv
libFOX-1.6.so.0:_ZN2FX10FXMDIChild13onCmdMinimizeEPNS_8FXObjectEjPv
libFOX-1.6.so.0:_ZN2FX10FXMDIChild13onUpdMaximizeEPNS_8FXObjectEjPv
libFOX-1.6.so.0:_ZN2FX10FXMDIChild13onUpdMinimizeEPNS_8FXObjectEjPv
libFOX-1.6.so.0:_ZN2FX10FXMDIChild13setTitleColorEj
libFOX-1.6.so.0:_ZN2FX10FXMDIChild14onLeftBtnPressEPNS_8FXObjectEjPv
libFOX-1.6.so.0:_ZN2FX10FXMDIChild14onUpdMenuCloseEPNS_8FXObjectEjPv
libFOX-1.6.so.0:_ZN2FX10FXMDIChild14setBorderColorEj
libFOX-1.6.so.0:_ZN2FX10FXMDIChild14setHiliteColorEj
libFOX-1.6.so.0:_ZN2FX10FXMDIChild14setShadowColorEj
libFOX-1.6.so.0:_ZN2FX10FXMDIChild15getDefaultWidthEv
libFOX-1.6.so.0:_ZN2FX10FXMDIChild15onRightBtnPressEPNS_8FXObjectEjPv
libFOX-1.6.so.0:_ZN2FX10FXMDIChild15onUpdMenuWindowEPNS_8FXObjectEjPv
libFOX-1.6.so.0:_ZN2FX10FXMDIChild16getDefaultHeightEv
libFOX-1.6.so.0:_ZN2FX10FXMDIChild16onLeftBtnReleaseEPNS_8FXObjectEjPv
libFOX-1.6.so.0:_ZN2FX10FXMDIChild16onMiddleBtnPressEPNS_8FXObjectEjPv
libFOX-1.6.so.0:_ZN2FX10FXMDIChild16onUpdMenuRestoreEPNS_8FXObjectEjPv
libFOX-1.6.so.0:_ZN2FX10FXMDIChild17animateRectanglesEiiiiiiii
libFOX-1.6.so.0:_ZN2FX10FXMDIChild17onCmdGetIconValueEPNS_8FXObjectEjPv
libFOX-1.6.so.0:_ZN2FX10FXMDIChild17onCmdSetIconValueEPNS_8FXObjectEjPv
libFOX-1.6.so.0:_ZN2FX10FXMDIChild17onRightBtnReleaseEPNS_8FXObjectEjPv
libFOX-1.6.so.0:_ZN2FX10FXMDIChild17onUpdMenuMinimizeEPNS_8FXObjectEjPv
libFOX-1.6.so.0:_ZN2FX10FXMDIChild17setTitleBackColorEj
libFOX-1.6.so.0:_ZN2FX10FXMDIChild18onMiddleBtnReleaseEPNS_8FXObjectEjPv
libFOX-1.6.so.0:_ZN2FX10FXMDIChild19onCmdGetStringValueEPNS_8FXObjectEjPv
libFOX-1.6.so.0:_ZN2FX10FXMDIChild19onCmdSetStringValueEPNS_8FXObjectEjPv
libFOX-1.6.so.0:_ZN2FX10FXMDIChild4loadERNS_8FXStreamE
libFOX-1.6.so.0:_ZN2FX10FXMDIChild4moveEii
libFOX-1.6.so.0:_ZN2FX10FXMDIChild5closeEh
libFOX-1.6.so.0:_ZN2FX10FXMDIChild5whereEii
libFOX-1.6.so.0:_ZN2FX10FXMDIChild6createEv
libFOX-1.6.so.0:_ZN2FX10FXMDIChild6detachEv
libFOX-1.6.so.0:_ZN2FX10FXMDIChild6handleEPNS_8FXObjectEjPv
libFOX-1.6.so.0:_ZN2FX10FXMDIChild6layoutEv
libFOX-1.6.so.0:_ZN2FX10FXMDIChild6resizeEii
libFOX-1.6.so.0:_ZN2FX10FXMDIChild7onPaintEPNS_8FXObjectEjPv
libFOX-1.6.so.0:_ZN2FX10FXMDIChild7restoreEh
libFOX-1.6.so.0:_ZN2FX10FXMDIChild7setFontEPNS_6FXFontE
libFOX-1.6.so.0:_ZN2FX10FXMDIChild7setIconEPNS_6FXIconE
libFOX-1.6.so.0:_ZN2FX10FXMDIChild7setMenuEPNS_7FXPopupE
libFOX-1.6.so.0:_ZN2FX10FXMDIChild8maximizeEh
libFOX-1.6.so.0:_ZN2FX10FXMDIChild8minimizeEh
libFOX-1.6.so.0:_ZN2FX10FXMDIChild8onMotionEPNS_8FXObjectEjPv
libFOX-1.6.so.0:_ZN2FX10FXMDIChild8positionEiiii
libFOX-1.6.so.0:_ZN2FX10FXMDIChild8setFocusEv
libFOX-1.6.so.0:_ZN2FX10FXMDIChild8setTitleERKNS_8FXStringE
libFOX-1.6.so.0:_ZN2FX10FXMDIChild9onDefaultEPNS_8FXObjectEjPv
libFOX-1.6.so.0:_ZN2FX10FXMDIChild9onFocusInEPNS_8FXObjectEjPv
libFOX-1.6.so.0:_ZN2FX10FXMDIChildC1EPNS_11FXMDIClientERKNS_8FXStringEPNS_6FXIconEPNS_7FXPopupEjiiii
libFOX-1.6.so.0:_ZN2FX10FXMDIChildC1Ev
libFOX-1.6.so.0:_ZN2FX10FXMDIChildC2EPNS_11FXMDIClientERKNS_8FXStringEPNS_6FXIconEPNS_7FXPopupEjiiii
libFOX-1.6.so.0:_ZN2FX10FXMDIChildC2Ev
libFOX-1.6.so.0:_ZN2FX10FXMDIChildD0Ev
libFOX-1.6.so.0:_ZN2FX10FXMDIChildD1Ev
libFOX-1.6.so.0:_ZN2FX10FXMDIChildD2Ev
libFOX-1.6.so.0:_ZN2FX10FXMenuPane11manufactureEv
libFOX-1.6.so.0:_ZN2FX10FXMenuPane6handleEPNS_8FXObjectEjPv
libFOX-1.6.so.0:_ZN2FX10FXMenuPaneC1EPNS_8FXWindowEj
libFOX-1.6.so.0:_ZN2FX10FXMenuPaneC2EPNS_8FXWindowEj
libFOX-1.6.so.0:_ZN2FX10FXPCXImage10loadPixelsERNS_8FXStreamE
libFOX-1.6.so.0:_ZN2FX10FXPCXImage11manufactureEv
libFOX-1.6.so.0:_ZN2FX10FXPCXImage6handleEPNS_8FXObjectEjPv
libFOX-1.6.so.0:_ZN2FX10FXPCXImageC1EPNS_5FXAppEPKvjii
libFOX-1.6.so.0:_ZN2FX10FXPCXImageC2EPNS_5FXAppEPKvjii
libFOX-1.6.so.0:_ZN2FX10FXPCXImageD0Ev
libFOX-1.6.so.0:_ZN2FX10FXPCXImageD1Ev
libFOX-1.6.so.0:_ZN2FX10FXPCXImageD2Ev
libFOX-1.6.so.0:_ZN2FX10FXPNGImage10loadPixelsERNS_8FXStreamE
libFOX-1.6.so.0:_ZN2FX10FXPNGImage11manufactureEv
libFOX-1.6.so.0:_ZN2FX10FXPNGImage6handleEPNS_8FXObjectEjPv
libFOX-1.6.so.0:_ZN2FX10FXPNGImageC1EPNS_5FXAppEPKvjii
libFOX-1.6.so.0:_ZN2FX10FXPNGImageC2EPNS_5FXAppEPKvjii
libFOX-1.6.so.0:_ZN2FX10FXPNGImageD0Ev
libFOX-1.6.so.0:_ZN2FX10FXPNGImageD1Ev
libFOX-1.6.so.0:_ZN2FX10FXPNGImageD2Ev
libFOX-1.6.so.0:_ZN2FX10FXPPMImage10loadPixelsERNS_8FXStreamE
libFOX-1.6.so.0:_ZN2FX10FXPPMImage11manufactureEv
libFOX-1.6.so.0:_ZN2FX10FXPPMImage6handleEPNS_8FXObjectEjPv
libFOX-1.6.so.0:_ZN2FX10FXPPMImageC1EPNS_5FXAppEPKvjii
libFOX-1.6.so.0:_ZN2FX10FXPPMImageC2EPNS_5FXAppEPKvjii
libFOX-1.6.so.0:_ZN2FX10FXPPMImageD0Ev
libFOX-1.6.so.0:_ZN2FX10FXPPMImageD1Ev
libFOX-1.6.so.0:_ZN2FX10FXPPMImageD2Ev
libFOX-1.6.so.0:_ZN2FX10FXRASImage10loadPixelsERNS_8FXStreamE
libFOX-1.6.so.0:_ZN2FX10FXRASImage11manufactureEv
libFOX-1.6.so.0:_ZN2FX10FXRASImage6handleEPNS_8FXObjectEjPv
libFOX-1.6.so.0:_ZN2FX10FXRASImageC1EPNS_5FXAppEPKvjii
libFOX-1.6.so.0:_ZN2FX10FXRASImageC2EPNS_5FXAppEPKvjii
libFOX-1.6.so.0:_ZN2FX10FXRASImageD0Ev
libFOX-1.6.so.0:_ZN2FX10FXRASImageD1Ev
libFOX-1.6.so.0:_ZN2FX10FXRASImageD2Ev
libFOX-1.6.so.0:_ZN2FX10FXRGBImage10loadPixelsERNS_8FXStreamE
libFOX-1.6.so.0:_ZN2FX10FXRGBImage11manufactureEv
libFOX-1.6.so.0:_ZN2FX10FXRGBImage6handleEPNS_8FXObjectEjPv
libFOX-1.6.so.0:_ZN2FX10FXRGBImageC1EPNS_5FXAppEPKvjii
libFOX-1.6.so.0:_ZN2FX10FXRGBImageC2EPNS_5FXAppEPKvjii
libFOX-1.6.so.0:_ZN2FX10FXRGBImageD0Ev
libFOX-1.6.so.0:_ZN2FX10FXRGBImageD1Ev
libFOX-1.6.so.0:_ZN2FX10FXRGBImageD2Ev
libFOX-1.6.so.0:_ZN2FX10FXRegistry11manufactureEv
libFOX-1.6.so.0:_ZN2FX10FXRegistry11readFromDirERKNS_8FXStringEb
libFOX-1.6.so.0:_ZN2FX10FXRegistry4readEv
libFOX-1.6.so.0:_ZN2FX10FXRegistry5writeEv
libFOX-1.6.so.0:_ZN2FX10FXRegistry6handleEPNS_8FXObjectEjPv
libFOX-1.6.so.0:_ZN2FX10FXRegistryC1ERKNS_8FXStringES3_
libFOX-1.6.so.0:_ZN2FX10FXRegistryC2ERKNS_8FXStringES3_
libFOX-1.6.so.0:_ZN2FX10FXSettings10createDataEPKv
libFOX-1.6.so.0:_ZN2FX10FXSettings10deleteDataEPv
libFOX-1.6.so.0:_ZN2FX10FXSettings11deleteEntryEPKcS2_
libFOX-1.6.so.0:_ZN2FX10FXSettings11manufactureEv
libFOX-1.6.so.0:_ZN2FX10FXSettings11unparseFileERKNS_8FXStringE
libFOX-1.6.so.0:_ZN2FX10FXSettings12readIntEntryEPKcS2_i
libFOX-1.6.so.0:_ZN2FX10FXSettings13deleteSectionEPKc
libFOX-1.6.so.0:_ZN2FX10FXSettings13existingEntryEPKcS2_
libFOX-1.6.so.0:_ZN2FX10FXSettings13readBoolEntryEPKcS2_h
libFOX-1.6.so.0:_ZN2FX10FXSettings13readRealEntryEPKcS2_d
libFOX-1.6.so.0:_ZN2FX10FXSettings13writeIntEntryEPKcS2_i
libFOX-1.6.so.0:_ZN2FX10FXSettings14readColorEntryEPKcS2_j
libFOX-1.6.so.0:_ZN2FX10FXSettings14writeBoolEntryEPKcS2_h
libFOX-1.6.so.0:_ZN2FX10FXSettings14writeRealEntryEPKcS2_d
libFOX-1.6.so.0:_ZN2FX10FXSettings15existingSectionEPKc
libFOX-1.6.so.0:_ZN2FX10FXSettings15readFormatEntryEPKcS2_S2_z
libFOX-1.6.so.0:_ZN2FX10FXSettings15readStringEntryEPKcS2_S2_
libFOX-1.6.so.0:_ZN2FX10FXSettings15writeColorEntryEPKcS2_j
libFOX-1.6.so.0:_ZN2FX10FXSettings16writeFormatEntryEPKcS2_S2_z
libFOX-1.6.so.0:_ZN2FX10FXSettings16writeStringEntryEPKcS2_S2_
libFOX-1.6.so.0:_ZN2FX10FXSettings17readUnsignedEntryEPKcS2_j
libFOX-1.6.so.0:_ZN2FX10FXSettings18writeUnsignedEntryEPKcS2_j
libFOX-1.6.so.0:_ZN2FX10FXSettings5clearEv
libFOX-1.6.so.0:_ZN2FX10FXSettings6handleEPNS_8FXObjectEjPv
libFOX-1.6.so.0:_ZN2FX10FXSettings7enquoteEPcPKc
libFOX-1.6.so.0:_ZN2FX10FXSettings9parseFileERKNS_8FXStringEb
libFOX-1.6.so.0:_ZN2FX10FXSettingsC1ERKS0_
libFOX-1.6.so.0:_ZN2FX10FXSettingsC1Ev
libFOX-1.6.so.0:_ZN2FX10FXSettingsC2ERKS0_
libFOX-1.6.so.0:_ZN2FX10FXSettingsC2Ev
libFOX-1.6.so.0:_ZN2FX10FXSettingsD0Ev
libFOX-1.6.so.0:_ZN2FX10FXSettingsD1Ev
libFOX-1.6.so.0:_ZN2FX10FXSettingsD2Ev
libFOX-1.6.so.0:_ZN2FX10FXSettingsaSERKS0_
libFOX-1.6.so.0:_ZN2FX10FXSplitter10drawHSplitEi
libFOX-1.6.so.0:_ZN2FX10FXSplitter10drawVSplitEi
libFOX-1.6.so.0:_ZN2FX10FXSplitter10findHSplitEi
libFOX-1.6.so.0:_ZN2FX10FXSplitter10findVSplitEi
libFOX-1.6.so.0:_ZN2FX10FXSplitter10moveHSplitEi
libFOX-1.6.so.0:_ZN2FX10FXSplitter10moveVSplitEi
libFOX-1.6.so.0:_ZN2FX10FXSplitter10setBarSizeEi
libFOX-1.6.so.0:_ZN2FX10FXSplitter11manufactureEv
libFOX-1.6.so.0:_ZN2FX10FXSplitter11onFocusDownEPNS_8FXObjectEjPv
libFOX-1.6.so.0:_ZN2FX10FXSplitter11onFocusLeftEPNS_8FXObjectEjPv
libFOX-1.6.so.0:_ZN2FX10FXSplitter11onFocusNextEPNS_8FXObjectEjPv
libFOX-1.6.so.0:_ZN2FX10FXSplitter11onFocusPrevEPNS_8FXObjectEjPv
libFOX-1.6.so.0:_ZN2FX10FXSplitter12onFocusRightEPNS_8FXObjectEjPv
libFOX-1.6.so.0:_ZN2FX10FXSplitter13adjustHLayoutEv
libFOX-1.6.so.0:_ZN2FX10FXSplitter13adjustVLayoutEv
libFOX-1.6.so.0:_ZN2FX10FXSplitter14onLeftBtnPressEPNS_8FXObjectEjPv
libFOX-1.6.so.0:_ZN2FX10FXSplitter15getDefaultWidthEv
libFOX-1.6.so.0:_ZN2FX10FXSplitter16getDefaultHeightEv
libFOX-1.6.so.0:_ZN2FX10FXSplitter16onLeftBtnReleaseEPNS_8FXObjectEjPv
libFOX-1.6.so.0:_ZN2FX10FXSplitter16setSplitterStyleEj
libFOX-1.6.so.0:_ZN2FX10FXSplitter4loadERNS_8FXStreamE
libFOX-1.6.so.0:_ZN2FX10FXSplitter6handleEPNS_8FXObjectEjPv
libFOX-1.6.so.0:_ZN2FX10FXSplitter6layoutEv
libFOX-1.6.so.0:_ZN2FX10FXSplitter8onMotionEPNS_8FXObjectEjPv
libFOX-1.6.so.0:_ZN2FX10FXSplitter8setSplitEii
libFOX-1.6.so.0:_ZN2FX10FXSplitter9onFocusUpEPNS_8FXObjectEjPv
libFOX-1.6.so.0:_ZN2FX10FXSplitterC1EPNS_11FXCompositeEPNS_8FXObjectEjjiiii
libFOX-1.6.so.0:_ZN2FX10FXSplitterC1EPNS_11FXCompositeEjiiii
libFOX-1.6.so.0:_ZN2FX10FXSplitterC1Ev
libFOX-1.6.so.0:_ZN2FX10FXSplitterC2EPNS_11FXCompositeEPNS_8FXObjectEjjiiii
libFOX-1.6.so.0:_ZN2FX10FXSplitterC2EPNS_11FXCompositeEjiiii
libFOX-1.6.so.0:_ZN2FX10FXSplitterC2Ev
libFOX-1.6.so.0:_ZN2FX10FXSplitterD0Ev
libFOX-1.6.so.0:_ZN2FX10FXSplitterD1Ev
libFOX-1.6.so.0:_ZN2FX10FXSplitterD2Ev
libFOX-1.6.so.0:_ZN2FX10FXSwitcher10setCurrentEih
libFOX-1.6.so.0:_ZN2FX10FXSwitcher11manufactureEv
libFOX-1.6.so.0:_ZN2FX10FXSwitcher13onCmdSetValueEPNS_8FXObjectEjPv
libFOX-1.6.so.0:_ZN2FX10FXSwitcher15getDefaultWidthEv
libFOX-1.6.so.0:_ZN2FX10FXSwitcher16getDefaultHeightEv
libFOX-1.6.so.0:_ZN2FX10FXSwitcher16onCmdGetIntValueEPNS_8FXObjectEjPv
libFOX-1.6.so.0:_ZN2FX10FXSwitcher16onCmdSetIntValueEPNS_8FXObjectEjPv
libFOX-1.6.so.0:_ZN2FX10FXSwitcher16setSwitcherStyleEj
libFOX-1.6.so.0:_ZN2FX10FXSwitcher4loadERNS_8FXStreamE
libFOX-1.6.so.0:_ZN2FX10FXSwitcher6handleEPNS_8FXObjectEjPv
libFOX-1.6.so.0:_ZN2FX10FXSwitcher6layoutEv
libFOX-1.6.so.0:_ZN2FX10FXSwitcher7onPaintEPNS_8FXObjectEjPv
libFOX-1.6.so.0:_ZN2FX10FXSwitcher9onCmdOpenEPNS_8FXObjectEjPv
libFOX-1.6.so.0:_ZN2FX10FXSwitcher9onUpdOpenEPNS_8FXObjectEjPv
libFOX-1.6.so.0:_ZN2FX10FXSwitcherC1EPNS_11FXCompositeEjiiiiiiii
libFOX-1.6.so.0:_ZN2FX10FXSwitcherC2EPNS_11FXCompositeEjiiiiiiii
libFOX-1.6.so.0:_ZN2FX10FXTGAImage10loadPixelsERNS_8FXStreamE
libFOX-1.6.so.0:_ZN2FX10FXTGAImage11manufactureEv
libFOX-1.6.so.0:_ZN2FX10FXTGAImage6handleEPNS_8FXObjectEjPv
libFOX-1.6.so.0:_ZN2FX10FXTGAImageC1EPNS_5FXAppEPKvjii
libFOX-1.6.so.0:_ZN2FX10FXTGAImageC2EPNS_5FXAppEPKvjii
libFOX-1.6.so.0:_ZN2FX10FXTGAImageD0Ev
libFOX-1.6.so.0:_ZN2FX10FXTGAImageD1Ev
libFOX-1.6.so.0:_ZN2FX10FXTGAImageD2Ev
libFOX-1.6.so.0:_ZN2FX10FXTIFImage10loadPixelsERNS_8FXStreamE
libFOX-1.6.so.0:_ZN2FX10FXTIFImage11manufactureEv
libFOX-1.6.so.0:_ZN2FX10FXTIFImage6handleEPNS_8FXObjectEjPv
libFOX-1.6.so.0:_ZN2FX10FXTIFImageC1EPNS_5FXAppEPKvjii
libFOX-1.6.so.0:_ZN2FX10FXTIFImageC2EPNS_5FXAppEPKvjii
libFOX-1.6.so.0:_ZN2FX10FXTIFImageD0Ev
libFOX-1.6.so.0:_ZN2FX10FXTIFImageD1Ev
libFOX-1.6.so.0:_ZN2FX10FXTIFImageD2Ev
libFOX-1.6.so.0:_ZN2FX10FXTreeItem10setEnabledEh
libFOX-1.6.so.0:_ZN2FX10FXTreeItem11manufactureEv
libFOX-1.6.so.0:_ZN2FX10FXTreeItem11setExpandedEh
libFOX-1.6.so.0:_ZN2FX10FXTreeItem11setHasItemsEh
libFOX-1.6.so.0:_ZN2FX10FXTreeItem11setOpenIconEPNS_6FXIconEh
libFOX-1.6.so.0:_ZN2FX10FXTreeItem11setSelectedEh
libFOX-1.6.so.0:_ZN2FX10FXTreeItem12setDraggableEh
libFOX-1.6.so.0:_ZN2FX10FXTreeItem13setClosedIconEPNS_6FXIconEh
libFOX-1.6.so.0:_ZN2FX10FXTreeItem4loadERNS_8FXStreamE
libFOX-1.6.so.0:_ZN2FX10FXTreeItem6createEv
libFOX-1.6.so.0:_ZN2FX10FXTreeItem6detachEv
libFOX-1.6.so.0:_ZN2FX10FXTreeItem6handleEPNS_8FXObjectEjPv
libFOX-1.6.so.0:_ZN2FX10FXTreeItem7destroyEv
libFOX-1.6.so.0:_ZN2FX10FXTreeItem7setTextERKNS_8FXStringE
libFOX-1.6.so.0:_ZN2FX10FXTreeItem8setFocusEh
libFOX-1.6.so.0:_ZN2FX10FXTreeItem9setOpenedEh
libFOX-1.6.so.0:_ZN2FX10FXTreeItemD0Ev
libFOX-1.6.so.0:_ZN2FX10FXTreeItemD1Ev
libFOX-1.6.so.0:_ZN2FX10FXTreeItemD2Ev
libFOX-1.6.so.0:_ZN2FX10FXTreeList10appendItemEPNS_10FXTreeItemERKNS_8FXStringEPNS_6FXIconES7_Pvh
libFOX-1.6.so.0:_ZN2FX10FXTreeList10appendItemEPNS_10FXTreeItemES2_h
libFOX-1.6.so.0:_ZN2FX10FXTreeList10clearItemsEh
libFOX-1.6.so.0:_ZN2FX10FXTreeList10createItemERKNS_8FXStringEPNS_6FXIconES5_Pv
libFOX-1.6.so.0:_ZN2FX10FXTreeList10descendingEPKNS_10FXTreeItemES3_
libFOX-1.6.so.0:_ZN2FX10FXTreeList10enableItemEPNS_10FXTreeItemE
libFOX-1.6.so.0:_ZN2FX10FXTreeList10expandTreeEPNS_10FXTreeItemEh
libFOX-1.6.so.0:_ZN2FX10FXTreeList10insertItemEPNS_10FXTreeItemES2_RKNS_8FXStringEPNS_6FXIconES7_Pvh
libFOX-1.6.so.0:_ZN2FX10FXTreeList10insertItemEPNS_10FXTreeItemES2_S2_h
libFOX-1.6.so.0:_ZN2FX10FXTreeList10onFocusOutEPNS_8FXObjectEjPv
libFOX-1.6.so.0:_ZN2FX10FXTreeList10onKeyPressEPNS_8FXObjectEjPv
libFOX-1.6.so.0:_ZN2FX10FXTreeList10onQueryTipEPNS_8FXObjectEjPv
libFOX-1.6.so.0:_ZN2FX10FXTreeList10onTipTimerEPNS_8FXObjectEjPv
libFOX-1.6.so.0:_ZN2FX10FXTreeList10removeItemEPNS_10FXTreeItemEh
libFOX-1.6.so.0:_ZN2FX10FXTreeList10selectItemEPNS_10FXTreeItemEh
libFOX-1.6.so.0:_ZN2FX10FXTreeList10toggleItemEPNS_10FXTreeItemEh
libFOX-1.6.so.0:_ZN2FX10FXTreeList11disableItemEPNS_10FXTreeItemE
libFOX-1.6.so.0:_ZN2FX10FXTreeList11extractItemEPNS_10FXTreeItemEh
libFOX-1.6.so.0:_ZN2FX10FXTreeList11manufactureEv
libFOX-1.6.so.0:_ZN2FX10FXTreeList11onQueryHelpEPNS_8FXObjectEjPv
libFOX-1.6.so.0:_ZN2FX10FXTreeList11onUngrabbedEPNS_8FXObjectEjPv
libFOX-1.6.so.0:_ZN2FX10FXTreeList11prependItemEPNS_10FXTreeItemERKNS_8FXStringEPNS_6FXIconES7_Pvh
libFOX-1.6.so.0:_ZN2FX10FXTreeList11prependItemEPNS_10FXTreeItemES2_h
libFOX-1.6.so.0:_ZN2FX10FXTreeList11removeItemsEPNS_10FXTreeItemES2_h
libFOX-1.6.so.0:_ZN2FX10FXTreeList11setHelpTextERKNS_8FXStringE
libFOX-1.6.so.0:_ZN2FX10FXTreeList11setItemTextEPNS_10FXTreeItemERKNS_8FXStringE
libFOX-1.6.so.0:_ZN2FX10FXTreeList12collapseTreeEPNS_10FXTreeItemEh
libFOX-1.6.so.0:_ZN2FX10FXTreeList12deselectItemEPNS_10FXTreeItemEh
libFOX-1.6.so.0:_ZN2FX10FXTreeList12onAutoScrollEPNS_8FXObjectEjPv
libFOX-1.6.so.0:_ZN2FX10FXTreeList12onKeyReleaseEPNS_8FXObjectEjPv
libFOX-1.6.so.0:_ZN2FX10FXTreeList12setLineColorEj
libFOX-1.6.so.0:_ZN2FX10FXTreeList12setListStyleEj
libFOX-1.6.so.0:_ZN2FX10FXTreeList12setTextColorEj
libFOX-1.6.so.0:_ZN2FX10FXTreeList13ascendingCaseEPKNS_10FXTreeItemES3_
libFOX-1.6.so.0:_ZN2FX10FXTreeList13killSelectionEh
libFOX-1.6.so.0:_ZN2FX10FXTreeList13onLookupTimerEPNS_8FXObjectEjPv
libFOX-1.6.so.0:_ZN2FX10FXTreeList13setAnchorItemEPNS_10FXTreeItemE
libFOX-1.6.so.0:_ZN2FX10FXTreeList13setNumVisibleEi
libFOX-1.6.so.0:_ZN2FX10FXTreeList13sortRootItemsEv
libFOX-1.6.so.0:_ZN2FX10FXTreeList14descendingCaseEPKNS_10FXTreeItemES3_
libFOX-1.6.so.0:_ZN2FX10FXTreeList14onLeftBtnPressEPNS_8FXObjectEjPv
libFOX-1.6.so.0:_ZN2FX10FXTreeList14setCurrentItemEPNS_10FXTreeItemEh
libFOX-1.6.so.0:_ZN2FX10FXTreeList14sortChildItemsEPNS_10FXTreeItemE
libFOX-1.6.so.0:_ZN2FX10FXTreeList15extendSelectionEPNS_10FXTreeItemEh
libFOX-1.6.so.0:_ZN2FX10FXTreeList15getContentWidthEv
libFOX-1.6.so.0:_ZN2FX10FXTreeList15getDefaultWidthEv
libFOX-1.6.so.0:_ZN2FX10FXTreeList15makeItemVisibleEPNS_10FXTreeItemE
libFOX-1.6.so.0:_ZN2FX10FXTreeList15onDoubleClickedEPNS_8FXObjectEjPv
libFOX-1.6.so.0:_ZN2FX10FXTreeList15onRightBtnPressEPNS_8FXObjectEjPv
libFOX-1.6.so.0:_ZN2FX10FXTreeList15onTripleClickedEPNS_8FXObjectEjPv
libFOX-1.6.so.0:_ZN2FX10FXTreeList15setItemOpenIconEPNS_10FXTreeItemEPNS_6FXIconEh
libFOX-1.6.so.0:_ZN2FX10FXTreeList15setSelBackColorEj
libFOX-1.6.so.0:_ZN2FX10FXTreeList15setSelTextColorEj
libFOX-1.6.so.0:_ZN2FX10FXTreeList16getContentHeightEv
libFOX-1.6.so.0:_ZN2FX10FXTreeList16getDefaultHeightEv
libFOX-1.6.so.0:_ZN2FX10FXTreeList16onLeftBtnReleaseEPNS_8FXObjectEjPv
libFOX-1.6.so.0:_ZN2FX10FXTreeList17onRightBtnReleaseEPNS_8FXObjectEjPv
libFOX-1.6.so.0:_ZN2FX10FXTreeList17setItemClosedIconEPNS_10FXTreeItemEPNS_6FXIconEh
libFOX-1.6.so.0:_ZN2FX10FXTreeList4loadERNS_8FXStreamE
libFOX-1.6.so.0:_ZN2FX10FXTreeList4sortERPNS_10FXTreeItemES3_S3_S3_i
libFOX-1.6.so.0:_ZN2FX10FXTreeList6createEv
libFOX-1.6.so.0:_ZN2FX10FXTreeList6detachEv
libFOX-1.6.so.0:_ZN2FX10FXTreeList6handleEPNS_8FXObjectEjPv
libFOX-1.6.so.0:_ZN2FX10FXTreeList6layoutEv
libFOX-1.6.so.0:_ZN2FX10FXTreeList6recalcEv
libFOX-1.6.so.0:_ZN2FX10FXTreeList7onEnterEPNS_8FXObjectEjPv
libFOX-1.6.so.0:_ZN2FX10FXTreeList7onLeaveEPNS_8FXObjectEjPv
libFOX-1.6.so.0:_ZN2FX10FXTreeList7onPaintEPNS_8FXObjectEjPv
libFOX-1.6.so.0:_ZN2FX10FXTreeList7setFontEPNS_6FXFontE
libFOX-1.6.so.0:_ZN2FX10FXTreeList8moveItemEPNS_10FXTreeItemES2_S2_
libFOX-1.6.so.0:_ZN2FX10FXTreeList8onMotionEPNS_8FXObjectEjPv
libFOX-1.6.so.0:_ZN2FX10FXTreeList8openItemEPNS_10FXTreeItemEh
libFOX-1.6.so.0:_ZN2FX10FXTreeList8setFocusEv
libFOX-1.6.so.0:_ZN2FX10FXTreeList9ascendingEPKNS_10FXTreeItemES3_
libFOX-1.6.so.0:_ZN2FX10FXTreeList9closeItemEPNS_10FXTreeItemEh
libFOX-1.6.so.0:_ZN2FX10FXTreeList9fillItemsEPNS_10FXTreeItemEPPKcPNS_6FXIconES7_Pvh
libFOX-1.6.so.0:_ZN2FX10FXTreeList9fillItemsEPNS_10FXTreeItemERKNS_8FXStringEPNS_6FXIconES7_Pvh
libFOX-1.6.so.0:_ZN2FX10FXTreeList9killFocusEv
libFOX-1.6.so.0:_ZN2FX10FXTreeList9onClickedEPNS_8FXObjectEjPv
libFOX-1.6.so.0:_ZN2FX10FXTreeList9onCommandEPNS_8FXObjectEjPv
libFOX-1.6.so.0:_ZN2FX10FXTreeList9onFocusInEPNS_8FXObjectEjPv
libFOX-1.6.so.0:_ZN2FX10FXTreeList9recomputeEv
libFOX-1.6.so.0:_ZN2FX10FXTreeList9setIndentEi
libFOX-1.6.so.0:_ZN2FX10FXTreeList9sortItemsEv
libFOX-1.6.so.0:_ZN2FX10FXTreeListC1EPNS_11FXCompositeEPNS_8FXObjectEjjiiii
libFOX-1.6.so.0:_ZN2FX10FXTreeListC1Ev
libFOX-1.6.so.0:_ZN2FX10FXTreeListC2EPNS_11FXCompositeEPNS_8FXObjectEjjiiii
libFOX-1.6.so.0:_ZN2FX10FXTreeListC2Ev
libFOX-1.6.so.0:_ZN2FX10FXTreeListD0Ev
libFOX-1.6.so.0:_ZN2FX10FXTreeListD1Ev
libFOX-1.6.so.0:_ZN2FX10FXTreeListD2Ev
libFOX-1.6.so.0:_ZN2FX10FXULongValERKNS_8FXStringEi
libFOX-1.6.so.0:_ZN2FX10FXUndoList10onCmdClearEPNS_8FXObjectEjPv
libFOX-1.6.so.0:_ZN2FX10FXUndoList10onUpdClearEPNS_8FXObjectEjPv
libFOX-1.6.so.0:_ZN2FX10FXUndoList11manufactureEv
libFOX-1.6.so.0:_ZN2FX10FXUndoList11onCmdRevertEPNS_8FXObjectEjPv
libFOX-1.6.so.0:_ZN2FX10FXUndoList11onUpdRevertEPNS_8FXObjectEjPv
libFOX-1.6.so.0:_ZN2FX10FXUndoList12onCmdRedoAllEPNS_8FXObjectEjPv
libFOX-1.6.so.0:_ZN2FX10FXUndoList12onCmdUndoAllEPNS_8FXObjectEjPv
libFOX-1.6.so.0:_ZN2FX10FXUndoList14onUpdRedoCountEPNS_8FXObjectEjPv
libFOX-1.6.so.0:_ZN2FX10FXUndoList14onUpdUndoCountEPNS_8FXObjectEjPv
libFOX-1.6.so.0:_ZN2FX10FXUndoList3addEPNS_9FXCommandEbb
libFOX-1.6.so.0:_ZN2FX10FXUndoList3cutEv
libFOX-1.6.so.0:_ZN2FX10FXUndoList3endEv
libFOX-1.6.so.0:_ZN2FX10FXUndoList4markEv
libFOX-1.6.so.0:_ZN2FX10FXUndoList4redoEv
libFOX-1.6.so.0:_ZN2FX10FXUndoList4undoEv
libFOX-1.6.so.0:_ZN2FX10FXUndoList5abortEv
libFOX-1.6.so.0:_ZN2FX10FXUndoList5beginEPNS_14FXCommandGroupE
libFOX-1.6.so.0:_ZN2FX10FXUndoList5clearEv
libFOX-1.6.so.0:_ZN2FX10FXUndoList6handleEPNS_8FXObjectEjPv
libFOX-1.6.so.0:_ZN2FX10FXUndoList6revertEv
libFOX-1.6.so.0:_ZN2FX10FXUndoList6unmarkEv
libFOX-1.6.so.0:_ZN2FX10FXUndoList7redoAllEv
libFOX-1.6.so.0:_ZN2FX10FXUndoList7undoAllEv
libFOX-1.6.so.0:_ZN2FX10FXUndoList8trimSizeEj
libFOX-1.6.so.0:_ZN2FX10FXUndoList9onCmdRedoEPNS_8FXObjectEjPv
libFOX-1.6.so.0:_ZN2FX10FXUndoList9onCmdUndoEPNS_8FXObjectEjPv
libFOX-1.6.so.0:_ZN2FX10FXUndoList9onUpdRedoEPNS_8FXObjectEjPv
libFOX-1.6.so.0:_ZN2FX10FXUndoList9onUpdUndoEPNS_8FXObjectEjPv
libFOX-1.6.so.0:_ZN2FX10FXUndoList9trimCountEi
libFOX-1.6.so.0:_ZN2FX10FXUndoListC1Ev
libFOX-1.6.so.0:_ZN2FX10FXUndoListC2Ev
libFOX-1.6.so.0:_ZN2FX10FXXBMImage10loadPixelsERNS_8FXStreamE
libFOX-1.6.so.0:_ZN2FX10FXXBMImage11manufactureEv
libFOX-1.6.so.0:_ZN2FX10FXXBMImage6handleEPNS_8FXObjectEjPv
libFOX-1.6.so.0:_ZN2FX10FXXBMImageC1EPNS_5FXAppEPKhS4_jii
libFOX-1.6.so.0:_ZN2FX10FXXBMImageC2EPNS_5FXAppEPKhS4_jii
libFOX-1.6.so.0:_ZN2FX10FXXBMImageD0Ev
libFOX-1.6.so.0:_ZN2FX10FXXBMImageD1Ev
libFOX-1.6.so.0:_ZN2FX10FXXBMImageD2Ev
libFOX-1.6.so.0:_ZN2FX10FXXPMImage10loadPixelsERNS_8FXStreamE
libFOX-1.6.so.0:_ZN2FX10FXXPMImage11manufactureEv
libFOX-1.6.so.0:_ZN2FX10FXXPMImage6handleEPNS_8FXObjectEjPv
libFOX-1.6.so.0:_ZN2FX10FXXPMImageC1EPNS_5FXAppEPPKcjii
libFOX-1.6.so.0:_ZN2FX10FXXPMImageC2EPNS_5FXAppEPPKcjii
libFOX-1.6.so.0:_ZN2FX10FXXPMImageD0Ev
libFOX-1.6.so.0:_ZN2FX10FXXPMImageD1Ev
libFOX-1.6.so.0:_ZN2FX10FXXPMImageD2Ev
libFOX-1.6.so.0:_ZN2FX10findHotKeyERKNS_8FXStringE
libFOX-1.6.so.0:_ZN2FX10fxcheckBMPERNS_8FXStreamE
libFOX-1.6.so.0:_ZN2FX10fxcheckGIFERNS_8FXStreamE
libFOX-1.6.so.0:_ZN2FX10fxcheckICOERNS_8FXStreamE
libFOX-1.6.so.0:_ZN2FX10fxcheckIFFERNS_8FXStreamE
libFOX-1.6.so.0:_ZN2FX10fxcheckJPGERNS_8FXStreamE
libFOX-1.6.so.0:_ZN2FX10fxcheckPCXERNS_8FXStreamE
libFOX-1.6.so.0:_ZN2FX10fxcheckPNGERNS_8FXStreamE
libFOX-1.6.so.0:_ZN2FX10fxcheckPPMERNS_8FXStreamE
libFOX-1.6.so.0:_ZN2FX10fxcheckRASERNS_8FXStreamE
libFOX-1.6.so.0:_ZN2FX10fxcheckRGBERNS_8FXStreamE
libFOX-1.6.so.0:_ZN2FX10fxcheckTGAERNS_8FXStreamE
libFOX-1.6.so.0:_ZN2FX10fxcheckTIFERNS_8FXStreamE
libFOX-1.6.so.0:_ZN2FX10fxcheckXBMERNS_8FXStreamE
libFOX-1.6.so.0:_ZN2FX10fxcheckXPMERNS_8FXStreamE
libFOX-1.6.so.0:_ZN2FX10fxdllCloseEPv
libFOX-1.6.so.0:_ZN2FX10fxdllErrorEv
libFOX-1.6.so.0:_ZN2FX10fxgetticksEv
libFOX-1.6.so.0:_ZN2FX10fxrecvdataEP9_XDisplaymmmRmRPhRj
libFOX-1.6.so.0:_ZN2FX10fxsenddataEP9_XDisplaymmmPhj
libFOX-1.6.so.0:_ZN2FX10isutfvalidEPKc
libFOX-1.6.so.0:_ZN2FX10parseAccelERKNS_8FXStringE
libFOX-1.6.so.0:_ZN2FX10wcvalidateEPKci
libFOX-1.6.so.0:_ZN2FX10wcvalidateEPKti
libFOX-1.6.so.0:_ZN2FX11FX4Splitter10setBarSizeEi
libFOX-1.6.so.0:_ZN2FX11FX4Splitter11manufactureEv
libFOX-1.6.so.0:_ZN2FX11FX4Splitter11onCmdExpandEPNS_8FXObjectEjPv
libFOX-1.6.so.0:_ZN2FX11FX4Splitter11onFocusDownEPNS_8FXObjectEjPv
libFOX-1.6.so.0:_ZN2FX11FX4Splitter11onFocusLeftEPNS_8FXObjectEjPv
libFOX-1.6.so.0:_ZN2FX11FX4Splitter11onUpdExpandEPNS_8FXObjectEjPv
libFOX-1.6.so.0:_ZN2FX11FX4Splitter11setExpandedEj
libFOX-1.6.so.0:_ZN2FX11FX4Splitter12adjustLayoutEv
libFOX-1.6.so.0:_ZN2FX11FX4Splitter12onFocusRightEPNS_8FXObjectEjPv
libFOX-1.6.so.0:_ZN2FX11FX4Splitter14onLeftBtnPressEPNS_8FXObjectEjPv
libFOX-1.6.so.0:_ZN2FX11FX4Splitter15getDefaultWidthEv
libFOX-1.6.so.0:_ZN2FX11FX4Splitter16getDefaultHeightEv
libFOX-1.6.so.0:_ZN2FX11FX4Splitter16onLeftBtnReleaseEPNS_8FXObjectEjPv
libFOX-1.6.so.0:_ZN2FX11FX4Splitter16setSplitterStyleEj
libFOX-1.6.so.0:_ZN2FX11FX4Splitter4loadERNS_8FXStreamE
libFOX-1.6.so.0:_ZN2FX11FX4Splitter6handleEPNS_8FXObjectEjPv
libFOX-1.6.so.0:_ZN2FX11FX4Splitter6layoutEv
libFOX-1.6.so.0:_ZN2FX11FX4Splitter7getModeEii
libFOX-1.6.so.0:_ZN2FX11FX4Splitter8onMotionEPNS_8FXObjectEjPv
libFOX-1.6.so.0:_ZN2FX11FX4Splitter9drawSplitEiij
libFOX-1.6.so.0:_ZN2FX11FX4Splitter9moveSplitEii
libFOX-1.6.so.0:_ZN2FX11FX4Splitter9onFocusUpEPNS_8FXObjectEjPv
libFOX-1.6.so.0:_ZN2FX11FX4Splitter9setHSplitEi
libFOX-1.6.so.0:_ZN2FX11FX4Splitter9setVSplitEi
libFOX-1.6.so.0:_ZN2FX11FX4SplitterC1EPNS_11FXCompositeEPNS_8FXObjectEjjiiii
libFOX-1.6.so.0:_ZN2FX11FX4SplitterC1EPNS_11FXCompositeEjiiii
libFOX-1.6.so.0:_ZN2FX11FX4SplitterC1Ev
libFOX-1.6.so.0:_ZN2FX11FX4SplitterC2EPNS_11FXCompositeEPNS_8FXObjectEjjiiii
libFOX-1.6.so.0:_ZN2FX11FX4SplitterC2EPNS_11FXCompositeEjiiii
libFOX-1.6.so.0:_ZN2FX11FX4SplitterC2Ev
libFOX-1.6.so.0:_ZN2FX11FXCURCursor10loadPixelsERNS_8FXStreamE
libFOX-1.6.so.0:_ZN2FX11FXCURCursor11manufactureEv
libFOX-1.6.so.0:_ZN2FX11FXCURCursor6handleEPNS_8FXObjectEjPv
libFOX-1.6.so.0:_ZN2FX11FXCURCursorC1EPNS_5FXAppEPKv
libFOX-1.6.so.0:_ZN2FX11FXCURCursorC2EPNS_5FXAppEPKv
libFOX-1.6.so.0:_ZN2FX11FXCURCursorD0Ev
libFOX-1.6.so.0:_ZN2FX11FXCURCursorD1Ev
libFOX-1.6.so.0:_ZN2FX11FXCURCursorD2Ev
libFOX-1.6.so.0:_ZN2FX11FXChoiceBox10initializeERKNS_8FXStringEPNS_6FXIconE
libFOX-1.6.so.0:_ZN2FX11FXChoiceBox11manufactureEv
libFOX-1.6.so.0:_ZN2FX11FXChoiceBox11onCmdCancelEPNS_8FXObjectEjPv
libFOX-1.6.so.0:_ZN2FX11FXChoiceBox12onCmdClickedEPNS_8FXObjectEjPv
libFOX-1.6.so.0:_ZN2FX11FXChoiceBox3askEPNS_5FXAppEjRKNS_8FXStringES5_PNS_6FXIconEPPKc
libFOX-1.6.so.0:_ZN2FX11FXChoiceBox3askEPNS_5FXAppEjRKNS_8FXStringES5_PNS_6FXIconES5_
libFOX-1.6.so.0:_ZN2FX11FXChoiceBox3askEPNS_8FXWindowEjRKNS_8FXStringES5_PNS_6FXIconEPPKc
libFOX-1.6.so.0:_ZN2FX11FXChoiceBox3askEPNS_8FXWindowEjRKNS_8FXStringES5_PNS_6FXIconES5_
libFOX-1.6.so.0:_ZN2FX11FXChoiceBox4loadERNS_8FXStreamE
libFOX-1.6.so.0:_ZN2FX11FXChoiceBox6handleEPNS_8FXObjectEjPv
libFOX-1.6.so.0:_ZN2FX11FXChoiceBoxC1EPNS_5FXAppERKNS_8FXStringES5_PNS_6FXIconEPPKcjiiii
libFOX-1.6.so.0:_ZN2FX11FXChoiceBoxC1EPNS_5FXAppERKNS_8FXStringES5_PNS_6FXIconES5_jiiii
libFOX-1.6.so.0:_ZN2FX11FXChoiceBoxC1EPNS_8FXWindowERKNS_8FXStringES5_PNS_6FXIconEPPKcjiiii
libFOX-1.6.so.0:_ZN2FX11FXChoiceBoxC1EPNS_8FXWindowERKNS_8FXStringES5_PNS_6FXIconES5_jiiii
libFOX-1.6.so.0:_ZN2FX11FXChoiceBoxC2EPNS_5FXAppERKNS_8FXStringES5_PNS_6FXIconEPPKcjiiii
libFOX-1.6.so.0:_ZN2FX11FXChoiceBoxC2EPNS_5FXAppERKNS_8FXStringES5_PNS_6FXIconES5_jiiii
libFOX-1.6.so.0:_ZN2FX11FXChoiceBoxC2EPNS_8FXWindowERKNS_8FXStringES5_PNS_6FXIconEPPKcjiiii
libFOX-1.6.so.0:_ZN2FX11FXChoiceBoxC2EPNS_8FXWindowERKNS_8FXStringES5_PNS_6FXIconES5_jiiii
libFOX-1.6.so.0:_ZN2FX11FXChoiceBoxD0Ev
libFOX-1.6.so.0:_ZN2FX11FXChoiceBoxD1Ev
libFOX-1.6.so.0:_ZN2FX11FXChoiceBoxD2Ev
libFOX-1.6.so.0:_ZN2FX11FXColorItem11manufactureEv
libFOX-1.6.so.0:_ZN2FX11FXColorItem4drawEPKNS_6FXListERNS_4FXDCEiiii
libFOX-1.6.so.0:_ZN2FX11FXColorItem6handleEPNS_8FXObjectEjPv
libFOX-1.6.so.0:_ZN2FX11FXColorList10appendItemERKNS_8FXStringEjPvh
libFOX-1.6.so.0:_ZN2FX11FXColorList10createItemERKNS_8FXStringEPNS_6FXIconEPv
libFOX-1.6.so.0:_ZN2FX11FXColorList10insertItemEiRKNS_8FXStringEjPvh
libFOX-1.6.so.0:_ZN2FX11FXColorList11manufactureEv
libFOX-1.6.so.0:_ZN2FX11FXColorList11prependItemERKNS_8FXStringEjPvh
libFOX-1.6.so.0:_ZN2FX11FXColorList12setItemColorEij
libFOX-1.6.so.0:_ZN2FX11FXColorList6handleEPNS_8FXObjectEjPv
libFOX-1.6.so.0:_ZN2FX11FXColorList9fillItemsEPPKcPjPvh
libFOX-1.6.so.0:_ZN2FX11FXColorListC1EPNS_11FXCompositeEPNS_8FXObjectEjjiiii
libFOX-1.6.so.0:_ZN2FX11FXColorListC2EPNS_11FXCompositeEPNS_8FXObjectEjjiiii
libFOX-1.6.so.0:_ZN2FX11FXColorRing10onQueryTipEPNS_8FXObjectEjPv
libFOX-1.6.so.0:_ZN2FX11FXColorRing10updateringEv
libFOX-1.6.so.0:_ZN2FX11FXColorRing11manufactureEv
libFOX-1.6.so.0:_ZN2FX11FXColorRing11onCmdGetTipEPNS_8FXObjectEjPv
libFOX-1.6.so.0:_ZN2FX11FXColorRing11onCmdSetTipEPNS_8FXObjectEjPv
libFOX-1.6.so.0:_ZN2FX11FXColorRing11onQueryHelpEPNS_8FXObjectEjPv
libFOX-1.6.so.0:_ZN2FX11FXColorRing12onCmdGetHelpEPNS_8FXObjectEjPv
libFOX-1.6.so.0:_ZN2FX11FXColorRing12onCmdSetHelpEPNS_8FXObjectEjPv
libFOX-1.6.so.0:_ZN2FX11FXColorRing12onMouseWheelEPNS_8FXObjectEjPv
libFOX-1.6.so.0:_ZN2FX11FXColorRing12setHueSatValEfff
libFOX-1.6.so.0:_ZN2FX11FXColorRing12setRingWidthEi
libFOX-1.6.so.0:_ZN2FX11FXColorRing14onLeftBtnPressEPNS_8FXObjectEjPv
libFOX-1.6.so.0:_ZN2FX11FXColorRing15getDefaultWidthEv
libFOX-1.6.so.0:_ZN2FX11FXColorRing16getDefaultHeightEv
libFOX-1.6.so.0:_ZN2FX11FXColorRing16onLeftBtnReleaseEPNS_8FXObjectEjPv
libFOX-1.6.so.0:_ZN2FX11FXColorRing4loadERNS_8FXStreamE
libFOX-1.6.so.0:_ZN2FX11FXColorRing6createEv
libFOX-1.6.so.0:_ZN2FX11FXColorRing6detachEv
libFOX-1.6.so.0:_ZN2FX11FXColorRing6handleEPNS_8FXObjectEjPv
libFOX-1.6.so.0:_ZN2FX11FXColorRing6layoutEv
libFOX-1.6.so.0:_ZN2FX11FXColorRing6setHueEf
libFOX-1.6.so.0:_ZN2FX11FXColorRing6setSatEf
libFOX-1.6.so.0:_ZN2FX11FXColorRing6setValEf
libFOX-1.6.so.0:_ZN2FX11FXColorRing7onPaintEPNS_8FXObjectEjPv
libFOX-1.6.so.0:_ZN2FX11FXColorRing8onMotionEPNS_8FXObjectEjPv
libFOX-1.6.so.0:_ZN2FX11FXColorRingC1EPNS_11FXCompositeEPNS_8FXObjectEjjiiiiiiii
libFOX-1.6.so.0:_ZN2FX11FXColorRingC1Ev
libFOX-1.6.so.0:_ZN2FX11FXColorRingC2EPNS_11FXCompositeEPNS_8FXObjectEjjiiiiiiii
libFOX-1.6.so.0:_ZN2FX11FXColorRingC2Ev
libFOX-1.6.so.0:_ZN2FX11FXColorRingD0Ev
libFOX-1.6.so.0:_ZN2FX11FXColorRingD1Ev
libFOX-1.6.so.0:_ZN2FX11FXColorRingD2Ev
libFOX-1.6.so.0:_ZN2FX11FXColorWell10onDNDEnterEPNS_8FXObjectEjPv
libFOX-1.6.so.0:_ZN2FX11FXColorWell10onDNDLeaveEPNS_8FXObjectEjPv
libFOX-1.6.so.0:_ZN2FX11FXColorWell10onFocusOutEPNS_8FXObjectEjPv
libFOX-1.6.so.0:_ZN2FX11FXColorWell10onKeyPressEPNS_8FXObjectEjPv
libFOX-1.6.so.0:_ZN2FX11FXColorWell10onQueryTipEPNS_8FXObjectEjPv
libFOX-1.6.so.0:_ZN2FX11FXColorWell11manufactureEv
libFOX-1.6.so.0:_ZN2FX11FXColorWell11onBeginDragEPNS_8FXObjectEjPv
libFOX-1.6.so.0:_ZN2FX11FXColorWell11onCmdGetTipEPNS_8FXObjectEjPv
libFOX-1.6.so.0:_ZN2FX11FXColorWell11onCmdSetTipEPNS_8FXObjectEjPv
libFOX-1.6.so.0:_ZN2FX11FXColorWell11onDNDMotionEPNS_8FXObjectEjPv
libFOX-1.6.so.0:_ZN2FX11FXColorWell11onQueryHelpEPNS_8FXObjectEjPv
libFOX-1.6.so.0:_ZN2FX11FXColorWell11onUngrabbedEPNS_8FXObjectEjPv
libFOX-1.6.so.0:_ZN2FX11FXColorWell12onCmdGetHelpEPNS_8FXObjectEjPv
libFOX-1.6.so.0:_ZN2FX11FXColorWell12onCmdSetHelpEPNS_8FXObjectEjPv
libFOX-1.6.so.0:_ZN2FX11FXColorWell12onDNDRequestEPNS_8FXObjectEjPv
libFOX-1.6.so.0:_ZN2FX11FXColorWell12onKeyReleaseEPNS_8FXObjectEjPv
libFOX-1.6.so.0:_ZN2FX11FXColorWell13onCmdSetValueEPNS_8FXObjectEjPv
libFOX-1.6.so.0:_ZN2FX11FXColorWell13rgbaoverblackEj
libFOX-1.6.so.0:_ZN2FX11FXColorWell13rgbaoverwhiteEj
libFOX-1.6.so.0:_ZN2FX11FXColorWell13setOpaqueOnlyEh
libFOX-1.6.so.0:_ZN2FX11FXColorWell14onChgColorWellEPNS_8FXObjectEjPv
libFOX-1.6.so.0:_ZN2FX11FXColorWell14onCmdColorWellEPNS_8FXObjectEjPv
libFOX-1.6.so.0:_ZN2FX11FXColorWell14onLeftBtnPressEPNS_8FXObjectEjPv
libFOX-1.6.so.0:_ZN2FX11FXColorWell15getDefaultWidthEv
libFOX-1.6.so.0:_ZN2FX11FXColorWell15onDoubleClickedEPNS_8FXObjectEjPv
libFOX-1.6.so.0:_ZN2FX11FXColorWell15onSelectionLostEPNS_8FXObjectEjPv
libFOX-1.6.so.0:_ZN2FX11FXColorWell16getDefaultHeightEv
libFOX-1.6.so.0:_ZN2FX11FXColorWell16onCmdGetIntValueEPNS_8FXObjectEjPv
libFOX-1.6.so.0:_ZN2FX11FXColorWell16onCmdSetIntValueEPNS_8FXObjectEjPv
libFOX-1.6.so.0:_ZN2FX11FXColorWell16onLeftBtnReleaseEPNS_8FXObjectEjPv
libFOX-1.6.so.0:_ZN2FX11FXColorWell16onMiddleBtnPressEPNS_8FXObjectEjPv
libFOX-1.6.so.0:_ZN2FX11FXColorWell17onSelectionGainedEPNS_8FXObjectEjPv
libFOX-1.6.so.0:_ZN2FX11FXColorWell18onMiddleBtnReleaseEPNS_8FXObjectEjPv
libFOX-1.6.so.0:_ZN2FX11FXColorWell18onSelectionRequestEPNS_8FXObjectEjPv
libFOX-1.6.so.0:_ZN2FX11FXColorWell4loadERNS_8FXStreamE
libFOX-1.6.so.0:_ZN2FX11FXColorWell6createEv
libFOX-1.6.so.0:_ZN2FX11FXColorWell6detachEv
libFOX-1.6.so.0:_ZN2FX11FXColorWell6handleEPNS_8FXObjectEjPv
libFOX-1.6.so.0:_ZN2FX11FXColorWell7onPaintEPNS_8FXObjectEjPv
libFOX-1.6.so.0:_ZN2FX11FXColorWell7setRGBAEjh
libFOX-1.6.so.0:_ZN2FX11FXColorWell8onMotionEPNS_8FXObjectEjPv
libFOX-1.6.so.0:_ZN2FX11FXColorWell8setFocusEv
libFOX-1.6.so.0:_ZN2FX11FXColorWell9killFocusEv
libFOX-1.6.so.0:_ZN2FX11FXColorWell9onClickedEPNS_8FXObjectEjPv
libFOX-1.6.so.0:_ZN2FX11FXColorWell9onDNDDropEPNS_8FXObjectEjPv
libFOX-1.6.so.0:_ZN2FX11FXColorWell9onDraggedEPNS_8FXObjectEjPv
libFOX-1.6.so.0:_ZN2FX11FXColorWell9onEndDragEPNS_8FXObjectEjPv
libFOX-1.6.so.0:_ZN2FX11FXColorWell9onFocusInEPNS_8FXObjectEjPv
libFOX-1.6.so.0:_ZN2FX11FXColorWellC1EPNS_11FXCompositeEjPNS_8FXObjectEjjiiiiiiii
libFOX-1.6.so.0:_ZN2FX11FXColorWellC1Ev
libFOX-1.6.so.0:_ZN2FX11FXColorWellC2EPNS_11FXCompositeEjPNS_8FXObjectEjjiiiiiiii
libFOX-1.6.so.0:_ZN2FX11FXColorWellC2Ev
libFOX-1.6.so.0:_ZN2FX11FXColorWellD0Ev
libFOX-1.6.so.0:_ZN2FX11FXColorWellD1Ev
libFOX-1.6.so.0:_ZN2FX11FXColorWellD2Ev
libFOX-1.6.so.0:_ZN2FX11FXComposite10onKeyPressEPNS_8FXObjectEjPv
libFOX-1.6.so.0:_ZN2FX11FXComposite11manufactureEv
libFOX-1.6.so.0:_ZN2FX11FXComposite11onCmdUpdateEPNS_8FXObjectEjPv
libFOX-1.6.so.0:_ZN2FX11FXComposite11onFocusNextEPNS_8FXObjectEjPv
libFOX-1.6.so.0:_ZN2FX11FXComposite11onFocusPrevEPNS_8FXObjectEjPv
libFOX-1.6.so.0:_ZN2FX11FXComposite12onKeyReleaseEPNS_8FXObjectEjPv
libFOX-1.6.so.0:_ZN2FX11FXComposite15getDefaultWidthEv
libFOX-1.6.so.0:_ZN2FX11FXComposite16getDefaultHeightEv
libFOX-1.6.so.0:_ZN2FX11FXComposite6createEv
libFOX-1.6.so.0:_ZN2FX11FXComposite6detachEv
libFOX-1.6.so.0:_ZN2FX11FXComposite6handleEPNS_8FXObjectEjPv
libFOX-1.6.so.0:_ZN2FX11FXComposite6layoutEv
libFOX-1.6.so.0:_ZN2FX11FXComposite7destroyEv
libFOX-1.6.so.0:_ZN2FX11FXCompositeC1EPNS_5FXAppEPNS_8FXVisualE
libFOX-1.6.so.0:_ZN2FX11FXCompositeC1EPNS_5FXAppEPNS_8FXWindowEjiiii
libFOX-1.6.so.0:_ZN2FX11FXCompositeC1EPS0_jiiii
libFOX-1.6.so.0:_ZN2FX11FXCompositeC2EPNS_5FXAppEPNS_8FXVisualE
libFOX-1.6.so.0:_ZN2FX11FXCompositeC2EPNS_5FXAppEPNS_8FXWindowEjiiii
libFOX-1.6.so.0:_ZN2FX11FXCompositeC2EPS0_jiiii
libFOX-1.6.so.0:_ZN2FX11FXCompositeD0Ev
libFOX-1.6.so.0:_ZN2FX11FXCompositeD1Ev
libFOX-1.6.so.0:_ZN2FX11FXCompositeD2Ev
libFOX-1.6.so.0:_ZN2FX11FXCondition4waitERNS_7FXMutexE
libFOX-1.6.so.0:_ZN2FX11FXCondition4waitERNS_7FXMutexEl
libFOX-1.6.so.0:_ZN2FX11FXCondition6signalEv
libFOX-1.6.so.0:_ZN2FX11FXCondition9broadcastEv
libFOX-1.6.so.0:_ZN2FX11FXConditionC1Ev
libFOX-1.6.so.0:_ZN2FX11FXConditionC2Ev
libFOX-1.6.so.0:_ZN2FX11FXConditionD1Ev
libFOX-1.6.so.0:_ZN2FX11FXConditionD2Ev
libFOX-1.6.so.0:_ZN2FX11FXDelegator11manufactureEv
libFOX-1.6.so.0:_ZN2FX11FXDelegator6handleEPNS_8FXObjectEjPv
libFOX-1.6.so.0:_ZN2FX11FXDelegator9onDefaultEPNS_8FXObjectEjPv
libFOX-1.6.so.0:_ZN2FX11FXDialogBox10onKeyPressEPNS_8FXObjectEjPv
libFOX-1.6.so.0:_ZN2FX11FXDialogBox11manufactureEv
libFOX-1.6.so.0:_ZN2FX11FXDialogBox11onCmdAcceptEPNS_8FXObjectEjPv
libFOX-1.6.so.0:_ZN2FX11FXDialogBox11onCmdCancelEPNS_8FXObjectEjPv
libFOX-1.6.so.0:_ZN2FX11FXDialogBox12onKeyReleaseEPNS_8FXObjectEjPv
libFOX-1.6.so.0:_ZN2FX11FXDialogBox6handleEPNS_8FXObjectEjPv
libFOX-1.6.so.0:_ZN2FX11FXDialogBox7executeEj
libFOX-1.6.so.0:_ZN2FX11FXDialogBoxC1EPNS_5FXAppERKNS_8FXStringEjiiiiiiiiii
libFOX-1.6.so.0:_ZN2FX11FXDialogBoxC1EPNS_8FXWindowERKNS_8FXStringEjiiiiiiiiii
libFOX-1.6.so.0:_ZN2FX11FXDialogBoxC2EPNS_5FXAppERKNS_8FXStringEjiiiiiiiiii
libFOX-1.6.so.0:_ZN2FX11FXDialogBoxC2EPNS_8FXWindowERKNS_8FXStringEjiiiiiiiiii
libFOX-1.6.so.0:_ZN2FX11FXDirDialog10initdialogEv
libFOX-1.6.so.0:_ZN2FX11FXDirDialog11manufactureEv
libFOX-1.6.so.0:_ZN2FX11FXDirDialog12setDirectoryERKNS_8FXStringE
libFOX-1.6.so.0:_ZN2FX11FXDirDialog12setMatchModeEj
libFOX-1.6.so.0:_ZN2FX11FXDirDialog14setDirBoxStyleEj
libFOX-1.6.so.0:_ZN2FX11FXDirDialog15showHiddenFilesEh
libFOX-1.6.so.0:_ZN2FX11FXDirDialog16getOpenDirectoryEPNS_8FXWindowERKNS_8FXStringES5_
libFOX-1.6.so.0:_ZN2FX11FXDirDialog4hideEv
libFOX-1.6.so.0:_ZN2FX11FXDirDialog4loadERNS_8FXStreamE
libFOX-1.6.so.0:_ZN2FX11FXDirDialog6handleEPNS_8FXObjectEjPv
libFOX-1.6.so.0:_ZN2FX11FXDirDialog9showFilesEh
libFOX-1.6.so.0:_ZN2FX11FXDirDialogC1EPNS_5FXAppERKNS_8FXStringEjiiii
libFOX-1.6.so.0:_ZN2FX11FXDirDialogC1EPNS_8FXWindowERKNS_8FXStringEjiiii
libFOX-1.6.so.0:_ZN2FX11FXDirDialogC2EPNS_5FXAppERKNS_8FXStringEjiiii
libFOX-1.6.so.0:_ZN2FX11FXDirDialogC2EPNS_8FXWindowERKNS_8FXStringEjiiii
libFOX-1.6.so.0:_ZN2FX11FXDirDialogD0Ev
libFOX-1.6.so.0:_ZN2FX11FXDirDialogD1Ev
libFOX-1.6.so.0:_ZN2FX11FXDirDialogD2Ev
libFOX-1.6.so.0:_ZN2FX11FXDockTitle10setCaptionERKNS_8FXStringE
libFOX-1.6.so.0:_ZN2FX11FXDockTitle10setJustifyEj
libFOX-1.6.so.0:_ZN2FX11FXDockTitle11manufactureEv
libFOX-1.6.so.0:_ZN2FX11FXDockTitle13onCmdSetValueEPNS_8FXObjectEjPv
libFOX-1.6.so.0:_ZN2FX11FXDockTitle15getDefaultWidthEv
libFOX-1.6.so.0:_ZN2FX11FXDockTitle15setCaptionColorEj
libFOX-1.6.so.0:_ZN2FX11FXDockTitle16getDefaultHeightEv
libFOX-1.6.so.0:_ZN2FX11FXDockTitle19onCmdGetStringValueEPNS_8FXObjectEjPv
libFOX-1.6.so.0:_ZN2FX11FXDockTitle19onCmdSetStringValueEPNS_8FXObjectEjPv
libFOX-1.6.so.0:_ZN2FX11FXDockTitle4loadERNS_8FXStreamE
libFOX-1.6.so.0:_ZN2FX11FXDockTitle6createEv
libFOX-1.6.so.0:_ZN2FX11FXDockTitle6detachEv
libFOX-1.6.so.0:_ZN2FX11FXDockTitle6handleEPNS_8FXObjectEjPv
libFOX-1.6.so.0:_ZN2FX11FXDockTitle7onPaintEPNS_8FXObjectEjPv
libFOX-1.6.so.0:_ZN2FX11FXDockTitle7setFontEPNS_6FXFontE
libFOX-1.6.so.0:_ZN2FX11FXDockTitleC1EPNS_11FXCompositeERKNS_8FXStringEPNS_8FXObjectEjjiiiiiiii
libFOX-1.6.so.0:_ZN2FX11FXDockTitleC1Ev
libFOX-1.6.so.0:_ZN2FX11FXDockTitleC2EPNS_11FXCompositeERKNS_8FXStringEPNS_8FXObjectEjjiiiiiiii
libFOX-1.6.so.0:_ZN2FX11FXDockTitleC2Ev
libFOX-1.6.so.0:_ZN2FX11FXDockTitleD0Ev
libFOX-1.6.so.0:_ZN2FX11FXDockTitleD1Ev
libFOX-1.6.so.0:_ZN2FX11FXDockTitleD2Ev
libFOX-1.6.so.0:_ZN2FX11FXDoubleValERKNS_8FXStringE
libFOX-1.6.so.0:_ZN2FX11FXGIFCursor10loadPixelsERNS_8FXStreamE
libFOX-1.6.so.0:_ZN2FX11FXGIFCursor11manufactureEv
libFOX-1.6.so.0:_ZN2FX11FXGIFCursor6handleEPNS_8FXObjectEjPv
libFOX-1.6.so.0:_ZN2FX11FXGIFCursorC1EPNS_5FXAppEPKvii
libFOX-1.6.so.0:_ZN2FX11FXGIFCursorC2EPNS_5FXAppEPKvii
libFOX-1.6.so.0:_ZN2FX11FXGLContext11manufactureEv
libFOX-1.6.so.0:_ZN2FX11FXGLContext11swapBuffersEv
libFOX-1.6.so.0:_ZN2FX11FXGLContext14swapSubBuffersEiiii
libFOX-1.6.so.0:_ZN2FX11FXGLContext3endEv
libFOX-1.6.so.0:_ZN2FX11FXGLContext4loadERNS_8FXStreamE
libFOX-1.6.so.0:_ZN2FX11FXGLContext5beginEPNS_10FXDrawableE
libFOX-1.6.so.0:_ZN2FX11FXGLContext6createEv
libFOX-1.6.so.0:_ZN2FX11FXGLContext6detachEv
libFOX-1.6.so.0:_ZN2FX11FXGLContext6handleEPNS_8FXObjectEjPv
libFOX-1.6.so.0:_ZN2FX11FXGLContext7destroyEv
libFOX-1.6.so.0:_ZN2FX11FXGLContextC1EPNS_5FXAppEPNS_10FXGLVisualE
libFOX-1.6.so.0:_ZN2FX11FXGLContextC1EPNS_5FXAppEPNS_10FXGLVisualEPS0_
libFOX-1.6.so.0:_ZN2FX11FXGLContextC2EPNS_5FXAppEPNS_10FXGLVisualE
libFOX-1.6.so.0:_ZN2FX11FXGLContextC2EPNS_5FXAppEPNS_10FXGLVisualEPS0_
libFOX-1.6.so.0:_ZN2FX11FXGLContextD0Ev
libFOX-1.6.so.0:_ZN2FX11FXGLContextD1Ev
libFOX-1.6.so.0:_ZN2FX11FXGLContextD2Ev
libFOX-1.6.so.0:_ZN2FX11FXGUISignal11manufactureEv
libFOX-1.6.so.0:_ZN2FX11FXGUISignal6handleEPNS_8FXObjectEjPv
libFOX-1.6.so.0:_ZN2FX11FXGUISignal6signalEv
libFOX-1.6.so.0:_ZN2FX11FXGUISignal8onSignalEPNS_8FXObjectEjPv
libFOX-1.6.so.0:_ZN2FX11FXGUISignalC1EPNS_5FXAppEPNS_8FXObjectEjPv
libFOX-1.6.so.0:_ZN2FX11FXGUISignalC1Ev
libFOX-1.6.so.0:_ZN2FX11FXGUISignalC2EPNS_5FXAppEPNS_8FXObjectEjPv
libFOX-1.6.so.0:_ZN2FX11FXGUISignalC2Ev
libFOX-1.6.so.0:_ZN2FX11FXGUISignalD0Ev
libFOX-1.6.so.0:_ZN2FX11FXGUISignalD1Ev
libFOX-1.6.so.0:_ZN2FX11FXGUISignalD2Ev
libFOX-1.6.so.0:_ZN2FX11FXImageView11manufactureEv
libFOX-1.6.so.0:_ZN2FX11FXImageView12setAlignmentEj
libFOX-1.6.so.0:_ZN2FX11FXImageView15getContentWidthEv
libFOX-1.6.so.0:_ZN2FX11FXImageView15onRightBtnPressEPNS_8FXObjectEjPv
libFOX-1.6.so.0:_ZN2FX11FXImageView16getContentHeightEv
libFOX-1.6.so.0:_ZN2FX11FXImageView17onRightBtnReleaseEPNS_8FXObjectEjPv
libFOX-1.6.so.0:_ZN2FX11FXImageView4loadERNS_8FXStreamE
libFOX-1.6.so.0:_ZN2FX11FXImageView6createEv
libFOX-1.6.so.0:_ZN2FX11FXImageView6detachEv
libFOX-1.6.so.0:_ZN2FX11FXImageView6handleEPNS_8FXObjectEjPv
libFOX-1.6.so.0:_ZN2FX11FXImageView6layoutEv
libFOX-1.6.so.0:_ZN2FX11FXImageView7onPaintEPNS_8FXObjectEjPv
libFOX-1.6.so.0:_ZN2FX11FXImageView8onMotionEPNS_8FXObjectEjPv
libFOX-1.6.so.0:_ZN2FX11FXImageView8setImageEPNS_7FXImageE
libFOX-1.6.so.0:_ZN2FX11FXImageViewC1EPNS_11FXCompositeEPNS_7FXImageEPNS_8FXObjectEjjiiii
libFOX-1.6.so.0:_ZN2FX11FXImageViewC1Ev
libFOX-1.6.so.0:_ZN2FX11FXImageViewC2EPNS_11FXCompositeEPNS_7FXImageEPNS_8FXObjectEjjiiii
libFOX-1.6.so.0:_ZN2FX11FXImageViewC2Ev
libFOX-1.6.so.0:_ZN2FX11FXImageViewD0Ev
libFOX-1.6.so.0:_ZN2FX11FXImageViewD1Ev
libFOX-1.6.so.0:_ZN2FX11FXImageViewD2Ev
libFOX-1.6.so.0:_ZN2FX11FXMDIClient10horizontalEh
libFOX-1.6.so.0:_ZN2FX11FXMDIClient10onUpdCloseEPNS_8FXObjectEjPv
libFOX-1.6.so.0:_ZN2FX11FXMDIClient11manufactureEv
libFOX-1.6.so.0:_ZN2FX11FXMDIClient12onCmdCascadeEPNS_8FXObjectEjPv
libFOX-1.6.so.0:_ZN2FX11FXMDIClient12onUpdCascadeEPNS_8FXObjectEjPv
libFOX-1.6.so.0:_ZN2FX11FXMDIClient12onUpdRestoreEPNS_8FXObjectEjPv
libFOX-1.6.so.0:_ZN2FX11FXMDIClient13forallWindowsEPNS_8FXObjectEjPv
libFOX-1.6.so.0:_ZN2FX11FXMDIClient13onUpdMaximizeEPNS_8FXObjectEjPv
libFOX-1.6.so.0:_ZN2FX11FXMDIClient13onUpdMinimizeEPNS_8FXObjectEjPv
libFOX-1.6.so.0:_ZN2FX11FXMDIClient14onUpdMenuCloseEPNS_8FXObjectEjPv
libFOX-1.6.so.0:_ZN2FX11FXMDIClient14setActiveChildEPNS_10FXMDIChildEh
libFOX-1.6.so.0:_ZN2FX11FXMDIClient15forallDocumentsEPNS_8FXObjectEjPv
libFOX-1.6.so.0:_ZN2FX11FXMDIClient15getDefaultWidthEv
libFOX-1.6.so.0:_ZN2FX11FXMDIClient15onUpdAnyWindowsEPNS_8FXObjectEjPv
libFOX-1.6.so.0:_ZN2FX11FXMDIClient15onUpdMenuWindowEPNS_8FXObjectEjPv
libFOX-1.6.so.0:_ZN2FX11FXMDIClient16forallDocWindowsEPNS_8FXObjectES2_jPv
libFOX-1.6.so.0:_ZN2FX11FXMDIClient16getDefaultHeightEv
libFOX-1.6.so.0:_ZN2FX11FXMDIClient16onUpdMenuRestoreEPNS_8FXObjectEjPv
libFOX-1.6.so.0:_ZN2FX11FXMDIClient17onCmdActivateNextEPNS_8FXObjectEjPv
libFOX-1.6.so.0:_ZN2FX11FXMDIClient17onCmdActivatePrevEPNS_8FXObjectEjPv
libFOX-1.6.so.0:_ZN2FX11FXMDIClient17onCmdTileVerticalEPNS_8FXObjectEjPv
libFOX-1.6.so.0:_ZN2FX11FXMDIClient17onCmdWindowSelectEPNS_8FXObjectEjPv
libFOX-1.6.so.0:_ZN2FX11FXMDIClient17onUpdActivateNextEPNS_8FXObjectEjPv
libFOX-1.6.so.0:_ZN2FX11FXMDIClient17onUpdActivatePrevEPNS_8FXObjectEjPv
libFOX-1.6.so.0:_ZN2FX11FXMDIClient17onUpdMenuMinimizeEPNS_8FXObjectEjPv
libFOX-1.6.so.0:_ZN2FX11FXMDIClient17onUpdTileVerticalEPNS_8FXObjectEjPv
libFOX-1.6.so.0:_ZN2FX11FXMDIClient17onUpdWindowSelectEPNS_8FXObjectEjPv
libFOX-1.6.so.0:_ZN2FX11FXMDIClient18onCmdOthersWindowsEPNS_8FXObjectEjPv
libFOX-1.6.so.0:_ZN2FX11FXMDIClient18onUpdOthersWindowsEPNS_8FXObjectEjPv
libFOX-1.6.so.0:_ZN2FX11FXMDIClient19onCmdTileHorizontalEPNS_8FXObjectEjPv
libFOX-1.6.so.0:_ZN2FX11FXMDIClient19onUpdTileHorizontalEPNS_8FXObjectEjPv
libFOX-1.6.so.0:_ZN2FX11FXMDIClient4loadERNS_8FXStreamE
libFOX-1.6.so.0:_ZN2FX11FXMDIClient6handleEPNS_8FXObjectEjPv
libFOX-1.6.so.0:_ZN2FX11FXMDIClient6layoutEv
libFOX-1.6.so.0:_ZN2FX11FXMDIClient7cascadeEh
libFOX-1.6.so.0:_ZN2FX11FXMDIClient8verticalEh
libFOX-1.6.so.0:_ZN2FX11FXMDIClient9onDefaultEPNS_8FXObjectEjPv
libFOX-1.6.so.0:_ZN2FX11FXMDIClientC1EPNS_11FXCompositeEjiiii
libFOX-1.6.so.0:_ZN2FX11FXMDIClientC1Ev
libFOX-1.6.so.0:_ZN2FX11FXMDIClientC2EPNS_11FXCompositeEjiiii
libFOX-1.6.so.0:_ZN2FX11FXMDIClientC2Ev
libFOX-1.6.so.0:_ZN2FX11FXMDIClientD0Ev
libFOX-1.6.so.0:_ZN2FX11FXMDIClientD1Ev
libFOX-1.6.so.0:_ZN2FX11FXMDIClientD2Ev
libFOX-1.6.so.0:_ZN2FX11FXMenuCheck10onCmdAccelEPNS_8FXObjectEjPv
libFOX-1.6.so.0:_ZN2FX11FXMenuCheck10onKeyPressEPNS_8FXObjectEjPv
libFOX-1.6.so.0:_ZN2FX11FXMenuCheck11manufactureEv
libFOX-1.6.so.0:_ZN2FX11FXMenuCheck11setBoxColorEj
libFOX-1.6.so.0:_ZN2FX11FXMenuCheck12onKeyReleaseEPNS_8FXObjectEjPv
libFOX-1.6.so.0:_ZN2FX11FXMenuCheck13onButtonPressEPNS_8FXObjectEjPv
libFOX-1.6.so.0:_ZN2FX11FXMenuCheck13onCmdSetValueEPNS_8FXObjectEjPv
libFOX-1.6.so.0:_ZN2FX11FXMenuCheck13onHotKeyPressEPNS_8FXObjectEjPv
libFOX-1.6.so.0:_ZN2FX11FXMenuCheck15getDefaultWidthEv
libFOX-1.6.so.0:_ZN2FX11FXMenuCheck15onButtonReleaseEPNS_8FXObjectEjPv
libFOX-1.6.so.0:_ZN2FX11FXMenuCheck15onHotKeyReleaseEPNS_8FXObjectEjPv
libFOX-1.6.so.0:_ZN2FX11FXMenuCheck16getDefaultHeightEv
libFOX-1.6.so.0:_ZN2FX11FXMenuCheck16onCmdGetIntValueEPNS_8FXObjectEjPv
libFOX-1.6.so.0:_ZN2FX11FXMenuCheck16onCmdSetIntValueEPNS_8FXObjectEjPv
libFOX-1.6.so.0:_ZN2FX11FXMenuCheck4loadERNS_8FXStreamE
libFOX-1.6.so.0:_ZN2FX11FXMenuCheck6handleEPNS_8FXObjectEjPv
libFOX-1.6.so.0:_ZN2FX11FXMenuCheck7onCheckEPNS_8FXObjectEjPv
libFOX-1.6.so.0:_ZN2FX11FXMenuCheck7onPaintEPNS_8FXObjectEjPv
libFOX-1.6.so.0:_ZN2FX11FXMenuCheck8setCheckEh
libFOX-1.6.so.0:_ZN2FX11FXMenuCheck9onUncheckEPNS_8FXObjectEjPv
libFOX-1.6.so.0:_ZN2FX11FXMenuCheck9onUnknownEPNS_8FXObjectEjPv
libFOX-1.6.so.0:_ZN2FX11FXMenuCheckC1EPNS_11FXCompositeERKNS_8FXStringEPNS_8FXObjectEjj
libFOX-1.6.so.0:_ZN2FX11FXMenuCheckC1Ev
libFOX-1.6.so.0:_ZN2FX11FXMenuCheckC2EPNS_11FXCompositeERKNS_8FXStringEPNS_8FXObjectEjj
libFOX-1.6.so.0:_ZN2FX11FXMenuCheckC2Ev
libFOX-1.6.so.0:_ZN2FX11FXMenuRadio10onCmdAccelEPNS_8FXObjectEjPv
libFOX-1.6.so.0:_ZN2FX11FXMenuRadio10onKeyPressEPNS_8FXObjectEjPv
libFOX-1.6.so.0:_ZN2FX11FXMenuRadio11manufactureEv
libFOX-1.6.so.0:_ZN2FX11FXMenuRadio12onKeyReleaseEPNS_8FXObjectEjPv
libFOX-1.6.so.0:_ZN2FX11FXMenuRadio13onButtonPressEPNS_8FXObjectEjPv
libFOX-1.6.so.0:_ZN2FX11FXMenuRadio13onCmdSetValueEPNS_8FXObjectEjPv
libFOX-1.6.so.0:_ZN2FX11FXMenuRadio13onHotKeyPressEPNS_8FXObjectEjPv
libFOX-1.6.so.0:_ZN2FX11FXMenuRadio13setRadioColorEj
libFOX-1.6.so.0:_ZN2FX11FXMenuRadio15getDefaultWidthEv
libFOX-1.6.so.0:_ZN2FX11FXMenuRadio15onButtonReleaseEPNS_8FXObjectEjPv
libFOX-1.6.so.0:_ZN2FX11FXMenuRadio15onHotKeyReleaseEPNS_8FXObjectEjPv
libFOX-1.6.so.0:_ZN2FX11FXMenuRadio16getDefaultHeightEv
libFOX-1.6.so.0:_ZN2FX11FXMenuRadio16onCmdGetIntValueEPNS_8FXObjectEjPv
libFOX-1.6.so.0:_ZN2FX11FXMenuRadio16onCmdSetIntValueEPNS_8FXObjectEjPv
libFOX-1.6.so.0:_ZN2FX11FXMenuRadio4loadERNS_8FXStreamE
libFOX-1.6.so.0:_ZN2FX11FXMenuRadio6handleEPNS_8FXObjectEjPv
libFOX-1.6.so.0:_ZN2FX11FXMenuRadio7onCheckEPNS_8FXObjectEjPv
libFOX-1.6.so.0:_ZN2FX11FXMenuRadio7onPaintEPNS_8FXObjectEjPv
libFOX-1.6.so.0:_ZN2FX11FXMenuRadio8setCheckEh
libFOX-1.6.so.0:_ZN2FX11FXMenuRadio9onUncheckEPNS_8FXObjectEjPv
libFOX-1.6.so.0:_ZN2FX11FXMenuRadio9onUnknownEPNS_8FXObjectEjPv
libFOX-1.6.so.0:_ZN2FX11FXMenuRadioC1EPNS_11FXCompositeERKNS_8FXStringEPNS_8FXObjectEjj
libFOX-1.6.so.0:_ZN2FX11FXMenuRadioC1Ev
libFOX-1.6.so.0:_ZN2FX11FXMenuRadioC2EPNS_11FXCompositeERKNS_8FXStringEPNS_8FXObjectEjj
libFOX-1.6.so.0:_ZN2FX11FXMenuRadioC2Ev
libFOX-1.6.so.0:_ZN2FX11FXMenuTitle10onFocusOutEPNS_8FXObjectEjPv
libFOX-1.6.so.0:_ZN2FX11FXMenuTitle10onKeyPressEPNS_8FXObjectEjPv
libFOX-1.6.so.0:_ZN2FX11FXMenuTitle11manufactureEv
libFOX-1.6.so.0:_ZN2FX11FXMenuTitle11onCmdUnpostEPNS_8FXObjectEjPv
libFOX-1.6.so.0:_ZN2FX11FXMenuTitle11onFocusDownEPNS_8FXObjectEjPv
libFOX-1.6.so.0:_ZN2FX11FXMenuTitle12onKeyReleaseEPNS_8FXObjectEjPv
libFOX-1.6.so.0:_ZN2FX11FXMenuTitle13onHotKeyPressEPNS_8FXObjectEjPv
libFOX-1.6.so.0:_ZN2FX11FXMenuTitle14onLeftBtnPressEPNS_8FXObjectEjPv
libFOX-1.6.so.0:_ZN2FX11FXMenuTitle15getDefaultWidthEv
libFOX-1.6.so.0:_ZN2FX11FXMenuTitle15onHotKeyReleaseEPNS_8FXObjectEjPv
libFOX-1.6.so.0:_ZN2FX11FXMenuTitle16getDefaultHeightEv
libFOX-1.6.so.0:_ZN2FX11FXMenuTitle16onLeftBtnReleaseEPNS_8FXObjectEjPv
libFOX-1.6.so.0:_ZN2FX11FXMenuTitle4loadERNS_8FXStreamE
libFOX-1.6.so.0:_ZN2FX11FXMenuTitle6createEv
libFOX-1.6.so.0:_ZN2FX11FXMenuTitle6detachEv
libFOX-1.6.so.0:_ZN2FX11FXMenuTitle6handleEPNS_8FXObjectEjPv
libFOX-1.6.so.0:_ZN2FX11FXMenuTitle7onEnterEPNS_8FXObjectEjPv
libFOX-1.6.so.0:_ZN2FX11FXMenuTitle7onLeaveEPNS_8FXObjectEjPv
libFOX-1.6.so.0:_ZN2FX11FXMenuTitle7onPaintEPNS_8FXObjectEjPv
libFOX-1.6.so.0:_ZN2FX11FXMenuTitle7setMenuEPNS_7FXPopupE
libFOX-1.6.so.0:_ZN2FX11FXMenuTitle8setFocusEv
libFOX-1.6.so.0:_ZN2FX11FXMenuTitle9killFocusEv
libFOX-1.6.so.0:_ZN2FX11FXMenuTitle9onCmdPostEPNS_8FXObjectEjPv
libFOX-1.6.so.0:_ZN2FX11FXMenuTitle9onFocusInEPNS_8FXObjectEjPv
libFOX-1.6.so.0:_ZN2FX11FXMenuTitle9onFocusUpEPNS_8FXObjectEjPv
libFOX-1.6.so.0:_ZN2FX11FXMenuTitleC1EPNS_11FXCompositeERKNS_8FXStringEPNS_6FXIconEPNS_7FXPopupEj
libFOX-1.6.so.0:_ZN2FX11FXMenuTitleC2EPNS_11FXCompositeERKNS_8FXStringEPNS_6FXIconEPNS_7FXPopupEj
libFOX-1.6.so.0:_ZN2FX11FXMenuTitleD0Ev
libFOX-1.6.so.0:_ZN2FX11FXMenuTitleD1Ev
libFOX-1.6.so.0:_ZN2FX11FXMenuTitleD2Ev
libFOX-1.6.so.0:_ZN2FX11FXMetaClass20getMetaClassFromNameEPKc
libFOX-1.6.so.0:_ZN2FX11FXMetaClass6resizeEj
libFOX-1.6.so.0:_ZN2FX11FXMetaClassC1EPKcPFPNS_8FXObjectEvEPKS0_PKvjj
libFOX-1.6.so.0:_ZN2FX11FXMetaClassC2EPKcPFPNS_8FXObjectEvEPKS0_PKvjj
libFOX-1.6.so.0:_ZN2FX11FXMetaClassD1Ev
libFOX-1.6.so.0:_ZN2FX11FXMetaClassD2Ev
libFOX-1.6.so.0:_ZN2FX11FXRectangle4growEs
libFOX-1.6.so.0:_ZN2FX11FXRectangle4growEss
libFOX-1.6.so.0:_ZN2FX11FXRectangle4growEssss
libFOX-1.6.so.0:_ZN2FX11FXRectangle6shrinkEs
libFOX-1.6.so.0:_ZN2FX11FXRectangle6shrinkEss
libFOX-1.6.so.0:_ZN2FX11FXRectangle6shrinkEssss
libFOX-1.6.so.0:_ZN2FX11FXRectanglemLERKS0_
libFOX-1.6.so.0:_ZN2FX11FXRectanglepLERKS0_
libFOX-1.6.so.0:_ZN2FX11FXRulerView10onQueryTipEPNS_8FXObjectEjPv
libFOX-1.6.so.0:_ZN2FX11FXRulerView11manufactureEv
libFOX-1.6.so.0:_ZN2FX11FXRulerView11onCmdGetTipEPNS_8FXObjectEjPv
libFOX-1.6.so.0:_ZN2FX11FXRulerView11onCmdSetTipEPNS_8FXObjectEjPv
libFOX-1.6.so.0:_ZN2FX11FXRulerView11onQueryHelpEPNS_8FXObjectEjPv
libFOX-1.6.so.0:_ZN2FX11FXRulerView12drawContentsERNS_10FXDCWindowE
libFOX-1.6.so.0:_ZN2FX11FXRulerView12moveContentsEii
libFOX-1.6.so.0:_ZN2FX11FXRulerView12onCmdGetHelpEPNS_8FXObjectEjPv
libFOX-1.6.so.0:_ZN2FX11FXRulerView12onCmdSetHelpEPNS_8FXObjectEjPv
libFOX-1.6.so.0:_ZN2FX11FXRulerView12onDocChangedEPNS_8FXObjectEjPv
libFOX-1.6.so.0:_ZN2FX11FXRulerView12setArrowPosXEi
libFOX-1.6.so.0:_ZN2FX11FXRulerView12setArrowPosYEi
libFOX-1.6.so.0:_ZN2FX11FXRulerView13setHAlignmentEjh
libFOX-1.6.so.0:_ZN2FX11FXRulerView13setHRulerFontEPNS_6FXFontEh
libFOX-1.6.so.0:_ZN2FX11FXRulerView13setHTinyTicksEih
libFOX-1.6.so.0:_ZN2FX11FXRulerView13setVAlignmentEjh
libFOX-1.6.so.0:_ZN2FX11FXRulerView13setVRulerFontEPNS_6FXFontEh
libFOX-1.6.so.0:_ZN2FX11FXRulerView13setVTinyTicksEih
libFOX-1.6.so.0:_ZN2FX11FXRulerView14drawBackgroundERNS_10FXDCWindowE
libFOX-1.6.so.0:_ZN2FX11FXRulerView14setHMajorTicksEih
libFOX-1.6.so.0:_ZN2FX11FXRulerView14setHRulerStyleEj
libFOX-1.6.so.0:_ZN2FX11FXRulerView14setVMajorTicksEih
libFOX-1.6.so.0:_ZN2FX11FXRulerView14setVRulerStyleEj
libFOX-1.6.so.0:_ZN2FX11FXRulerView15getContentWidthEv
libFOX-1.6.so.0:_ZN2FX11FXRulerView15setHEdgeSpacingEih
libFOX-1.6.so.0:_ZN2FX11FXRulerView15setHMarginLowerEih
libFOX-1.6.so.0:_ZN2FX11FXRulerView15setHMarginUpperEih
libFOX-1.6.so.0:_ZN2FX11FXRulerView15setHMediumTicksEih
libFOX-1.6.so.0:_ZN2FX11FXRulerView15setHNumberTicksEih
libFOX-1.6.so.0:_ZN2FX11FXRulerView15setVEdgeSpacingEih
libFOX-1.6.so.0:_ZN2FX11FXRulerView15setVMarginLowerEih
libFOX-1.6.so.0:_ZN2FX11FXRulerView15setVMarginUpperEih
libFOX-1.6.so.0:_ZN2FX11FXRulerView15setVMediumTicksEih
libFOX-1.6.so.0:_ZN2FX11FXRulerView15setVNumberTicksEih
libFOX-1.6.so.0:_ZN2FX11FXRulerView16getContentHeightEv
libFOX-1.6.so.0:_ZN2FX11FXRulerView16getViewportWidthEv
libFOX-1.6.so.0:_ZN2FX11FXRulerView16setDocumentColorEj
libFOX-1.6.so.0:_ZN2FX11FXRulerView16setDocumentWidthEih
libFOX-1.6.so.0:_ZN2FX11FXRulerView16setHPixelPerTickEdh
libFOX-1.6.so.0:_ZN2FX11FXRulerView16setVPixelPerTickEdh
libFOX-1.6.so.0:_ZN2FX11FXRulerView17getViewportHeightEv
libFOX-1.6.so.0:_ZN2FX11FXRulerView17setDocumentHeightEih
libFOX-1.6.so.0:_ZN2FX11FXRulerView4loadERNS_8FXStreamE
libFOX-1.6.so.0:_ZN2FX11FXRulerView6handleEPNS_8FXObjectEjPv
libFOX-1.6.so.0:_ZN2FX11FXRulerView6layoutEv
libFOX-1.6.so.0:_ZN2FX11FXRulerView7onPaintEPNS_8FXObjectEjPv
libFOX-1.6.so.0:_ZN2FX11FXRulerView8onMotionEPNS_8FXObjectEjPv
libFOX-1.6.so.0:_ZN2FX11FXRulerViewC1EPNS_11FXCompositeEPNS_8FXObjectEjjiiii
libFOX-1.6.so.0:_ZN2FX11FXRulerViewC1Ev
libFOX-1.6.so.0:_ZN2FX11FXRulerViewC2EPNS_11FXCompositeEPNS_8FXObjectEjjiiii
libFOX-1.6.so.0:_ZN2FX11FXRulerViewC2Ev
libFOX-1.6.so.0:_ZN2FX11FXRulerViewD0Ev
libFOX-1.6.so.0:_ZN2FX11FXRulerViewD1Ev
libFOX-1.6.so.0:_ZN2FX11FXRulerViewD2Ev
libFOX-1.6.so.0:_ZN2FX11FXScrollBar10drawButtonERNS_10FXDCWindowEiiiih
libFOX-1.6.so.0:_ZN2FX11FXScrollBar10setBarSizeEi
libFOX-1.6.so.0:_ZN2FX11FXScrollBar11drawUpArrowERNS_10FXDCWindowEiiiih
libFOX-1.6.so.0:_ZN2FX11FXScrollBar11manufactureEv
libFOX-1.6.so.0:_ZN2FX11FXScrollBar11onTimeWheelEPNS_8FXObjectEjPv
libFOX-1.6.so.0:_ZN2FX11FXScrollBar11onUngrabbedEPNS_8FXObjectEjPv
libFOX-1.6.so.0:_ZN2FX11FXScrollBar11setPositionEi
libFOX-1.6.so.0:_ZN2FX11FXScrollBar12onAutoScrollEPNS_8FXObjectEjPv
libFOX-1.6.so.0:_ZN2FX11FXScrollBar12onMouseWheelEPNS_8FXObjectEjPv
libFOX-1.6.so.0:_ZN2FX11FXScrollBar13drawDownArrowERNS_10FXDCWindowEiiiih
libFOX-1.6.so.0:_ZN2FX11FXScrollBar13drawLeftArrowERNS_10FXDCWindowEiiiih
libFOX-1.6.so.0:_ZN2FX11FXScrollBar13onCmdSetValueEPNS_8FXObjectEjPv
libFOX-1.6.so.0:_ZN2FX11FXScrollBar13setArrowColorEj
libFOX-1.6.so.0:_ZN2FX11FXScrollBar14drawRightArrowERNS_10FXDCWindowEiiiih
libFOX-1.6.so.0:_ZN2FX11FXScrollBar14onLeftBtnPressEPNS_8FXObjectEjPv
libFOX-1.6.so.0:_ZN2FX11FXScrollBar14setBorderColorEj
libFOX-1.6.so.0:_ZN2FX11FXScrollBar14setHiliteColorEj
libFOX-1.6.so.0:_ZN2FX11FXScrollBar14setShadowColorEj
libFOX-1.6.so.0:_ZN2FX11FXScrollBar15getDefaultWidthEv
libFOX-1.6.so.0:_ZN2FX11FXScrollBar15onRightBtnPressEPNS_8FXObjectEjPv
libFOX-1.6.so.0:_ZN2FX11FXScrollBar16getDefaultHeightEv
libFOX-1.6.so.0:_ZN2FX11FXScrollBar16onCmdGetIntRangeEPNS_8FXObjectEjPv
libFOX-1.6.so.0:_ZN2FX11FXScrollBar16onCmdGetIntValueEPNS_8FXObjectEjPv
libFOX-1.6.so.0:_ZN2FX11FXScrollBar16onCmdSetIntRangeEPNS_8FXObjectEjPv
libFOX-1.6.so.0:_ZN2FX11FXScrollBar16onCmdSetIntValueEPNS_8FXObjectEjPv
libFOX-1.6.so.0:_ZN2FX11FXScrollBar16onLeftBtnReleaseEPNS_8FXObjectEjPv
libFOX-1.6.so.0:_ZN2FX11FXScrollBar16onMiddleBtnPressEPNS_8FXObjectEjPv
libFOX-1.6.so.0:_ZN2FX11FXScrollBar17onRightBtnReleaseEPNS_8FXObjectEjPv
libFOX-1.6.so.0:_ZN2FX11FXScrollBar17setScrollBarStyleEj
libFOX-1.6.so.0:_ZN2FX11FXScrollBar18onMiddleBtnReleaseEPNS_8FXObjectEjPv
libFOX-1.6.so.0:_ZN2FX11FXScrollBar4loadERNS_8FXStreamE
libFOX-1.6.so.0:_ZN2FX11FXScrollBar6handleEPNS_8FXObjectEjPv
libFOX-1.6.so.0:_ZN2FX11FXScrollBar6layoutEv
libFOX-1.6.so.0:_ZN2FX11FXScrollBar7onPaintEPNS_8FXObjectEjPv
libFOX-1.6.so.0:_ZN2FX11FXScrollBar7setLineEi
libFOX-1.6.so.0:_ZN2FX11FXScrollBar7setPageEi
libFOX-1.6.so.0:_ZN2FX11FXScrollBar8onMotionEPNS_8FXObjectEjPv
libFOX-1.6.so.0:_ZN2FX11FXScrollBar8setRangeEi
libFOX-1.6.so.0:_ZN2FX11FXScrollBarC1EPNS_11FXCompositeEPNS_8FXObjectEjjiiii
libFOX-1.6.so.0:_ZN2FX11FXScrollBarC1Ev
libFOX-1.6.so.0:_ZN2FX11FXScrollBarC2EPNS_11FXCompositeEPNS_8FXObjectEjjiiii
libFOX-1.6.so.0:_ZN2FX11FXScrollBarC2Ev
libFOX-1.6.so.0:_ZN2FX11FXScrollBarD0Ev
libFOX-1.6.so.0:_ZN2FX11FXScrollBarD1Ev
libFOX-1.6.so.0:_ZN2FX11FXScrollBarD2Ev
libFOX-1.6.so.0:_ZN2FX11FXSemaphore4postEv
libFOX-1.6.so.0:_ZN2FX11FXSemaphore4waitEv
libFOX-1.6.so.0:_ZN2FX11FXSemaphore7trywaitEv
libFOX-1.6.so.0:_ZN2FX11FXSemaphoreC1Ei
libFOX-1.6.so.0:_ZN2FX11FXSemaphoreC2Ei
libFOX-1.6.so.0:_ZN2FX11FXSemaphoreD1Ev
libFOX-1.6.so.0:_ZN2FX11FXSemaphoreD2Ev
libFOX-1.6.so.0:_ZN2FX11FXSeparator11manufactureEv
libFOX-1.6.so.0:_ZN2FX11FXSeparator15getDefaultWidthEv
libFOX-1.6.so.0:_ZN2FX11FXSeparator16getDefaultHeightEv
libFOX-1.6.so.0:_ZN2FX11FXSeparator17setSeparatorStyleEj
libFOX-1.6.so.0:_ZN2FX11FXSeparator6handleEPNS_8FXObjectEjPv
libFOX-1.6.so.0:_ZN2FX11FXSeparator7onPaintEPNS_8FXObjectEjPv
libFOX-1.6.so.0:_ZN2FX11FXSeparatorC1EPNS_11FXCompositeEjiiiiiiii
libFOX-1.6.so.0:_ZN2FX11FXSeparatorC2EPNS_11FXCompositeEjiiiiiiii
libFOX-1.6.so.0:_ZN2FX11FXStatusBar11manufactureEv
libFOX-1.6.so.0:_ZN2FX11FXStatusBar14setCornerStyleEh
libFOX-1.6.so.0:_ZN2FX11FXStatusBar15getDefaultWidthEv
libFOX-1.6.so.0:_ZN2FX11FXStatusBar16getDefaultHeightEv
libFOX-1.6.so.0:_ZN2FX11FXStatusBar4loadERNS_8FXStreamE
libFOX-1.6.so.0:_ZN2FX11FXStatusBar6handleEPNS_8FXObjectEjPv
libFOX-1.6.so.0:_ZN2FX11FXStatusBar6layoutEv
libFOX-1.6.so.0:_ZN2FX11FXStatusBarC1EPNS_11FXCompositeEjiiiiiiiiii
libFOX-1.6.so.0:_ZN2FX11FXStatusBarC2EPNS_11FXCompositeEjiiiiiiiiii
libFOX-1.6.so.0:_ZN2FX11FXStatusBarD0Ev
libFOX-1.6.so.0:_ZN2FX11FXStatusBarD1Ev
libFOX-1.6.so.0:_ZN2FX11FXStatusBarD2Ev
libFOX-1.6.so.0:_ZN2FX11FXStringValEdii
libFOX-1.6.so.0:_ZN2FX11FXStringValEfii
libFOX-1.6.so.0:_ZN2FX11FXStringValEii
libFOX-1.6.so.0:_ZN2FX11FXStringValEji
libFOX-1.6.so.0:_ZN2FX11FXStringValEli
libFOX-1.6.so.0:_ZN2FX11FXStringValEmi
libFOX-1.6.so.0:_ZN2FX11FXTableItem10setBordersEj
libFOX-1.6.so.0:_ZN2FX11FXTableItem10setEnabledEh
libFOX-1.6.so.0:_ZN2FX11FXTableItem10setJustifyEj
libFOX-1.6.so.0:_ZN2FX11FXTableItem10setStippleENS_16FXStipplePatternE
libFOX-1.6.so.0:_ZN2FX11FXTableItem11manufactureEv
libFOX-1.6.so.0:_ZN2FX11FXTableItem11setSelectedEh
libFOX-1.6.so.0:_ZN2FX11FXTableItem12setDraggableEh
libFOX-1.6.so.0:_ZN2FX11FXTableItem13getControlForEPNS_7FXTableE
libFOX-1.6.so.0:_ZN2FX11FXTableItem14setFromControlEPNS_8FXWindowE
libFOX-1.6.so.0:_ZN2FX11FXTableItem15setIconPositionEj
libFOX-1.6.so.0:_ZN2FX11FXTableItem4loadERNS_8FXStreamE
libFOX-1.6.so.0:_ZN2FX11FXTableItem6createEv
libFOX-1.6.so.0:_ZN2FX11FXTableItem6detachEv
libFOX-1.6.so.0:_ZN2FX11FXTableItem6handleEPNS_8FXObjectEjPv
libFOX-1.6.so.0:_ZN2FX11FXTableItem7destroyEv
libFOX-1.6.so.0:_ZN2FX11FXTableItem7setIconEPNS_6FXIconEh
libFOX-1.6.so.0:_ZN2FX11FXTableItem7setTextERKNS_8FXStringE
libFOX-1.6.so.0:_ZN2FX11FXTableItem8setFocusEh
libFOX-1.6.so.0:_ZN2FX11FXTableItemD0Ev
libFOX-1.6.so.0:_ZN2FX11FXTableItemD1Ev
libFOX-1.6.so.0:_ZN2FX11FXTableItemD2Ev
libFOX-1.6.so.0:_ZN2FX11FXTextCodec6handleEPNS_8FXObjectEjPv
libFOX-1.6.so.0:_ZN2FX11FXTextCodec6utf2wcERwPKci
libFOX-1.6.so.0:_ZN2FX11FXTextCodec6utf2wcERwPKti
libFOX-1.6.so.0:_ZN2FX11FXTextCodec6utf2wcERwPKwi
libFOX-1.6.so.0:_ZN2FX11FXTextCodec6wc2utfEPciw
libFOX-1.6.so.0:_ZN2FX11FXTextCodec6wc2utfEPtiw
libFOX-1.6.so.0:_ZN2FX11FXTextCodec6wc2utfEPwiw
libFOX-1.6.so.0:_ZN2FX11FXTextField10drawCursorEj
libFOX-1.6.so.0:_ZN2FX11FXTextField10onFocusOutEPNS_8FXObjectEjPv
libFOX-1.6.so.0:_ZN2FX11FXTextField10onKeyPressEPNS_8FXObjectEjPv
libFOX-1.6.so.0:_ZN2FX11FXTextField10onQueryTipEPNS_8FXObjectEjPv
libFOX-1.6.so.0:_ZN2FX11FXTextField10setJustifyEj
libFOX-1.6.so.0:_ZN2FX11FXTextField11manufactureEv
libFOX-1.6.so.0:_ZN2FX11FXTextField11onCmdCutSelEPNS_8FXObjectEjPv
libFOX-1.6.so.0:_ZN2FX11FXTextField11onCmdDeleteEPNS_8FXObjectEjPv
libFOX-1.6.so.0:_ZN2FX11FXTextField11onCmdExtendEPNS_8FXObjectEjPv
libFOX-1.6.so.0:_ZN2FX11FXTextField11onCmdGetTipEPNS_8FXObjectEjPv
libFOX-1.6.so.0:_ZN2FX11FXTextField11onCmdSetTipEPNS_8FXObjectEjPv
libFOX-1.6.so.0:_ZN2FX11FXTextField11onFocusSelfEPNS_8FXObjectEjPv
libFOX-1.6.so.0:_ZN2FX11FXTextField11onQueryHelpEPNS_8FXObjectEjPv
libFOX-1.6.so.0:_ZN2FX11FXTextField11setEditableEh
libFOX-1.6.so.0:_ZN2FX11FXTextField12onAutoScrollEPNS_8FXObjectEjPv
libFOX-1.6.so.0:_ZN2FX11FXTextField12onCmdCopySelEPNS_8FXObjectEjPv
libFOX-1.6.so.0:_ZN2FX11FXTextField12onCmdGetHelpEPNS_8FXObjectEjPv
libFOX-1.6.so.0:_ZN2FX11FXTextField12onCmdSetHelpEPNS_8FXObjectEjPv
libFOX-1.6.so.0:_ZN2FX11FXTextField12onKeyReleaseEPNS_8FXObjectEjPv
libFOX-1.6.so.0:_ZN2FX11FXTextField12setAnchorPosEi
libFOX-1.6.so.0:_ZN2FX11FXTextField12setCursorPosEi
libFOX-1.6.so.0:_ZN2FX11FXTextField12setSelectionEii
libFOX-1.6.so.0:_ZN2FX11FXTextField12setTextColorEj
libFOX-1.6.so.0:_ZN2FX11FXTextField12setTextStyleEj
libFOX-1.6.so.0:_ZN2FX11FXTextField13drawTextRangeERNS_10FXDCWindowEii
libFOX-1.6.so.0:_ZN2FX11FXTextField13killSelectionEv
libFOX-1.6.so.0:_ZN2FX11FXTextField13onCmdPasteSelEPNS_8FXObjectEjPv
libFOX-1.6.so.0:_ZN2FX11FXTextField13onCmdSetValueEPNS_8FXObjectEjPv
libFOX-1.6.so.0:_ZN2FX11FXTextField13setNumColumnsEi
libFOX-1.6.so.0:_ZN2FX11FXTextField13setOverstrikeEh
libFOX-1.6.so.0:_ZN2FX11FXTextField14onCmdBackspaceEPNS_8FXObjectEjPv
libFOX-1.6.so.0:_ZN2FX11FXTextField14onCmdCursorEndEPNS_8FXObjectEjPv
libFOX-1.6.so.0:_ZN2FX11FXTextField14onCmdDeleteAllEPNS_8FXObjectEjPv
libFOX-1.6.so.0:_ZN2FX11FXTextField14onCmdDeleteSelEPNS_8FXObjectEjPv
libFOX-1.6.so.0:_ZN2FX11FXTextField14onCmdSelectAllEPNS_8FXObjectEjPv
libFOX-1.6.so.0:_ZN2FX11FXTextField14onLeftBtnPressEPNS_8FXObjectEjPv
libFOX-1.6.so.0:_ZN2FX11FXTextField14onUpdSelectAllEPNS_8FXObjectEjPv
libFOX-1.6.so.0:_ZN2FX11FXTextField14setCursorColorEj
libFOX-1.6.so.0:_ZN2FX11FXTextField15extendSelectionEi
libFOX-1.6.so.0:_ZN2FX11FXTextField15getDefaultWidthEv
libFOX-1.6.so.0:_ZN2FX11FXTextField15onClipboardLostEPNS_8FXObjectEjPv
libFOX-1.6.so.0:_ZN2FX11FXTextField15onCmdCursorHomeEPNS_8FXObjectEjPv
libFOX-1.6.so.0:_ZN2FX11FXTextField15onCmdCursorLeftEPNS_8FXObjectEjPv
libFOX-1.6.so.0:_ZN2FX11FXTextField15onSelectionLostEPNS_8FXObjectEjPv
libFOX-1.6.so.0:_ZN2FX11FXTextField15setSelBackColorEj
libFOX-1.6.so.0:_ZN2FX11FXTextField15setSelTextColorEj
libFOX-1.6.so.0:_ZN2FX11FXTextField16drawTextFragmentERNS_10FXDCWindowEiiii
libFOX-1.6.so.0:_ZN2FX11FXTextField16getDefaultHeightEv
libFOX-1.6.so.0:_ZN2FX11FXTextField16onCmdCursorRightEPNS_8FXObjectEjPv
libFOX-1.6.so.0:_ZN2FX11FXTextField16onCmdDeselectAllEPNS_8FXObjectEjPv
libFOX-1.6.so.0:_ZN2FX11FXTextField16onCmdGetIntValueEPNS_8FXObjectEjPv
libFOX-1.6.so.0:_ZN2FX11FXTextField16onCmdPasteMiddleEPNS_8FXObjectEjPv
libFOX-1.6.so.0:_ZN2FX11FXTextField16onCmdSetIntValueEPNS_8FXObjectEjPv
libFOX-1.6.so.0:_ZN2FX11FXTextField16onLeftBtnReleaseEPNS_8FXObjectEjPv
libFOX-1.6.so.0:_ZN2FX11FXTextField16onMiddleBtnPressEPNS_8FXObjectEjPv
libFOX-1.6.so.0:_ZN2FX11FXTextField17onClipboardGainedEPNS_8FXObjectEjPv
libFOX-1.6.so.0:_ZN2FX11FXTextField17onCmdGetRealValueEPNS_8FXObjectEjPv
libFOX-1.6.so.0:_ZN2FX11FXTextField17onCmdInsertStringEPNS_8FXObjectEjPv
libFOX-1.6.so.0:_ZN2FX11FXTextField17onCmdOverstStringEPNS_8FXObjectEjPv
libFOX-1.6.so.0:_ZN2FX11FXTextField17onCmdSetRealValueEPNS_8FXObjectEjPv
libFOX-1.6.so.0:_ZN2FX11FXTextField17onSelectionGainedEPNS_8FXObjectEjPv
libFOX-1.6.so.0:_ZN2FX11FXTextField18onClipboardRequestEPNS_8FXObjectEjPv
libFOX-1.6.so.0:_ZN2FX11FXTextField18onCmdCursorWordEndEPNS_8FXObjectEjPv
libFOX-1.6.so.0:_ZN2FX11FXTextField18onMiddleBtnReleaseEPNS_8FXObjectEjPv
libFOX-1.6.so.0:_ZN2FX11FXTextField18onSelectionRequestEPNS_8FXObjectEjPv
libFOX-1.6.so.0:_ZN2FX11FXTextField18onUpdHaveSelectionEPNS_8FXObjectEjPv
libFOX-1.6.so.0:_ZN2FX11FXTextField19drawPWDTextFragmentERNS_10FXDCWindowEiiii
libFOX-1.6.so.0:_ZN2FX11FXTextField19makePositionVisibleEi
libFOX-1.6.so.0:_ZN2FX11FXTextField19onCmdCursorWordLeftEPNS_8FXObjectEjPv
libFOX-1.6.so.0:_ZN2FX11FXTextField19onCmdGetStringValueEPNS_8FXObjectEjPv
libFOX-1.6.so.0:_ZN2FX11FXTextField19onCmdSetStringValueEPNS_8FXObjectEjPv
libFOX-1.6.so.0:_ZN2FX11FXTextField19onCmdToggleEditableEPNS_8FXObjectEjPv
libFOX-1.6.so.0:_ZN2FX11FXTextField19onUpdToggleEditableEPNS_8FXObjectEjPv
libFOX-1.6.so.0:_ZN2FX11FXTextField20onCmdCursorWordRightEPNS_8FXObjectEjPv
libFOX-1.6.so.0:_ZN2FX11FXTextField20onCmdCursorWordStartEPNS_8FXObjectEjPv
libFOX-1.6.so.0:_ZN2FX11FXTextField21onCmdToggleOverstrikeEPNS_8FXObjectEjPv
libFOX-1.6.so.0:_ZN2FX11FXTextField21onUpdToggleOverstrikeEPNS_8FXObjectEjPv
libFOX-1.6.so.0:_ZN2FX11FXTextField4loadERNS_8FXStreamE
libFOX-1.6.so.0:_ZN2FX11FXTextField6createEv
libFOX-1.6.so.0:_ZN2FX11FXTextField6enableEv
libFOX-1.6.so.0:_ZN2FX11FXTextField6handleEPNS_8FXObjectEjPv
libFOX-1.6.so.0:_ZN2FX11FXTextField6layoutEv
libFOX-1.6.so.0:_ZN2FX11FXTextField7disableEv
libFOX-1.6.so.0:_ZN2FX11FXTextField7onBlinkEPNS_8FXObjectEjPv
libFOX-1.6.so.0:_ZN2FX11FXTextField7onPaintEPNS_8FXObjectEjPv
libFOX-1.6.so.0:_ZN2FX11FXTextField7setFontEPNS_6FXFontE
libFOX-1.6.so.0:_ZN2FX11FXTextField7setTextERKNS_8FXStringEh
libFOX-1.6.so.0:_ZN2FX11FXTextField8onMotionEPNS_8FXObjectEjPv
libFOX-1.6.so.0:_ZN2FX11FXTextField8onUpdateEPNS_8FXObjectEjPv
libFOX-1.6.so.0:_ZN2FX11FXTextField8onVerifyEPNS_8FXObjectEjPv
libFOX-1.6.so.0:_ZN2FX11FXTextField8setFocusEv
libFOX-1.6.so.0:_ZN2FX11FXTextField9killFocusEv
libFOX-1.6.so.0:_ZN2FX11FXTextField9onCmdMarkEPNS_8FXObjectEjPv
libFOX-1.6.so.0:_ZN2FX11FXTextField9onFocusInEPNS_8FXObjectEjPv
libFOX-1.6.so.0:_ZN2FX11FXTextField9selectAllEv
libFOX-1.6.so.0:_ZN2FX11FXTextFieldC1EPNS_11FXCompositeEiPNS_8FXObjectEjjiiiiiiii
libFOX-1.6.so.0:_ZN2FX11FXTextFieldC1Ev
libFOX-1.6.so.0:_ZN2FX11FXTextFieldC2EPNS_11FXCompositeEiPNS_8FXObjectEjjiiiiiiii
libFOX-1.6.so.0:_ZN2FX11FXTextFieldC2Ev
libFOX-1.6.so.0:_ZN2FX11FXTextFieldD0Ev
libFOX-1.6.so.0:_ZN2FX11FXTextFieldD1Ev
libFOX-1.6.so.0:_ZN2FX11FXTextFieldD2Ev
libFOX-1.6.so.0:_ZN2FX11FXTopWindow10onCmdCloseEPNS_8FXObjectEjPv
libFOX-1.6.so.0:_ZN2FX11FXTopWindow10setPadLeftEi
libFOX-1.6.so.0:_ZN2FX11FXTopWindow11onFocusDownEPNS_8FXObjectEjPv
libFOX-1.6.so.0:_ZN2FX11FXTopWindow11onFocusLeftEPNS_8FXObjectEjPv
libFOX-1.6.so.0:_ZN2FX11FXTopWindow11setHSpacingEi
libFOX-1.6.so.0:_ZN2FX11FXTopWindow11setMiniIconEPNS_6FXIconE
libFOX-1.6.so.0:_ZN2FX11FXTopWindow11setPadRightEi
libFOX-1.6.so.0:_ZN2FX11FXTopWindow11setVSpacingEi
libFOX-1.6.so.0:_ZN2FX11FXTopWindow12getWMBordersERiS1_S1_S1_
libFOX-1.6.so.0:_ZN2FX11FXTopWindow12onCmdRestoreEPNS_8FXObjectEjPv
libFOX-1.6.so.0:_ZN2FX11FXTopWindow12onFocusRightEPNS_8FXObjectEjPv
libFOX-1.6.so.0:_ZN2FX11FXTopWindow12setPadBottomEi
libFOX-1.6.so.0:_ZN2FX11FXTopWindow13onCmdMaximizeEPNS_8FXObjectEjPv
libFOX-1.6.so.0:_ZN2FX11FXTopWindow13onCmdMinimizeEPNS_8FXObjectEjPv
libFOX-1.6.so.0:_ZN2FX11FXTopWindow14setDecorationsEj
libFOX-1.6.so.0:_ZN2FX11FXTopWindow14setdecorationsEv
libFOX-1.6.so.0:_ZN2FX11FXTopWindow15getDefaultWidthEv
libFOX-1.6.so.0:_ZN2FX11FXTopWindow15onSessionClosedEPNS_8FXObjectEjPv
libFOX-1.6.so.0:_ZN2FX11FXTopWindow15onSessionNotifyEPNS_8FXObjectEjPv
libFOX-1.6.so.0:_ZN2FX11FXTopWindow15setPackingHintsEj
libFOX-1.6.so.0:_ZN2FX11FXTopWindow16getDefaultHeightEv
libFOX-1.6.so.0:_ZN2FX11FXTopWindow17onCmdGetIconValueEPNS_8FXObjectEjPv
libFOX-1.6.so.0:_ZN2FX11FXTopWindow17onCmdSetIconValueEPNS_8FXObjectEjPv
libFOX-1.6.so.0:_ZN2FX11FXTopWindow19onCmdGetStringValueEPNS_8FXObjectEjPv
libFOX-1.6.so.0:_ZN2FX11FXTopWindow19onCmdSetStringValueEPNS_8FXObjectEjPv
libFOX-1.6.so.0:_ZN2FX11FXTopWindow4hideEv
libFOX-1.6.so.0:_ZN2FX11FXTopWindow4loadERNS_8FXStreamE
libFOX-1.6.so.0:_ZN2FX11FXTopWindow4moveEii
libFOX-1.6.so.0:_ZN2FX11FXTopWindow4showEj
libFOX-1.6.so.0:_ZN2FX11FXTopWindow4showEv
libFOX-1.6.so.0:_ZN2FX11FXTopWindow5closeEh
libFOX-1.6.so.0:_ZN2FX11FXTopWindow5placeEj
libFOX-1.6.so.0:_ZN2FX11FXTopWindow5raiseEv
libFOX-1.6.so.0:_ZN2FX11FXTopWindow6createEv
libFOX-1.6.so.0:_ZN2FX11FXTopWindow6detachEv
libFOX-1.6.so.0:_ZN2FX11FXTopWindow6handleEPNS_8FXObjectEjPv
libFOX-1.6.so.0:_ZN2FX11FXTopWindow6layoutEv
libFOX-1.6.so.0:_ZN2FX11FXTopWindow6resizeEii
libFOX-1.6.so.0:_ZN2FX11FXTopWindow7destroyEv
libFOX-1.6.so.0:_ZN2FX11FXTopWindow7restoreEh
libFOX-1.6.so.0:_ZN2FX11FXTopWindow7setIconEPNS_6FXIconE
libFOX-1.6.so.0:_ZN2FX11FXTopWindow8maximizeEh
libFOX-1.6.so.0:_ZN2FX11FXTopWindow8minimizeEh
libFOX-1.6.so.0:_ZN2FX11FXTopWindow8positionEiiii
libFOX-1.6.so.0:_ZN2FX11FXTopWindow8setFocusEv
libFOX-1.6.so.0:_ZN2FX11FXTopWindow8setTitleERKNS_8FXStringE
libFOX-1.6.so.0:_ZN2FX11FXTopWindow8seticonsEv
libFOX-1.6.so.0:_ZN2FX11FXTopWindow8settitleEv
libFOX-1.6.so.0:_ZN2FX11FXTopWindow9killFocusEv
libFOX-1.6.so.0:_ZN2FX11FXTopWindow9onFocusUpEPNS_8FXObjectEjPv
libFOX-1.6.so.0:_ZN2FX11FXTopWindow9setPadTopEi
libFOX-1.6.so.0:_ZN2FX11FXTopWindowC1EPNS_5FXAppERKNS_8FXStringEPNS_6FXIconES7_jiiiiiiiiii
libFOX-1.6.so.0:_ZN2FX11FXTopWindowC1EPNS_8FXWindowERKNS_8FXStringEPNS_6FXIconES7_jiiiiiiiiii
libFOX-1.6.so.0:_ZN2FX11FXTopWindowC1Ev
libFOX-1.6.so.0:_ZN2FX11FXTopWindowC2EPNS_5FXAppERKNS_8FXStringEPNS_6FXIconES7_jiiiiiiiiii
libFOX-1.6.so.0:_ZN2FX11FXTopWindowC2EPNS_8FXWindowERKNS_8FXStringEPNS_6FXIconES7_jiiiiiiiiii
libFOX-1.6.so.0:_ZN2FX11FXTopWindowC2Ev
libFOX-1.6.so.0:_ZN2FX11FXTopWindowD0Ev
libFOX-1.6.so.0:_ZN2FX11FXTopWindowD1Ev
libFOX-1.6.so.0:_ZN2FX11FXTopWindowD2Ev
libFOX-1.6.so.0:_ZN2FX11comparecaseEPKcRKNS_8FXStringE
libFOX-1.6.so.0:_ZN2FX11comparecaseEPKcRKNS_8FXStringEi
libFOX-1.6.so.0:_ZN2FX11comparecaseEPKcS1_
libFOX-1.6.so.0:_ZN2FX11comparecaseEPKcS1_i
libFOX-1.6.so.0:_ZN2FX11comparecaseERKNS_8FXStringEPKc
libFOX-1.6.so.0:_ZN2FX11comparecaseERKNS_8FXStringEPKci
libFOX-1.6.so.0:_ZN2FX11comparecaseERKNS_8FXStringES2_
libFOX-1.6.so.0:_ZN2FX11comparecaseERKNS_8FXStringES2_i
libFOX-1.6.so.0:_ZN2FX11fxdllSymbolEPvPKc
libFOX-1.6.so.0:_ZN2FX11fxfilematchEPKcS1_j
libFOX-1.6.so.0:_ZN2FX11fxisconsoleEPKc
libFOX-1.6.so.0:_ZN2FX11fxrecvtypesEP9_XDisplaymmRPmRjh
libFOX-1.6.so.0:_ZN2FX11fxsendreplyEP9_XDisplaymmmmj
libFOX-1.6.so.0:_ZN2FX11fxsendtypesEP9_XDisplaymmPmj
libFOX-1.6.so.0:_ZN2FX11glUseFXFontEPNS_6FXFontEiii
libFOX-1.6.so.0:_ZN2FX11parseHotKeyERKNS_8FXStringE
libFOX-1.6.so.0:_ZN2FX11stripHotKeyERKNS_8FXStringE
libFOX-1.6.so.0:_ZN2FX12FX88591Codec11manufactureEv
libFOX-1.6.so.0:_ZN2FX12FX88591Codec6handleEPNS_8FXObjectEjPv
libFOX-1.6.so.0:_ZN2FX12FX88592Codec11manufactureEv
libFOX-1.6.so.0:_ZN2FX12FX88592Codec6handleEPNS_8FXObjectEjPv
libFOX-1.6.so.0:_ZN2FX12FX88593Codec11manufactureEv
libFOX-1.6.so.0:_ZN2FX12FX88593Codec6handleEPNS_8FXObjectEjPv
libFOX-1.6.so.0:_ZN2FX12FX88594Codec11manufactureEv
libFOX-1.6.so.0:_ZN2FX12FX88594Codec6handleEPNS_8FXObjectEjPv
libFOX-1.6.so.0:_ZN2FX12FX88595Codec11manufactureEv
libFOX-1.6.so.0:_ZN2FX12FX88595Codec6handleEPNS_8FXObjectEjPv
libFOX-1.6.so.0:_ZN2FX12FX88596Codec11manufactureEv
libFOX-1.6.so.0:_ZN2FX12FX88596Codec6handleEPNS_8FXObjectEjPv
libFOX-1.6.so.0:_ZN2FX12FX88597Codec11manufactureEv
libFOX-1.6.so.0:_ZN2FX12FX88597Codec6handleEPNS_8FXObjectEjPv
libFOX-1.6.so.0:_ZN2FX12FX88598Codec11manufactureEv
libFOX-1.6.so.0:_ZN2FX12FX88598Codec6handleEPNS_8FXObjectEjPv
libFOX-1.6.so.0:_ZN2FX12FX88599Codec11manufactureEv
libFOX-1.6.so.0:_ZN2FX12FX88599Codec6handleEPNS_8FXObjectEjPv
libFOX-1.6.so.0:_ZN2FX12FXAccelTable10onKeyPressEPNS_8FXObjectEjPv
libFOX-1.6.so.0:_ZN2FX12FXAccelTable11manufactureEv
libFOX-1.6.so.0:_ZN2FX12FXAccelTable11removeAccelEj
libFOX-1.6.so.0:_ZN2FX12FXAccelTable12onKeyReleaseEPNS_8FXObjectEjPv
libFOX-1.6.so.0:_ZN2FX12FXAccelTable4loadERNS_8FXStreamE
libFOX-1.6.so.0:_ZN2FX12FXAccelTable6handleEPNS_8FXObjectEjPv
libFOX-1.6.so.0:_ZN2FX12FXAccelTable6resizeEj
libFOX-1.6.so.0:_ZN2FX12FXAccelTable8addAccelEjPNS_8FXObjectEjj
libFOX-1.6.so.0:_ZN2FX12FXAccelTableC1Ev
libFOX-1.6.so.0:_ZN2FX12FXAccelTableC2Ev
libFOX-1.6.so.0:_ZN2FX12FXAccelTableD0Ev
libFOX-1.6.so.0:_ZN2FX12FXAccelTableD1Ev
libFOX-1.6.so.0:_ZN2FX12FXAccelTableD2Ev
libFOX-1.6.so.0:_ZN2FX12FXBitmapView10setOnColorEj
libFOX-1.6.so.0:_ZN2FX12FXBitmapView11manufactureEv
libFOX-1.6.so.0:_ZN2FX12FXBitmapView11setOffColorEj
libFOX-1.6.so.0:_ZN2FX12FXBitmapView12setAlignmentEj
libFOX-1.6.so.0:_ZN2FX12FXBitmapView15getContentWidthEv
libFOX-1.6.so.0:_ZN2FX12FXBitmapView15onRightBtnPressEPNS_8FXObjectEjPv
libFOX-1.6.so.0:_ZN2FX12FXBitmapView16getContentHeightEv
libFOX-1.6.so.0:_ZN2FX12FXBitmapView17onRightBtnReleaseEPNS_8FXObjectEjPv
libFOX-1.6.so.0:_ZN2FX12FXBitmapView4loadERNS_8FXStreamE
libFOX-1.6.so.0:_ZN2FX12FXBitmapView6createEv
libFOX-1.6.so.0:_ZN2FX12FXBitmapView6detachEv
libFOX-1.6.so.0:_ZN2FX12FXBitmapView6handleEPNS_8FXObjectEjPv
libFOX-1.6.so.0:_ZN2FX12FXBitmapView6layoutEv
libFOX-1.6.so.0:_ZN2FX12FXBitmapView7onPaintEPNS_8FXObjectEjPv
libFOX-1.6.so.0:_ZN2FX12FXBitmapView8onMotionEPNS_8FXObjectEjPv
libFOX-1.6.so.0:_ZN2FX12FXBitmapView9setBitmapEPNS_8FXBitmapE
libFOX-1.6.so.0:_ZN2FX12FXBitmapViewC1EPNS_11FXCompositeEPNS_8FXBitmapEPNS_8FXObjectEjjiiii
libFOX-1.6.so.0:_ZN2FX12FXBitmapViewC1Ev
libFOX-1.6.so.0:_ZN2FX12FXBitmapViewC2EPNS_11FXCompositeEPNS_8FXBitmapEPNS_8FXObjectEjjiiii
libFOX-1.6.so.0:_ZN2FX12FXBitmapViewC2Ev
libFOX-1.6.so.0:_ZN2FX12FXBitmapViewD0Ev
libFOX-1.6.so.0:_ZN2FX12FXBitmapViewD1Ev
libFOX-1.6.so.0:_ZN2FX12FXBitmapViewD2Ev
libFOX-1.6.so.0:_ZN2FX12FXCP437Codec11manufactureEv
libFOX-1.6.so.0:_ZN2FX12FXCP437Codec6handleEPNS_8FXObjectEjPv
libFOX-1.6.so.0:_ZN2FX12FXCP850Codec11manufactureEv
libFOX-1.6.so.0:_ZN2FX12FXCP850Codec6handleEPNS_8FXObjectEjPv
libFOX-1.6.so.0:_ZN2FX12FXCP852Codec11manufactureEv
libFOX-1.6.so.0:_ZN2FX12FXCP852Codec6handleEPNS_8FXObjectEjPv
libFOX-1.6.so.0:_ZN2FX12FXCP855Codec11manufactureEv
libFOX-1.6.so.0:_ZN2FX12FXCP855Codec6handleEPNS_8FXObjectEjPv
libFOX-1.6.so.0:_ZN2FX12FXCP856Codec11manufactureEv
libFOX-1.6.so.0:_ZN2FX12FXCP856Codec6handleEPNS_8FXObjectEjPv
libFOX-1.6.so.0:_ZN2FX12FXCP857Codec11manufactureEv
libFOX-1.6.so.0:_ZN2FX12FXCP857Codec6handleEPNS_8FXObjectEjPv
libFOX-1.6.so.0:_ZN2FX12FXCP860Codec11manufactureEv
libFOX-1.6.so.0:_ZN2FX12FXCP860Codec6handleEPNS_8FXObjectEjPv
libFOX-1.6.so.0:_ZN2FX12FXCP861Codec11manufactureEv
libFOX-1.6.so.0:_ZN2FX12FXCP861Codec6handleEPNS_8FXObjectEjPv
libFOX-1.6.so.0:_ZN2FX12FXCP862Codec11manufactureEv
libFOX-1.6.so.0:_ZN2FX12FXCP862Codec6handleEPNS_8FXObjectEjPv
libFOX-1.6.so.0:_ZN2FX12FXCP863Codec11manufactureEv
libFOX-1.6.so.0:_ZN2FX12FXCP863Codec6handleEPNS_8FXObjectEjPv
libFOX-1.6.so.0:_ZN2FX12FXCP864Codec11manufactureEv
libFOX-1.6.so.0:_ZN2FX12FXCP864Codec6handleEPNS_8FXObjectEjPv
libFOX-1.6.so.0:_ZN2FX12FXCP865Codec11manufactureEv
libFOX-1.6.so.0:_ZN2FX12FXCP865Codec6handleEPNS_8FXObjectEjPv
libFOX-1.6.so.0:_ZN2FX12FXCP866Codec11manufactureEv
libFOX-1.6.so.0:_ZN2FX12FXCP866Codec6handleEPNS_8FXObjectEjPv
libFOX-1.6.so.0:_ZN2FX12FXCP869Codec11manufactureEv
libFOX-1.6.so.0:_ZN2FX12FXCP869Codec6handleEPNS_8FXObjectEjPv
libFOX-1.6.so.0:_ZN2FX12FXCP874Codec11manufactureEv
libFOX-1.6.so.0:_ZN2FX12FXCP874Codec6handleEPNS_8FXObjectEjPv
libFOX-1.6.so.0:_ZN2FX12FXColorWheel10onQueryTipEPNS_8FXObjectEjPv
libFOX-1.6.so.0:_ZN2FX12FXColorWheel10updatedialEv
libFOX-1.6.so.0:_ZN2FX12FXColorWheel11manufactureEv
libFOX-1.6.so.0:_ZN2FX12FXColorWheel11onCmdGetTipEPNS_8FXObjectEjPv
libFOX-1.6.so.0:_ZN2FX12FXColorWheel11onCmdSetTipEPNS_8FXObjectEjPv
libFOX-1.6.so.0:_ZN2FX12FXColorWheel11onQueryHelpEPNS_8FXObjectEjPv
libFOX-1.6.so.0:_ZN2FX12FXColorWheel12onCmdGetHelpEPNS_8FXObjectEjPv
libFOX-1.6.so.0:_ZN2FX12FXColorWheel12onCmdSetHelpEPNS_8FXObjectEjPv
libFOX-1.6.so.0:_ZN2FX12FXColorWheel12onMouseWheelEPNS_8FXObjectEjPv
libFOX-1.6.so.0:_ZN2FX12FXColorWheel12setHueSatValEfff
libFOX-1.6.so.0:_ZN2FX12FXColorWheel14onLeftBtnPressEPNS_8FXObjectEjPv
libFOX-1.6.so.0:_ZN2FX12FXColorWheel15getDefaultWidthEv
libFOX-1.6.so.0:_ZN2FX12FXColorWheel16getDefaultHeightEv
libFOX-1.6.so.0:_ZN2FX12FXColorWheel16onLeftBtnReleaseEPNS_8FXObjectEjPv
libFOX-1.6.so.0:_ZN2FX12FXColorWheel4loadERNS_8FXStreamE
libFOX-1.6.so.0:_ZN2FX12FXColorWheel6createEv
libFOX-1.6.so.0:_ZN2FX12FXColorWheel6detachEv
libFOX-1.6.so.0:_ZN2FX12FXColorWheel6handleEPNS_8FXObjectEjPv
libFOX-1.6.so.0:_ZN2FX12FXColorWheel6layoutEv
libFOX-1.6.so.0:_ZN2FX12FXColorWheel6setHueEf
libFOX-1.6.so.0:_ZN2FX12FXColorWheel6setSatEf
libFOX-1.6.so.0:_ZN2FX12FXColorWheel6setValEf
libFOX-1.6.so.0:_ZN2FX12FXColorWheel7onPaintEPNS_8FXObjectEjPv
libFOX-1.6.so.0:_ZN2FX12FXColorWheel8movespotEii
libFOX-1.6.so.0:_ZN2FX12FXColorWheel8onMotionEPNS_8FXObjectEjPv
libFOX-1.6.so.0:_ZN2FX12FXColorWheelC1EPNS_11FXCompositeEPNS_8FXObjectEjjiiiiiiii
libFOX-1.6.so.0:_ZN2FX12FXColorWheelC1Ev
libFOX-1.6.so.0:_ZN2FX12FXColorWheelC2EPNS_11FXCompositeEPNS_8FXObjectEjjiiiiiiii
libFOX-1.6.so.0:_ZN2FX12FXColorWheelC2Ev
libFOX-1.6.so.0:_ZN2FX12FXColorWheelD0Ev
libFOX-1.6.so.0:_ZN2FX12FXColorWheelD1Ev
libFOX-1.6.so.0:_ZN2FX12FXColorWheelD2Ev
libFOX-1.6.so.0:_ZN2FX12FXDataTarget10onCmdValueEPNS_8FXObjectEjPv
libFOX-1.6.so.0:_ZN2FX12FXDataTarget10onUpdValueEPNS_8FXObjectEjPv
libFOX-1.6.so.0:_ZN2FX12FXDataTarget11manufactureEv
libFOX-1.6.so.0:_ZN2FX12FXDataTarget11onCmdOptionEPNS_8FXObjectEjPv
libFOX-1.6.so.0:_ZN2FX12FXDataTarget11onUpdOptionEPNS_8FXObjectEjPv
libFOX-1.6.so.0:_ZN2FX12FXDataTarget6handleEPNS_8FXObjectEjPv
libFOX-1.6.so.0:_ZN2FX12FXDataTargetD0Ev
libFOX-1.6.so.0:_ZN2FX12FXDataTargetD1Ev
libFOX-1.6.so.0:_ZN2FX12FXDataTargetD2Ev
libFOX-1.6.so.0:_ZN2FX12FXDragCorner11manufactureEv
libFOX-1.6.so.0:_ZN2FX12FXDragCorner14onLeftBtnPressEPNS_8FXObjectEjPv
libFOX-1.6.so.0:_ZN2FX12FXDragCorner14setHiliteColorEj
libFOX-1.6.so.0:_ZN2FX12FXDragCorner14setShadowColorEj
libFOX-1.6.so.0:_ZN2FX12FXDragCorner15getDefaultWidthEv
libFOX-1.6.so.0:_ZN2FX12FXDragCorner16getDefaultHeightEv
libFOX-1.6.so.0:_ZN2FX12FXDragCorner16onLeftBtnReleaseEPNS_8FXObjectEjPv
libFOX-1.6.so.0:_ZN2FX12FXDragCorner4loadERNS_8FXStreamE
libFOX-1.6.so.0:_ZN2FX12FXDragCorner6createEv
libFOX-1.6.so.0:_ZN2FX12FXDragCorner6handleEPNS_8FXObjectEjPv
libFOX-1.6.so.0:_ZN2FX12FXDragCorner7onPaintEPNS_8FXObjectEjPv
libFOX-1.6.so.0:_ZN2FX12FXDragCorner8onMotionEPNS_8FXObjectEjPv
libFOX-1.6.so.0:_ZN2FX12FXDragCornerC1EPNS_11FXCompositeE
libFOX-1.6.so.0:_ZN2FX12FXDragCornerC1Ev
libFOX-1.6.so.0:_ZN2FX12FXDragCornerC2EPNS_11FXCompositeE
libFOX-1.6.so.0:_ZN2FX12FXDragCornerC2Ev
libFOX-1.6.so.0:_ZN2FX12FXExpression5parseEPKcS2_
libFOX-1.6.so.0:_ZN2FX12FXExpression5parseERKNS_8FXStringES3_
libFOX-1.6.so.0:_ZN2FX12FXExpression8evaluateEPKd
libFOX-1.6.so.0:_ZN2FX12FXExpressionC1EPKcS2_PNS_17FXExpressionErrorE
libFOX-1.6.so.0:_ZN2FX12FXExpressionC1ERKNS_8FXStringES3_PNS_17FXExpressionErrorE
libFOX-1.6.so.0:_ZN2FX12FXExpressionC1ERKS0_
libFOX-1.6.so.0:_ZN2FX12FXExpressionC1Ev
libFOX-1.6.so.0:_ZN2FX12FXExpressionC2EPKcS2_PNS_17FXExpressionErrorE
libFOX-1.6.so.0:_ZN2FX12FXExpressionC2ERKNS_8FXStringES3_PNS_17FXExpressionErrorE
libFOX-1.6.so.0:_ZN2FX12FXExpressionC2ERKS0_
libFOX-1.6.so.0:_ZN2FX12FXExpressionC2Ev
libFOX-1.6.so.0:_ZN2FX12FXExpressionD1Ev
libFOX-1.6.so.0:_ZN2FX12FXExpressionD2Ev
libFOX-1.6.so.0:_ZN2FX12FXExpressionaSERKS0_
libFOX-1.6.so.0:_ZN2FX12FXFileDialog10initdialogEv
libFOX-1.6.so.0:_ZN2FX12FXFileDialog10setPatternERKNS_8FXStringE
libFOX-1.6.so.0:_ZN2FX12FXFileDialog10showImagesEh
libFOX-1.6.so.0:_ZN2FX12FXFileDialog11manufactureEv
libFOX-1.6.so.0:_ZN2FX12FXFileDialog11setFilenameERKNS_8FXStringE
libFOX-1.6.so.0:_ZN2FX12FXFileDialog11setReadOnlyEh
libFOX-1.6.so.0:_ZN2FX12FXFileDialog12setDirectoryERKNS_8FXStringE
libFOX-1.6.so.0:_ZN2FX12FXFileDialog12setImageSizeEi
libFOX-1.6.so.0:_ZN2FX12FXFileDialog12setItemSpaceEi
libFOX-1.6.so.0:_ZN2FX12FXFileDialog12setMatchModeEj
libFOX-1.6.so.0:_ZN2FX12FXFileDialog12showReadOnlyEh
libFOX-1.6.so.0:_ZN2FX12FXFileDialog13setSelectModeEj
libFOX-1.6.so.0:_ZN2FX12FXFileDialog14setPatternListERKNS_8FXStringE
libFOX-1.6.so.0:_ZN2FX12FXFileDialog14setPatternTextEiRKNS_8FXStringE
libFOX-1.6.so.0:_ZN2FX12FXFileDialog15allowNavigationEh
libFOX-1.6.so.0:_ZN2FX12FXFileDialog15getOpenFilenameEPNS_8FXWindowERKNS_8FXStringES5_S5_i
libFOX-1.6.so.0:_ZN2FX12FXFileDialog15getSaveFilenameEPNS_8FXWindowERKNS_8FXStringES5_S5_i
libFOX-1.6.so.0:_ZN2FX12FXFileDialog15setFileBoxStyleEj
libFOX-1.6.so.0:_ZN2FX12FXFileDialog15showHiddenFilesEh
libFOX-1.6.so.0:_ZN2FX12FXFileDialog16getOpenDirectoryEPNS_8FXWindowERKNS_8FXStringES5_
libFOX-1.6.so.0:_ZN2FX12FXFileDialog16getOpenFilenamesEPNS_8FXWindowERKNS_8FXStringES5_S5_i
libFOX-1.6.so.0:_ZN2FX12FXFileDialog17allowPatternEntryEh
libFOX-1.6.so.0:_ZN2FX12FXFileDialog17setCurrentPatternEi
libFOX-1.6.so.0:_ZN2FX12FXFileDialog4hideEv
libFOX-1.6.so.0:_ZN2FX12FXFileDialog4loadERNS_8FXStreamE
libFOX-1.6.so.0:_ZN2FX12FXFileDialog6handleEPNS_8FXObjectEjPv
libFOX-1.6.so.0:_ZN2FX12FXFileDialogC1EPNS_5FXAppERKNS_8FXStringEjiiii
libFOX-1.6.so.0:_ZN2FX12FXFileDialogC1EPNS_8FXWindowERKNS_8FXStringEjiiii
libFOX-1.6.so.0:_ZN2FX12FXFileDialogC2EPNS_5FXAppERKNS_8FXStringEjiiii
libFOX-1.6.so.0:_ZN2FX12FXFileDialogC2EPNS_8FXWindowERKNS_8FXStringEjiiii
libFOX-1.6.so.0:_ZN2FX12FXFileDialogD0Ev
libFOX-1.6.so.0:_ZN2FX12FXFileDialogD1Ev
libFOX-1.6.so.0:_ZN2FX12FXFileDialogD2Ev
libFOX-1.6.so.0:_ZN2FX12FXFileStream10readBufferEm
libFOX-1.6.so.0:_ZN2FX12FXFileStream11writeBufferEm
libFOX-1.6.so.0:_ZN2FX12FXFileStream4openERKNS_8FXStringENS_17FXStreamDirectionEm
libFOX-1.6.so.0:_ZN2FX12FXFileStream5closeEv
libFOX-1.6.so.0:_ZN2FX12FXFileStream8positionElNS_8FXWhenceE
libFOX-1.6.so.0:_ZN2FX12FXFileStreamC1EPKNS_8FXObjectE
libFOX-1.6.so.0:_ZN2FX12FXFileStreamC2EPKNS_8FXObjectE
libFOX-1.6.so.0:_ZN2FX12FXFileStreamD0Ev
libFOX-1.6.so.0:_ZN2FX12FXFileStreamD1Ev
libFOX-1.6.so.0:_ZN2FX12FXFileStreamD2Ev
libFOX-1.6.so.0:_ZN2FX12FXFontDialog11manufactureEv
libFOX-1.6.so.0:_ZN2FX12FXFontDialog16setFontSelectionERKNS_10FXFontDescE
libFOX-1.6.so.0:_ZN2FX12FXFontDialog4loadERNS_8FXStreamE
libFOX-1.6.so.0:_ZN2FX12FXFontDialog6handleEPNS_8FXObjectEjPv
libFOX-1.6.so.0:_ZN2FX12FXFontDialogC1EPNS_8FXWindowERKNS_8FXStringEjiiii
libFOX-1.6.so.0:_ZN2FX12FXFontDialogC2EPNS_8FXWindowERKNS_8FXStringEjiiii
libFOX-1.6.so.0:_ZN2FX12FXFontDialogD0Ev
libFOX-1.6.so.0:_ZN2FX12FXFontDialogD1Ev
libFOX-1.6.so.0:_ZN2FX12FXFontDialogD2Ev
libFOX-1.6.so.0:_ZN2FX12FXGLCylinder11manufactureEv
libFOX-1.6.so.0:_ZN2FX12FXGLCylinder4copyEv
libFOX-1.6.so.0:_ZN2FX12FXGLCylinder4loadERNS_8FXStreamE
libFOX-1.6.so.0:_ZN2FX12FXGLCylinder6handleEPNS_8FXObjectEjPv
libFOX-1.6.so.0:_ZN2FX12FXGLCylinder9drawshapeEPNS_10FXGLViewerE
libFOX-1.6.so.0:_ZN2FX12FXGLCylinderC1ERKS0_
libFOX-1.6.so.0:_ZN2FX12FXGLCylinderC1Efffff
libFOX-1.6.so.0:_ZN2FX12FXGLCylinderC1EfffffRKNS_10FXMaterialE
libFOX-1.6.so.0:_ZN2FX12FXGLCylinderC1Ev
libFOX-1.6.so.0:_ZN2FX12FXGLCylinderC2ERKS0_
libFOX-1.6.so.0:_ZN2FX12FXGLCylinderC2Efffff
libFOX-1.6.so.0:_ZN2FX12FXGLCylinderC2EfffffRKNS_10FXMaterialE
libFOX-1.6.so.0:_ZN2FX12FXGLCylinderC2Ev
libFOX-1.6.so.0:_ZN2FX12FXGLCylinderD0Ev
libFOX-1.6.so.0:_ZN2FX12FXGLCylinderD1Ev
libFOX-1.6.so.0:_ZN2FX12FXGLCylinderD2Ev
libFOX-1.6.so.0:_ZN2FX12FXHeaderItem10setJustifyEj
libFOX-1.6.so.0:_ZN2FX12FXHeaderItem10setPressedEh
libFOX-1.6.so.0:_ZN2FX12FXHeaderItem11manufactureEv
libFOX-1.6.so.0:_ZN2FX12FXHeaderItem11setArrowDirEh
libFOX-1.6.so.0:_ZN2FX12FXHeaderItem15setIconPositionEj
libFOX-1.6.so.0:_ZN2FX12FXHeaderItem4drawEPKNS_8FXHeaderERNS_4FXDCEiiii
libFOX-1.6.so.0:_ZN2FX12FXHeaderItem4loadERNS_8FXStreamE
libFOX-1.6.so.0:_ZN2FX12FXHeaderItem6createEv
libFOX-1.6.so.0:_ZN2FX12FXHeaderItem6detachEv
libFOX-1.6.so.0:_ZN2FX12FXHeaderItem6handleEPNS_8FXObjectEjPv
libFOX-1.6.so.0:_ZN2FX12FXHeaderItem7destroyEv
libFOX-1.6.so.0:_ZN2FX12FXHeaderItem7setIconEPNS_6FXIconE
libFOX-1.6.so.0:_ZN2FX12FXHeaderItem7setTextERKNS_8FXStringE
libFOX-1.6.so.0:_ZN2FX12FXIconSource11manufactureEv
libFOX-1.6.so.0:_ZN2FX12FXIconSource4loadERNS_8FXStreamE
libFOX-1.6.so.0:_ZN2FX12FXIconSource6handleEPNS_8FXObjectEjPv
libFOX-1.6.so.0:_ZN2FX12FXIconSourceC1EPNS_5FXAppE
libFOX-1.6.so.0:_ZN2FX12FXIconSourceC2EPNS_5FXAppE
libFOX-1.6.so.0:_ZN2FX12FXIconSourceD0Ev
libFOX-1.6.so.0:_ZN2FX12FXIconSourceD1Ev
libFOX-1.6.so.0:_ZN2FX12FXIconSourceD2Ev
libFOX-1.6.so.0:_ZN2FX12FXImageFrame10setJustifyEj
libFOX-1.6.so.0:_ZN2FX12FXImageFrame11manufactureEv
libFOX-1.6.so.0:_ZN2FX12FXImageFrame15getDefaultWidthEv
libFOX-1.6.so.0:_ZN2FX12FXImageFrame16getDefaultHeightEv
libFOX-1.6.so.0:_ZN2FX12FXImageFrame4loadERNS_8FXStreamE
libFOX-1.6.so.0:_ZN2FX12FXImageFrame6createEv
libFOX-1.6.so.0:_ZN2FX12FXImageFrame6handleEPNS_8FXObjectEjPv
libFOX-1.6.so.0:_ZN2FX12FXImageFrame7onPaintEPNS_8FXObjectEjPv
libFOX-1.6.so.0:_ZN2FX12FXImageFrame8setImageEPNS_7FXImageE
libFOX-1.6.so.0:_ZN2FX12FXImageFrameC1EPNS_11FXCompositeEPNS_7FXImageEjiiiiiiii
libFOX-1.6.so.0:_ZN2FX12FXImageFrameC1Ev
libFOX-1.6.so.0:_ZN2FX12FXImageFrameC2EPNS_11FXCompositeEPNS_7FXImageEjiiiiiiii
libFOX-1.6.so.0:_ZN2FX12FXImageFrameC2Ev
libFOX-1.6.so.0:_ZN2FX12FXImageFrameD0Ev
libFOX-1.6.so.0:_ZN2FX12FXImageFrameD1Ev
libFOX-1.6.so.0:_ZN2FX12FXImageFrameD2Ev
libFOX-1.6.so.0:_ZN2FX12FXKOI8RCodec11manufactureEv
libFOX-1.6.so.0:_ZN2FX12FXKOI8RCodec6handleEPNS_8FXObjectEjPv
libFOX-1.6.so.0:_ZN2FX12FXMainWindow11manufactureEv
libFOX-1.6.so.0:_ZN2FX12FXMainWindow6createEv
libFOX-1.6.so.0:_ZN2FX12FXMainWindow6handleEPNS_8FXObjectEjPv
libFOX-1.6.so.0:_ZN2FX12FXMainWindowC1EPNS_5FXAppERKNS_8FXStringEPNS_6FXIconES7_jiiiiiiiiii
libFOX-1.6.so.0:_ZN2FX12FXMainWindowC2EPNS_5FXAppERKNS_8FXStringEPNS_6FXIconES7_jiiiiiiiiii
libFOX-1.6.so.0:_ZN2FX12FXMainWindowD0Ev
libFOX-1.6.so.0:_ZN2FX12FXMainWindowD1Ev
libFOX-1.6.so.0:_ZN2FX12FXMainWindowD2Ev
libFOX-1.6.so.0:_ZN2FX12FXMenuButton10onFocusOutEPNS_8FXObjectEjPv
libFOX-1.6.so.0:_ZN2FX12FXMenuButton10onKeyPressEPNS_8FXObjectEjPv
libFOX-1.6.so.0:_ZN2FX12FXMenuButton11manufactureEv
libFOX-1.6.so.0:_ZN2FX12FXMenuButton11onCmdUnpostEPNS_8FXObjectEjPv
libFOX-1.6.so.0:_ZN2FX12FXMenuButton11onUngrabbedEPNS_8FXObjectEjPv
libFOX-1.6.so.0:_ZN2FX12FXMenuButton12onKeyReleaseEPNS_8FXObjectEjPv
libFOX-1.6.so.0:_ZN2FX12FXMenuButton13onHotKeyPressEPNS_8FXObjectEjPv
libFOX-1.6.so.0:_ZN2FX12FXMenuButton13setAttachmentEj
libFOX-1.6.so.0:_ZN2FX12FXMenuButton13setPopupStyleEj
libFOX-1.6.so.0:_ZN2FX12FXMenuButton14onLeftBtnPressEPNS_8FXObjectEjPv
libFOX-1.6.so.0:_ZN2FX12FXMenuButton14setButtonStyleEj
libFOX-1.6.so.0:_ZN2FX12FXMenuButton15getDefaultWidthEv
libFOX-1.6.so.0:_ZN2FX12FXMenuButton15onHotKeyReleaseEPNS_8FXObjectEjPv
libFOX-1.6.so.0:_ZN2FX12FXMenuButton16getDefaultHeightEv
libFOX-1.6.so.0:_ZN2FX12FXMenuButton16onLeftBtnReleaseEPNS_8FXObjectEjPv
libFOX-1.6.so.0:_ZN2FX12FXMenuButton4loadERNS_8FXStreamE
libFOX-1.6.so.0:_ZN2FX12FXMenuButton6createEv
libFOX-1.6.so.0:_ZN2FX12FXMenuButton6detachEv
libFOX-1.6.so.0:_ZN2FX12FXMenuButton6handleEPNS_8FXObjectEjPv
libFOX-1.6.so.0:_ZN2FX12FXMenuButton7onEnterEPNS_8FXObjectEjPv
libFOX-1.6.so.0:_ZN2FX12FXMenuButton7onLeaveEPNS_8FXObjectEjPv
libFOX-1.6.so.0:_ZN2FX12FXMenuButton7onPaintEPNS_8FXObjectEjPv
libFOX-1.6.so.0:_ZN2FX12FXMenuButton7setMenuEPNS_7FXPopupE
libFOX-1.6.so.0:_ZN2FX12FXMenuButton8onMotionEPNS_8FXObjectEjPv
libFOX-1.6.so.0:_ZN2FX12FXMenuButton8onUpdateEPNS_8FXObjectEjPv
libFOX-1.6.so.0:_ZN2FX12FXMenuButton9killFocusEv
libFOX-1.6.so.0:_ZN2FX12FXMenuButton9onCmdPostEPNS_8FXObjectEjPv
libFOX-1.6.so.0:_ZN2FX12FXMenuButton9onFocusInEPNS_8FXObjectEjPv
libFOX-1.6.so.0:_ZN2FX12FXMenuButtonC1EPNS_11FXCompositeERKNS_8FXStringEPNS_6FXIconEPNS_7FXPopupEjiiiiiiii
libFOX-1.6.so.0:_ZN2FX12FXMenuButtonC1Ev
libFOX-1.6.so.0:_ZN2FX12FXMenuButtonC2EPNS_11FXCompositeERKNS_8FXStringEPNS_6FXIconEPNS_7FXPopupEjiiiiiiii
libFOX-1.6.so.0:_ZN2FX12FXMenuButtonC2Ev
libFOX-1.6.so.0:_ZN2FX12FXMenuButtonD0Ev
libFOX-1.6.so.0:_ZN2FX12FXMenuButtonD1Ev
libFOX-1.6.so.0:_ZN2FX12FXMenuButtonD2Ev
libFOX-1.6.so.0:_ZN2FX12FXMessageBox10initializeERKNS_8FXStringEPNS_6FXIconEj
libFOX-1.6.so.0:_ZN2FX12FXMessageBox11informationEPNS_5FXAppEjPKcS4_z
libFOX-1.6.so.0:_ZN2FX12FXMessageBox11informationEPNS_8FXWindowEjPKcS4_z
libFOX-1.6.so.0:_ZN2FX12FXMessageBox11manufactureEv
libFOX-1.6.so.0:_ZN2FX12FXMessageBox11onCmdCancelEPNS_8FXObjectEjPv
libFOX-1.6.so.0:_ZN2FX12FXMessageBox12onCmdClickedEPNS_8FXObjectEjPv
libFOX-1.6.so.0:_ZN2FX12FXMessageBox5errorEPNS_5FXAppEjPKcS4_z
libFOX-1.6.so.0:_ZN2FX12FXMessageBox5errorEPNS_8FXWindowEjPKcS4_z
libFOX-1.6.so.0:_ZN2FX12FXMessageBox6handleEPNS_8FXObjectEjPv
libFOX-1.6.so.0:_ZN2FX12FXMessageBox7warningEPNS_5FXAppEjPKcS4_z
libFOX-1.6.so.0:_ZN2FX12FXMessageBox7warningEPNS_8FXWindowEjPKcS4_z
libFOX-1.6.so.0:_ZN2FX12FXMessageBox8questionEPNS_5FXAppEjPKcS4_z
libFOX-1.6.so.0:_ZN2FX12FXMessageBox8questionEPNS_8FXWindowEjPKcS4_z
libFOX-1.6.so.0:_ZN2FX12FXMessageBoxC1EPNS_5FXAppERKNS_8FXStringES5_PNS_6FXIconEjii
libFOX-1.6.so.0:_ZN2FX12FXMessageBoxC1EPNS_8FXWindowERKNS_8FXStringES5_PNS_6FXIconEjii
libFOX-1.6.so.0:_ZN2FX12FXMessageBoxC2EPNS_5FXAppERKNS_8FXStringES5_PNS_6FXIconEjii
libFOX-1.6.so.0:_ZN2FX12FXMessageBoxC2EPNS_8FXWindowERKNS_8FXStringES5_PNS_6FXIconEjii
libFOX-1.6.so.0:_ZN2FX12FXObjectList2noEi
libFOX-1.6.so.0:_ZN2FX12FXObjectList4loadERNS_8FXStreamE
libFOX-1.6.so.0:_ZN2FX12FXObjectList5clearEv
libFOX-1.6.so.0:_ZN2FX12FXObjectList5eraseEi
libFOX-1.6.so.0:_ZN2FX12FXObjectList5eraseEii
libFOX-1.6.so.0:_ZN2FX12FXObjectList6appendEPNS_8FXObjectE
libFOX-1.6.so.0:_ZN2FX12FXObjectList6appendEPPNS_8FXObjectEi
libFOX-1.6.so.0:_ZN2FX12FXObjectList6appendERS0_
libFOX-1.6.so.0:_ZN2FX12FXObjectList6assignEPNS_8FXObjectE
libFOX-1.6.so.0:_ZN2FX12FXObjectList6assignEPPNS_8FXObjectEi
libFOX-1.6.so.0:_ZN2FX12FXObjectList6assignERS0_
libFOX-1.6.so.0:_ZN2FX12FXObjectList6insertEiPNS_8FXObjectE
libFOX-1.6.so.0:_ZN2FX12FXObjectList6insertEiPPNS_8FXObjectEi
libFOX-1.6.so.0:_ZN2FX12FXObjectList6insertEiRS0_
libFOX-1.6.so.0:_ZN2FX12FXObjectList6removeEPKNS_8FXObjectE
libFOX-1.6.so.0:_ZN2FX12FXObjectList7prependEPNS_8FXObjectE
libFOX-1.6.so.0:_ZN2FX12FXObjectList7prependEPPNS_8FXObjectEi
libFOX-1.6.so.0:_ZN2FX12FXObjectList7prependERS0_
libFOX-1.6.so.0:_ZN2FX12FXObjectList7replaceEiPNS_8FXObjectE
libFOX-1.6.so.0:_ZN2FX12FXObjectList7replaceEiiPPNS_8FXObjectEi
libFOX-1.6.so.0:_ZN2FX12FXObjectList7replaceEiiRS0_
libFOX-1.6.so.0:_ZN2FX12FXObjectListC1EPNS_8FXObjectE
libFOX-1.6.so.0:_ZN2FX12FXObjectListC1EPPNS_8FXObjectEi
libFOX-1.6.so.0:_ZN2FX12FXObjectListC1ERKS0_
libFOX-1.6.so.0:_ZN2FX12FXObjectListC1Ev
libFOX-1.6.so.0:_ZN2FX12FXObjectListC2EPNS_8FXObjectE
libFOX-1.6.so.0:_ZN2FX12FXObjectListC2EPPNS_8FXObjectEi
libFOX-1.6.so.0:_ZN2FX12FXObjectListC2ERKS0_
libFOX-1.6.so.0:_ZN2FX12FXObjectListC2Ev
libFOX-1.6.so.0:_ZN2FX12FXObjectListD0Ev
libFOX-1.6.so.0:_ZN2FX12FXObjectListD1Ev
libFOX-1.6.so.0:_ZN2FX12FXObjectListD2Ev
libFOX-1.6.so.0:_ZN2FX12FXObjectListaSERKS0_
libFOX-1.6.so.0:_ZN2FX12FXOptionMenu10onFocusOutEPNS_8FXObjectEjPv
libFOX-1.6.so.0:_ZN2FX12FXOptionMenu10onKeyPressEPNS_8FXObjectEjPv
libFOX-1.6.so.0:_ZN2FX12FXOptionMenu10onQueryTipEPNS_8FXObjectEjPv
libFOX-1.6.so.0:_ZN2FX12FXOptionMenu10setCurrentEPNS_8FXOptionEh
libFOX-1.6.so.0:_ZN2FX12FXOptionMenu11manufactureEv
libFOX-1.6.so.0:_ZN2FX12FXOptionMenu11onCmdUnpostEPNS_8FXObjectEjPv
libFOX-1.6.so.0:_ZN2FX12FXOptionMenu11onQueryHelpEPNS_8FXObjectEjPv
libFOX-1.6.so.0:_ZN2FX12FXOptionMenu12onKeyReleaseEPNS_8FXObjectEjPv
libFOX-1.6.so.0:_ZN2FX12FXOptionMenu12onMouseWheelEPNS_8FXObjectEjPv
libFOX-1.6.so.0:_ZN2FX12FXOptionMenu12setCurrentNoEih
libFOX-1.6.so.0:_ZN2FX12FXOptionMenu13onCmdSetValueEPNS_8FXObjectEjPv
libFOX-1.6.so.0:_ZN2FX12FXOptionMenu14onLeftBtnPressEPNS_8FXObjectEjPv
libFOX-1.6.so.0:_ZN2FX12FXOptionMenu15getDefaultWidthEv
libFOX-1.6.so.0:_ZN2FX12FXOptionMenu16getDefaultHeightEv
libFOX-1.6.so.0:_ZN2FX12FXOptionMenu16onCmdGetIntValueEPNS_8FXObjectEjPv
libFOX-1.6.so.0:_ZN2FX12FXOptionMenu16onCmdSetIntValueEPNS_8FXObjectEjPv
libFOX-1.6.so.0:_ZN2FX12FXOptionMenu16onLeftBtnReleaseEPNS_8FXObjectEjPv
libFOX-1.6.so.0:_ZN2FX12FXOptionMenu4loadERNS_8FXStreamE
libFOX-1.6.so.0:_ZN2FX12FXOptionMenu6createEv
libFOX-1.6.so.0:_ZN2FX12FXOptionMenu6detachEv
libFOX-1.6.so.0:_ZN2FX12FXOptionMenu6handleEPNS_8FXObjectEjPv
libFOX-1.6.so.0:_ZN2FX12FXOptionMenu6layoutEv
libFOX-1.6.so.0:_ZN2FX12FXOptionMenu7destroyEv
libFOX-1.6.so.0:_ZN2FX12FXOptionMenu7onPaintEPNS_8FXObjectEjPv
libFOX-1.6.so.0:_ZN2FX12FXOptionMenu7setMenuEPNS_7FXPopupE
libFOX-1.6.so.0:_ZN2FX12FXOptionMenu8onMotionEPNS_8FXObjectEjPv
libFOX-1.6.so.0:_ZN2FX12FXOptionMenu9killFocusEv
libFOX-1.6.so.0:_ZN2FX12FXOptionMenu9onCmdPostEPNS_8FXObjectEjPv
libFOX-1.6.so.0:_ZN2FX12FXOptionMenu9onFocusInEPNS_8FXObjectEjPv
libFOX-1.6.so.0:_ZN2FX12FXOptionMenuC1EPNS_11FXCompositeEPNS_7FXPopupEjiiiiiiii
libFOX-1.6.so.0:_ZN2FX12FXOptionMenuC2EPNS_11FXCompositeEPNS_7FXPopupEjiiiiiiii
libFOX-1.6.so.0:_ZN2FX12FXOptionMenuD0Ev
libFOX-1.6.so.0:_ZN2FX12FXOptionMenuD1Ev
libFOX-1.6.so.0:_ZN2FX12FXOptionMenuD2Ev
libFOX-1.6.so.0:_ZN2FX12FXRealSlider10onKeyPressEPNS_8FXObjectEjPv
libFOX-1.6.so.0:_ZN2FX12FXRealSlider10onQueryTipEPNS_8FXObjectEjPv
libFOX-1.6.so.0:_ZN2FX12FXRealSlider11manufactureEv
libFOX-1.6.so.0:_ZN2FX12FXRealSlider11onAutoSlideEPNS_8FXObjectEjPv
libFOX-1.6.so.0:_ZN2FX12FXRealSlider11onCmdGetTipEPNS_8FXObjectEjPv
libFOX-1.6.so.0:_ZN2FX12FXRealSlider11onCmdSetTipEPNS_8FXObjectEjPv
libFOX-1.6.so.0:_ZN2FX12FXRealSlider11onQueryHelpEPNS_8FXObjectEjPv
libFOX-1.6.so.0:_ZN2FX12FXRealSlider11onUngrabbedEPNS_8FXObjectEjPv
libFOX-1.6.so.0:_ZN2FX12FXRealSlider11setHeadSizeEi
libFOX-1.6.so.0:_ZN2FX12FXRealSlider11setSlotSizeEi
libFOX-1.6.so.0:_ZN2FX12FXRealSlider12onCmdGetHelpEPNS_8FXObjectEjPv
libFOX-1.6.so.0:_ZN2FX12FXRealSlider12onCmdSetHelpEPNS_8FXObjectEjPv
libFOX-1.6.so.0:_ZN2FX12FXRealSlider12onKeyReleaseEPNS_8FXObjectEjPv
libFOX-1.6.so.0:_ZN2FX12FXRealSlider12onMouseWheelEPNS_8FXObjectEjPv
libFOX-1.6.so.0:_ZN2FX12FXRealSlider12setIncrementEd
libFOX-1.6.so.0:_ZN2FX12FXRealSlider12setSlotColorEj
libFOX-1.6.so.0:_ZN2FX12FXRealSlider12setTickDeltaEd
libFOX-1.6.so.0:_ZN2FX12FXRealSlider13drawHorzTicksERNS_10FXDCWindowEiiii
libFOX-1.6.so.0:_ZN2FX12FXRealSlider13drawVertTicksERNS_10FXDCWindowEiiii
libFOX-1.6.so.0:_ZN2FX12FXRealSlider13onCmdSetValueEPNS_8FXObjectEjPv
libFOX-1.6.so.0:_ZN2FX12FXRealSlider14drawSliderHeadERNS_10FXDCWindowEiiii
libFOX-1.6.so.0:_ZN2FX12FXRealSlider14onLeftBtnPressEPNS_8FXObjectEjPv
libFOX-1.6.so.0:_ZN2FX12FXRealSlider14setSliderStyleEj
libFOX-1.6.so.0:_ZN2FX12FXRealSlider15getDefaultWidthEv
libFOX-1.6.so.0:_ZN2FX12FXRealSlider16getDefaultHeightEv
libFOX-1.6.so.0:_ZN2FX12FXRealSlider16onCmdGetIntRangeEPNS_8FXObjectEjPv
libFOX-1.6.so.0:_ZN2FX12FXRealSlider16onCmdGetIntValueEPNS_8FXObjectEjPv
libFOX-1.6.so.0:_ZN2FX12FXRealSlider16onCmdSetIntRangeEPNS_8FXObjectEjPv
libFOX-1.6.so.0:_ZN2FX12FXRealSlider16onCmdSetIntValueEPNS_8FXObjectEjPv
libFOX-1.6.so.0:_ZN2FX12FXRealSlider16onLeftBtnReleaseEPNS_8FXObjectEjPv
libFOX-1.6.so.0:_ZN2FX12FXRealSlider16onMiddleBtnPressEPNS_8FXObjectEjPv
libFOX-1.6.so.0:_ZN2FX12FXRealSlider17onCmdGetRealRangeEPNS_8FXObjectEjPv
libFOX-1.6.so.0:_ZN2FX12FXRealSlider17onCmdGetRealValueEPNS_8FXObjectEjPv
libFOX-1.6.so.0:_ZN2FX12FXRealSlider17onCmdSetRealRangeEPNS_8FXObjectEjPv
libFOX-1.6.so.0:_ZN2FX12FXRealSlider17onCmdSetRealValueEPNS_8FXObjectEjPv
libFOX-1.6.so.0:_ZN2FX12FXRealSlider18onMiddleBtnReleaseEPNS_8FXObjectEjPv
libFOX-1.6.so.0:_ZN2FX12FXRealSlider4loadERNS_8FXStreamE
libFOX-1.6.so.0:_ZN2FX12FXRealSlider6enableEv
libFOX-1.6.so.0:_ZN2FX12FXRealSlider6handleEPNS_8FXObjectEjPv
libFOX-1.6.so.0:_ZN2FX12FXRealSlider6layoutEv
libFOX-1.6.so.0:_ZN2FX12FXRealSlider7disableEv
libFOX-1.6.so.0:_ZN2FX12FXRealSlider7onPaintEPNS_8FXObjectEjPv
libFOX-1.6.so.0:_ZN2FX12FXRealSlider8onMotionEPNS_8FXObjectEjPv
libFOX-1.6.so.0:_ZN2FX12FXRealSlider8setRangeEddh
libFOX-1.6.so.0:_ZN2FX12FXRealSlider8setValueEdh
libFOX-1.6.so.0:_ZN2FX12FXRealSliderC1EPNS_11FXCompositeEPNS_8FXObjectEjjiiiiiiii
libFOX-1.6.so.0:_ZN2FX12FXRealSliderC1Ev
libFOX-1.6.so.0:_ZN2FX12FXRealSliderC2EPNS_11FXCompositeEPNS_8FXObjectEjjiiiiiiii
libFOX-1.6.so.0:_ZN2FX12FXRealSliderC2Ev
libFOX-1.6.so.0:_ZN2FX12FXRealSliderD0Ev
libFOX-1.6.so.0:_ZN2FX12FXRealSliderD1Ev
libFOX-1.6.so.0:_ZN2FX12FXRealSliderD2Ev
libFOX-1.6.so.0:_ZN2FX12FXRootWindow11manufactureEv
libFOX-1.6.so.0:_ZN2FX12FXRootWindow15getDefaultWidthEv
libFOX-1.6.so.0:_ZN2FX12FXRootWindow16getDefaultHeightEv
libFOX-1.6.so.0:_ZN2FX12FXRootWindow4moveEii
libFOX-1.6.so.0:_ZN2FX12FXRootWindow6createEv
libFOX-1.6.so.0:_ZN2FX12FXRootWindow6detachEv
libFOX-1.6.so.0:_ZN2FX12FXRootWindow6handleEPNS_8FXObjectEjPv
libFOX-1.6.so.0:_ZN2FX12FXRootWindow6layoutEv
libFOX-1.6.so.0:_ZN2FX12FXRootWindow6recalcEv
libFOX-1.6.so.0:_ZN2FX12FXRootWindow6resizeEii
libFOX-1.6.so.0:_ZN2FX12FXRootWindow7destroyEv
libFOX-1.6.so.0:_ZN2FX12FXRootWindow8positionEiiii
libFOX-1.6.so.0:_ZN2FX12FXRootWindow8setFocusEv
libFOX-1.6.so.0:_ZN2FX12FXRootWindow9killFocusEv
libFOX-1.6.so.0:_ZN2FX12FXRootWindowC1EPNS_5FXAppEPNS_8FXVisualE
libFOX-1.6.so.0:_ZN2FX12FXRootWindowC2EPNS_5FXAppEPNS_8FXVisualE
libFOX-1.6.so.0:_ZN2FX12FXRootWindowD0Ev
libFOX-1.6.so.0:_ZN2FX12FXRootWindowD1Ev
libFOX-1.6.so.0:_ZN2FX12FXRootWindowD2Ev
libFOX-1.6.so.0:_ZN2FX12FXScrollArea11manufactureEv
libFOX-1.6.so.0:_ZN2FX12FXScrollArea11setPositionEii
libFOX-1.6.so.0:_ZN2FX12FXScrollArea12moveContentsEii
libFOX-1.6.so.0:_ZN2FX12FXScrollArea12onAutoScrollEPNS_8FXObjectEjPv
libFOX-1.6.so.0:_ZN2FX12FXScrollArea13onHMouseWheelEPNS_8FXObjectEjPv
libFOX-1.6.so.0:_ZN2FX12FXScrollArea13onVMouseWheelEPNS_8FXObjectEjPv
libFOX-1.6.so.0:_ZN2FX12FXScrollArea14setScrollStyleEj
libFOX-1.6.so.0:_ZN2FX12FXScrollArea14stopAutoScrollEv
libFOX-1.6.so.0:_ZN2FX12FXScrollArea15getContentWidthEv
libFOX-1.6.so.0:_ZN2FX12FXScrollArea15getDefaultWidthEv
libFOX-1.6.so.0:_ZN2FX12FXScrollArea15startAutoScrollEPNS_7FXEventEh
libFOX-1.6.so.0:_ZN2FX12FXScrollArea16getContentHeightEv
libFOX-1.6.so.0:_ZN2FX12FXScrollArea16getDefaultHeightEv
libFOX-1.6.so.0:_ZN2FX12FXScrollArea16getViewportWidthEv
libFOX-1.6.so.0:_ZN2FX12FXScrollArea17getViewportHeightEv
libFOX-1.6.so.0:_ZN2FX12FXScrollArea18onHScrollerChangedEPNS_8FXObjectEjPv
libFOX-1.6.so.0:_ZN2FX12FXScrollArea18onHScrollerDraggedEPNS_8FXObjectEjPv
libFOX-1.6.so.0:_ZN2FX12FXScrollArea18onVScrollerChangedEPNS_8FXObjectEjPv
libFOX-1.6.so.0:_ZN2FX12FXScrollArea18onVScrollerDraggedEPNS_8FXObjectEjPv
libFOX-1.6.so.0:_ZN2FX12FXScrollArea6handleEPNS_8FXObjectEjPv
libFOX-1.6.so.0:_ZN2FX12FXScrollArea6layoutEv
libFOX-1.6.so.0:_ZN2FX12FXScrollAreaC1EPNS_11FXCompositeEjiiii
libFOX-1.6.so.0:_ZN2FX12FXScrollAreaC1Ev
libFOX-1.6.so.0:_ZN2FX12FXScrollAreaC2EPNS_11FXCompositeEjiiii
libFOX-1.6.so.0:_ZN2FX12FXScrollAreaC2Ev
libFOX-1.6.so.0:_ZN2FX12FXScrollAreaD0Ev
libFOX-1.6.so.0:_ZN2FX12FXScrollAreaD1Ev
libFOX-1.6.so.0:_ZN2FX12FXScrollAreaD2Ev
libFOX-1.6.so.0:_ZN2FX12FXScrollPane10setTopItemEi
libFOX-1.6.so.0:_ZN2FX12FXScrollPane11manufactureEv
libFOX-1.6.so.0:_ZN2FX12FXScrollPane13setNumVisibleEi
libFOX-1.6.so.0:_ZN2FX12FXScrollPane14onCmdDecrementEPNS_8FXObjectEjPv
libFOX-1.6.so.0:_ZN2FX12FXScrollPane14onCmdIncrementEPNS_8FXObjectEjPv
libFOX-1.6.so.0:_ZN2FX12FXScrollPane15getDefaultWidthEv
libFOX-1.6.so.0:_ZN2FX12FXScrollPane16getDefaultHeightEv
libFOX-1.6.so.0:_ZN2FX12FXScrollPane4showEv
libFOX-1.6.so.0:_ZN2FX12FXScrollPane6handleEPNS_8FXObjectEjPv
libFOX-1.6.so.0:_ZN2FX12FXScrollPane6layoutEv
libFOX-1.6.so.0:_ZN2FX12FXScrollPaneC1EPNS_8FXWindowEij
libFOX-1.6.so.0:_ZN2FX12FXScrollPaneC1Ev
libFOX-1.6.so.0:_ZN2FX12FXScrollPaneC2EPNS_8FXWindowEij
libFOX-1.6.so.0:_ZN2FX12FXScrollPaneC2Ev
libFOX-1.6.so.0:_ZN2FX12FXScrollPaneD0Ev
libFOX-1.6.so.0:_ZN2FX12FXScrollPaneD1Ev
libFOX-1.6.so.0:_ZN2FX12FXScrollPaneD2Ev
libFOX-1.6.so.0:_ZN2FX12FXStatusLine11manufactureEv
libFOX-1.6.so.0:_ZN2FX12FXStatusLine12setTextColorEj
libFOX-1.6.so.0:_ZN2FX12FXStatusLine13setNormalTextERKNS_8FXStringE
libFOX-1.6.so.0:_ZN2FX12FXStatusLine15getDefaultWidthEv
libFOX-1.6.so.0:_ZN2FX12FXStatusLine16getDefaultHeightEv
libFOX-1.6.so.0:_ZN2FX12FXStatusLine19onCmdGetStringValueEPNS_8FXObjectEjPv
libFOX-1.6.so.0:_ZN2FX12FXStatusLine19onCmdSetStringValueEPNS_8FXObjectEjPv
libFOX-1.6.so.0:_ZN2FX12FXStatusLine21setTextHighlightColorEj
libFOX-1.6.so.0:_ZN2FX12FXStatusLine4loadERNS_8FXStreamE
libFOX-1.6.so.0:_ZN2FX12FXStatusLine6createEv
libFOX-1.6.so.0:_ZN2FX12FXStatusLine6detachEv
libFOX-1.6.so.0:_ZN2FX12FXStatusLine6handleEPNS_8FXObjectEjPv
libFOX-1.6.so.0:_ZN2FX12FXStatusLine7onPaintEPNS_8FXObjectEjPv
libFOX-1.6.so.0:_ZN2FX12FXStatusLine7setFontEPNS_6FXFontE
libFOX-1.6.so.0:_ZN2FX12FXStatusLine7setTextERKNS_8FXStringE
libFOX-1.6.so.0:_ZN2FX12FXStatusLine8onUpdateEPNS_8FXObjectEjPv
libFOX-1.6.so.0:_ZN2FX12FXStatusLineC1EPNS_11FXCompositeEPNS_8FXObjectEj
libFOX-1.6.so.0:_ZN2FX12FXStatusLineC1Ev
libFOX-1.6.so.0:_ZN2FX12FXStatusLineC2EPNS_11FXCompositeEPNS_8FXObjectEj
libFOX-1.6.so.0:_ZN2FX12FXStatusLineC2Ev
libFOX-1.6.so.0:_ZN2FX12FXStatusLineD0Ev
libFOX-1.6.so.0:_ZN2FX12FXStatusLineD1Ev
libFOX-1.6.so.0:_ZN2FX12FXStatusLineD2Ev
libFOX-1.6.so.0:_ZN2FX12FXStringDict10createDataEPKv
libFOX-1.6.so.0:_ZN2FX12FXStringDict10deleteDataEPv
libFOX-1.6.so.0:_ZN2FX12FXStringDict11manufactureEv
libFOX-1.6.so.0:_ZN2FX12FXStringDict6handleEPNS_8FXObjectEjPv
libFOX-1.6.so.0:_ZN2FX12FXStringDictC1ERKS0_
libFOX-1.6.so.0:_ZN2FX12FXStringDictC1Ev
libFOX-1.6.so.0:_ZN2FX12FXStringDictC2ERKS0_
libFOX-1.6.so.0:_ZN2FX12FXStringDictC2Ev
libFOX-1.6.so.0:_ZN2FX12FXStringDictD0Ev
libFOX-1.6.so.0:_ZN2FX12FXStringDictD1Ev
libFOX-1.6.so.0:_ZN2FX12FXStringDictD2Ev
libFOX-1.6.so.0:_ZN2FX12FXStringDictaSERKS0_
libFOX-1.6.so.0:_ZN2FX12FXToolBarTab10onKeyPressEPNS_8FXObjectEjPv
libFOX-1.6.so.0:_ZN2FX12FXToolBarTab10onQueryTipEPNS_8FXObjectEjPv
libFOX-1.6.so.0:_ZN2FX12FXToolBarTab11drawUpArrowERNS_10FXDCWindowE
libFOX-1.6.so.0:_ZN2FX12FXToolBarTab11manufactureEv
libFOX-1.6.so.0:_ZN2FX12FXToolBarTab11onCmdGetTipEPNS_8FXObjectEjPv
libFOX-1.6.so.0:_ZN2FX12FXToolBarTab11onCmdSetTipEPNS_8FXObjectEjPv
libFOX-1.6.so.0:_ZN2FX12FXToolBarTab11onUngrabbedEPNS_8FXObjectEjPv
libFOX-1.6.so.0:_ZN2FX12FXToolBarTab11setTabStyleEj
libFOX-1.6.so.0:_ZN2FX12FXToolBarTab12onKeyReleaseEPNS_8FXObjectEjPv
libFOX-1.6.so.0:_ZN2FX12FXToolBarTab13drawDownArrowERNS_10FXDCWindowE
libFOX-1.6.so.0:_ZN2FX12FXToolBarTab13drawHSpecklesERNS_10FXDCWindowEii
libFOX-1.6.so.0:_ZN2FX12FXToolBarTab13drawLeftArrowERNS_10FXDCWindowE
libFOX-1.6.so.0:_ZN2FX12FXToolBarTab13drawVSpecklesERNS_10FXDCWindowEii
libFOX-1.6.so.0:_ZN2FX12FXToolBarTab13onCmdCollapseEPNS_8FXObjectEjPv
libFOX-1.6.so.0:_ZN2FX12FXToolBarTab13onUpdCollapseEPNS_8FXObjectEjPv
libFOX-1.6.so.0:_ZN2FX12FXToolBarTab14drawRightArrowERNS_10FXDCWindowE
libFOX-1.6.so.0:_ZN2FX12FXToolBarTab14onLeftBtnPressEPNS_8FXObjectEjPv
libFOX-1.6.so.0:_ZN2FX12FXToolBarTab14setActiveColorEj
libFOX-1.6.so.0:_ZN2FX12FXToolBarTab15getDefaultWidthEv
libFOX-1.6.so.0:_ZN2FX12FXToolBarTab15onCmdUncollapseEPNS_8FXObjectEjPv
libFOX-1.6.so.0:_ZN2FX12FXToolBarTab15onUpdUncollapseEPNS_8FXObjectEjPv
libFOX-1.6.so.0:_ZN2FX12FXToolBarTab16getDefaultHeightEv
libFOX-1.6.so.0:_ZN2FX12FXToolBarTab16onLeftBtnReleaseEPNS_8FXObjectEjPv
libFOX-1.6.so.0:_ZN2FX12FXToolBarTab4loadERNS_8FXStreamE
libFOX-1.6.so.0:_ZN2FX12FXToolBarTab6enableEv
libFOX-1.6.so.0:_ZN2FX12FXToolBarTab6handleEPNS_8FXObjectEjPv
libFOX-1.6.so.0:_ZN2FX12FXToolBarTab7disableEv
libFOX-1.6.so.0:_ZN2FX12FXToolBarTab7onEnterEPNS_8FXObjectEjPv
libFOX-1.6.so.0:_ZN2FX12FXToolBarTab7onLeaveEPNS_8FXObjectEjPv
libFOX-1.6.so.0:_ZN2FX12FXToolBarTab7onPaintEPNS_8FXObjectEjPv
libFOX-1.6.so.0:_ZN2FX12FXToolBarTab8collapseEhh
libFOX-1.6.so.0:_ZN2FX12FXToolBarTab8onUpdateEPNS_8FXObjectEjPv
libFOX-1.6.so.0:_ZN2FX12FXToolBarTabC1EPNS_11FXCompositeEPNS_8FXObjectEjjiiii
libFOX-1.6.so.0:_ZN2FX12FXToolBarTabC1Ev
libFOX-1.6.so.0:_ZN2FX12FXToolBarTabC2EPNS_11FXCompositeEPNS_8FXObjectEjjiiii
libFOX-1.6.so.0:_ZN2FX12FXToolBarTabC2Ev
libFOX-1.6.so.0:_ZN2FX12FXTranslator11manufactureEv
libFOX-1.6.so.0:_ZN2FX12FXTranslator4loadERNS_8FXStreamE
libFOX-1.6.so.0:_ZN2FX12FXTranslator6handleEPNS_8FXObjectEjPv
libFOX-1.6.so.0:_ZN2FX12FXTranslatorC1EPNS_5FXAppE
libFOX-1.6.so.0:_ZN2FX12FXTranslatorC2EPNS_5FXAppE
libFOX-1.6.so.0:_ZN2FX12FXTranslatorD0Ev
libFOX-1.6.so.0:_ZN2FX12FXTranslatorD1Ev
libFOX-1.6.so.0:_ZN2FX12FXTranslatorD2Ev
libFOX-1.6.so.0:_ZN2FX12FXUTF16Codec11manufactureEv
libFOX-1.6.so.0:_ZN2FX12FXUTF16Codec6handleEPNS_8FXObjectEjPv
libFOX-1.6.so.0:_ZN2FX12FXUTF32Codec11manufactureEv
libFOX-1.6.so.0:_ZN2FX12FXUTF32Codec6handleEPNS_8FXObjectEjPv
libFOX-1.6.so.0:_ZN2FX12fxezquantizeEPhPKjPjRiiii
libFOX-1.6.so.0:_ZN2FX12fxfsquantizeEPhPKjPjRiiii
libFOX-1.6.so.0:_ZN2FX12fxhsv_to_rgbERfS0_S0_fff
libFOX-1.6.so.0:_ZN2FX12fxkeysym2ucsEw
libFOX-1.6.so.0:_ZN2FX12fxrgb_to_hsvERfS0_S0_fff
libFOX-1.6.so.0:_ZN2FX12fxucs2keysymEw
libFOX-1.6.so.0:_ZN2FX12fxwuquantizeEPhPKjPjRiiii
libFOX-1.6.so.0:_ZN2FX12unparseAccelEj
libFOX-1.6.so.0:_ZN2FX13FX885910Codec11manufactureEv
libFOX-1.6.so.0:_ZN2FX13FX885910Codec6handleEPNS_8FXObjectEjPv
libFOX-1.6.so.0:_ZN2FX13FX885911Codec11manufactureEv
libFOX-1.6.so.0:_ZN2FX13FX885911Codec6handleEPNS_8FXObjectEjPv
libFOX-1.6.so.0:_ZN2FX13FX885913Codec11manufactureEv
libFOX-1.6.so.0:_ZN2FX13FX885913Codec6handleEPNS_8FXObjectEjPv
libFOX-1.6.so.0:_ZN2FX13FX885914Codec11manufactureEv
libFOX-1.6.so.0:_ZN2FX13FX885914Codec6handleEPNS_8FXObjectEjPv
libFOX-1.6.so.0:_ZN2FX13FX885915Codec11manufactureEv
libFOX-1.6.so.0:_ZN2FX13FX885915Codec6handleEPNS_8FXObjectEjPv
libFOX-1.6.so.0:_ZN2FX13FX885916Codec11manufactureEv
libFOX-1.6.so.0:_ZN2FX13FX885916Codec6handleEPNS_8FXObjectEjPv
libFOX-1.6.so.0:_ZN2FX13FXArrowButton10onKeyPressEPNS_8FXObjectEjPv
libFOX-1.6.so.0:_ZN2FX13FXArrowButton10onQueryTipEPNS_8FXObjectEjPv
libFOX-1.6.so.0:_ZN2FX13FXArrowButton10setJustifyEj
libFOX-1.6.so.0:_ZN2FX13FXArrowButton11manufactureEv
libFOX-1.6.so.0:_ZN2FX13FXArrowButton11onCmdGetTipEPNS_8FXObjectEjPv
libFOX-1.6.so.0:_ZN2FX13FXArrowButton11onCmdSetTipEPNS_8FXObjectEjPv
libFOX-1.6.so.0:_ZN2FX13FXArrowButton11onQueryHelpEPNS_8FXObjectEjPv
libFOX-1.6.so.0:_ZN2FX13FXArrowButton11onUngrabbedEPNS_8FXObjectEjPv
libFOX-1.6.so.0:_ZN2FX13FXArrowButton12onCmdGetHelpEPNS_8FXObjectEjPv
libFOX-1.6.so.0:_ZN2FX13FXArrowButton12onCmdSetHelpEPNS_8FXObjectEjPv
libFOX-1.6.so.0:_ZN2FX13FXArrowButton12onKeyReleaseEPNS_8FXObjectEjPv
libFOX-1.6.so.0:_ZN2FX13FXArrowButton12setArrowSizeEi
libFOX-1.6.so.0:_ZN2FX13FXArrowButton13onHotKeyPressEPNS_8FXObjectEjPv
libFOX-1.6.so.0:_ZN2FX13FXArrowButton13setArrowColorEj
libFOX-1.6.so.0:_ZN2FX13FXArrowButton13setArrowStyleEj
libFOX-1.6.so.0:_ZN2FX13FXArrowButton14onLeftBtnPressEPNS_8FXObjectEjPv
libFOX-1.6.so.0:_ZN2FX13FXArrowButton15getDefaultWidthEv
libFOX-1.6.so.0:_ZN2FX13FXArrowButton15onHotKeyReleaseEPNS_8FXObjectEjPv
libFOX-1.6.so.0:_ZN2FX13FXArrowButton16getDefaultHeightEv
libFOX-1.6.so.0:_ZN2FX13FXArrowButton16onLeftBtnReleaseEPNS_8FXObjectEjPv
libFOX-1.6.so.0:_ZN2FX13FXArrowButton4loadERNS_8FXStreamE
libFOX-1.6.so.0:_ZN2FX13FXArrowButton6enableEv
libFOX-1.6.so.0:_ZN2FX13FXArrowButton6handleEPNS_8FXObjectEjPv
libFOX-1.6.so.0:_ZN2FX13FXArrowButton6onAutoEPNS_8FXObjectEjPv
libFOX-1.6.so.0:_ZN2FX13FXArrowButton7disableEv
libFOX-1.6.so.0:_ZN2FX13FXArrowButton7onEnterEPNS_8FXObjectEjPv
libFOX-1.6.so.0:_ZN2FX13FXArrowButton7onLeaveEPNS_8FXObjectEjPv
libFOX-1.6.so.0:_ZN2FX13FXArrowButton7onPaintEPNS_8FXObjectEjPv
libFOX-1.6.so.0:_ZN2FX13FXArrowButton8onRepeatEPNS_8FXObjectEjPv
libFOX-1.6.so.0:_ZN2FX13FXArrowButton8onUpdateEPNS_8FXObjectEjPv
libFOX-1.6.so.0:_ZN2FX13FXArrowButton8setStateEh
libFOX-1.6.so.0:_ZN2FX13FXArrowButtonC1EPNS_11FXCompositeEPNS_8FXObjectEjjiiiiiiii
libFOX-1.6.so.0:_ZN2FX13FXArrowButtonC1Ev
libFOX-1.6.so.0:_ZN2FX13FXArrowButtonC2EPNS_11FXCompositeEPNS_8FXObjectEjjiiiiiiii
libFOX-1.6.so.0:_ZN2FX13FXArrowButtonC2Ev
libFOX-1.6.so.0:_ZN2FX13FXArrowButtonD0Ev
libFOX-1.6.so.0:_ZN2FX13FXArrowButtonD1Ev
libFOX-1.6.so.0:_ZN2FX13FXArrowButtonD2Ev
libFOX-1.6.so.0:_ZN2FX13FXBitmapFrame10setJustifyEj
libFOX-1.6.so.0:_ZN2FX13FXBitmapFrame10setOnColorEj
libFOX-1.6.so.0:_ZN2FX13FXBitmapFrame11manufactureEv
libFOX-1.6.so.0:_ZN2FX13FXBitmapFrame11setOffColorEj
libFOX-1.6.so.0:_ZN2FX13FXBitmapFrame15getDefaultWidthEv
libFOX-1.6.so.0:_ZN2FX13FXBitmapFrame16getDefaultHeightEv
libFOX-1.6.so.0:_ZN2FX13FXBitmapFrame4loadERNS_8FXStreamE
libFOX-1.6.so.0:_ZN2FX13FXBitmapFrame6createEv
libFOX-1.6.so.0:_ZN2FX13FXBitmapFrame6handleEPNS_8FXObjectEjPv
libFOX-1.6.so.0:_ZN2FX13FXBitmapFrame7onPaintEPNS_8FXObjectEjPv
libFOX-1.6.so.0:_ZN2FX13FXBitmapFrame9setBitmapEPNS_8FXBitmapE
libFOX-1.6.so.0:_ZN2FX13FXBitmapFrameC1EPNS_11FXCompositeEPNS_8FXBitmapEjiiiiiiii
libFOX-1.6.so.0:_ZN2FX13FXBitmapFrameC1Ev
libFOX-1.6.so.0:_ZN2FX13FXBitmapFrameC2EPNS_11FXCompositeEPNS_8FXBitmapEjiiiiiiii
libFOX-1.6.so.0:_ZN2FX13FXBitmapFrameC2Ev
libFOX-1.6.so.0:_ZN2FX13FXBitmapFrameD0Ev
libFOX-1.6.so.0:_ZN2FX13FXBitmapFrameD1Ev
libFOX-1.6.so.0:_ZN2FX13FXBitmapFrameD2Ev
libFOX-1.6.so.0:_ZN2FX13FXCP1250Codec11manufactureEv
libFOX-1.6.so.0:_ZN2FX13FXCP1250Codec6handleEPNS_8FXObjectEjPv
libFOX-1.6.so.0:_ZN2FX13FXCP1251Codec11manufactureEv
libFOX-1.6.so.0:_ZN2FX13FXCP1251Codec6handleEPNS_8FXObjectEjPv
libFOX-1.6.so.0:_ZN2FX13FXCP1252Codec11manufactureEv
libFOX-1.6.so.0:_ZN2FX13FXCP1252Codec6handleEPNS_8FXObjectEjPv
libFOX-1.6.so.0:_ZN2FX13FXCP1253Codec11manufactureEv
libFOX-1.6.so.0:_ZN2FX13FXCP1253Codec6handleEPNS_8FXObjectEjPv
libFOX-1.6.so.0:_ZN2FX13FXCP1254Codec11manufactureEv
libFOX-1.6.so.0:_ZN2FX13FXCP1254Codec6handleEPNS_8FXObjectEjPv
libFOX-1.6.so.0:_ZN2FX13FXCP1255Codec11manufactureEv
libFOX-1.6.so.0:_ZN2FX13FXCP1255Codec6handleEPNS_8FXObjectEjPv
libFOX-1.6.so.0:_ZN2FX13FXCP1256Codec11manufactureEv
libFOX-1.6.so.0:_ZN2FX13FXCP1256Codec6handleEPNS_8FXObjectEjPv
libFOX-1.6.so.0:_ZN2FX13FXCP1257Codec11manufactureEv
libFOX-1.6.so.0:_ZN2FX13FXCP1257Codec6handleEPNS_8FXObjectEjPv
libFOX-1.6.so.0:_ZN2FX13FXCP1258Codec11manufactureEv
libFOX-1.6.so.0:_ZN2FX13FXCP1258Codec6handleEPNS_8FXObjectEjPv
libFOX-1.6.so.0:_ZN2FX13FXCheckButton10onFocusOutEPNS_8FXObjectEjPv
libFOX-1.6.so.0:_ZN2FX13FXCheckButton10onKeyPressEPNS_8FXObjectEjPv
libFOX-1.6.so.0:_ZN2FX13FXCheckButton11manufactureEv
libFOX-1.6.so.0:_ZN2FX13FXCheckButton11onUngrabbedEPNS_8FXObjectEjPv
libFOX-1.6.so.0:_ZN2FX13FXCheckButton11setBoxColorEj
libFOX-1.6.so.0:_ZN2FX13FXCheckButton12onKeyReleaseEPNS_8FXObjectEjPv
libFOX-1.6.so.0:_ZN2FX13FXCheckButton13onCmdSetValueEPNS_8FXObjectEjPv
libFOX-1.6.so.0:_ZN2FX13FXCheckButton13onHotKeyPressEPNS_8FXObjectEjPv
libFOX-1.6.so.0:_ZN2FX13FXCheckButton13setCheckColorEj
libFOX-1.6.so.0:_ZN2FX13FXCheckButton14onLeftBtnPressEPNS_8FXObjectEjPv
libFOX-1.6.so.0:_ZN2FX13FXCheckButton15getDefaultWidthEv
libFOX-1.6.so.0:_ZN2FX13FXCheckButton15onHotKeyReleaseEPNS_8FXObjectEjPv
libFOX-1.6.so.0:_ZN2FX13FXCheckButton16getDefaultHeightEv
libFOX-1.6.so.0:_ZN2FX13FXCheckButton16onCmdGetIntValueEPNS_8FXObjectEjPv
libFOX-1.6.so.0:_ZN2FX13FXCheckButton16onCmdSetIntValueEPNS_8FXObjectEjPv
libFOX-1.6.so.0:_ZN2FX13FXCheckButton16onLeftBtnReleaseEPNS_8FXObjectEjPv
libFOX-1.6.so.0:_ZN2FX13FXCheckButton19setCheckButtonStyleEj
libFOX-1.6.so.0:_ZN2FX13FXCheckButton4loadERNS_8FXStreamE
libFOX-1.6.so.0:_ZN2FX13FXCheckButton6handleEPNS_8FXObjectEjPv
libFOX-1.6.so.0:_ZN2FX13FXCheckButton7onCheckEPNS_8FXObjectEjPv
libFOX-1.6.so.0:_ZN2FX13FXCheckButton7onEnterEPNS_8FXObjectEjPv
libFOX-1.6.so.0:_ZN2FX13FXCheckButton7onLeaveEPNS_8FXObjectEjPv
libFOX-1.6.so.0:_ZN2FX13FXCheckButton7onPaintEPNS_8FXObjectEjPv
libFOX-1.6.so.0:_ZN2FX13FXCheckButton8onUpdateEPNS_8FXObjectEjPv
libFOX-1.6.so.0:_ZN2FX13FXCheckButton8setCheckEhh
libFOX-1.6.so.0:_ZN2FX13FXCheckButton9onFocusInEPNS_8FXObjectEjPv
libFOX-1.6.so.0:_ZN2FX13FXCheckButton9onUncheckEPNS_8FXObjectEjPv
libFOX-1.6.so.0:_ZN2FX13FXCheckButton9onUnknownEPNS_8FXObjectEjPv
libFOX-1.6.so.0:_ZN2FX13FXCheckButtonC1EPNS_11FXCompositeERKNS_8FXStringEPNS_8FXObjectEjjiiiiiiii
libFOX-1.6.so.0:_ZN2FX13FXCheckButtonC1Ev
libFOX-1.6.so.0:_ZN2FX13FXCheckButtonC2EPNS_11FXCompositeERKNS_8FXStringEPNS_8FXObjectEjjiiiiiiii
libFOX-1.6.so.0:_ZN2FX13FXCheckButtonC2Ev
libFOX-1.6.so.0:_ZN2FX13FXColorDialog10onChgColorEPNS_8FXObjectEjPv
libFOX-1.6.so.0:_ZN2FX13FXColorDialog10onCmdColorEPNS_8FXObjectEjPv
libFOX-1.6.so.0:_ZN2FX13FXColorDialog11manufactureEv
libFOX-1.6.so.0:_ZN2FX13FXColorDialog13setOpaqueOnlyEh
libFOX-1.6.so.0:_ZN2FX13FXColorDialog4loadERNS_8FXStreamE
libFOX-1.6.so.0:_ZN2FX13FXColorDialog6handleEPNS_8FXObjectEjPv
libFOX-1.6.so.0:_ZN2FX13FXColorDialog7setRGBAEj
libFOX-1.6.so.0:_ZN2FX13FXColorDialogC1EPNS_8FXWindowERKNS_8FXStringEjiiii
libFOX-1.6.so.0:_ZN2FX13FXColorDialogC2EPNS_8FXWindowERKNS_8FXStringEjiiii
libFOX-1.6.so.0:_ZN2FX13FXColorDialogD0Ev
libFOX-1.6.so.0:_ZN2FX13FXColorDialogD1Ev
libFOX-1.6.so.0:_ZN2FX13FXColorDialogD2Ev
libFOX-1.6.so.0:_ZN2FX13FXDebugTarget11manufactureEv
libFOX-1.6.so.0:_ZN2FX13FXDebugTarget6handleEPNS_8FXObjectEjPv
libFOX-1.6.so.0:_ZN2FX13FXDebugTarget9onMessageEPNS_8FXObjectEjPv
libFOX-1.6.so.0:_ZN2FX13FXDebugTargetC1Ev
libFOX-1.6.so.0:_ZN2FX13FXDebugTargetC2Ev
libFOX-1.6.so.0:_ZN2FX13FXDirSelector10onCmdVisitEPNS_8FXObjectEjPv
libFOX-1.6.so.0:_ZN2FX13FXDirSelector11manufactureEv
libFOX-1.6.so.0:_ZN2FX13FXDirSelector11onCmdDeleteEPNS_8FXObjectEjPv
libFOX-1.6.so.0:_ZN2FX13FXDirSelector11onCmdOpenedEPNS_8FXObjectEjPv
libFOX-1.6.so.0:_ZN2FX13FXDirSelector11onPopupMenuEPNS_8FXObjectEjPv
libFOX-1.6.so.0:_ZN2FX13FXDirSelector12setDirectoryERKNS_8FXStringE
libFOX-1.6.so.0:_ZN2FX13FXDirSelector12setMatchModeEj
libFOX-1.6.so.0:_ZN2FX13FXDirSelector13onCmdBookmarkEPNS_8FXObjectEjPv
libFOX-1.6.so.0:_ZN2FX13FXDirSelector13onUpdSelectedEPNS_8FXObjectEjPv
libFOX-1.6.so.0:_ZN2FX13FXDirSelector14setDirBoxStyleEj
libFOX-1.6.so.0:_ZN2FX13FXDirSelector15showHiddenFilesEh
libFOX-1.6.so.0:_ZN2FX13FXDirSelector16onCmdDirectoryUpEPNS_8FXObjectEjPv
libFOX-1.6.so.0:_ZN2FX13FXDirSelector4loadERNS_8FXStreamE
libFOX-1.6.so.0:_ZN2FX13FXDirSelector6handleEPNS_8FXObjectEjPv
libFOX-1.6.so.0:_ZN2FX13FXDirSelector8onCmdNewEPNS_8FXObjectEjPv
libFOX-1.6.so.0:_ZN2FX13FXDirSelector8onUpdNewEPNS_8FXObjectEjPv
libFOX-1.6.so.0:_ZN2FX13FXDirSelector9onCmdCopyEPNS_8FXObjectEjPv
libFOX-1.6.so.0:_ZN2FX13FXDirSelector9onCmdHomeEPNS_8FXObjectEjPv
libFOX-1.6.so.0:_ZN2FX13FXDirSelector9onCmdLinkEPNS_8FXObjectEjPv
libFOX-1.6.so.0:_ZN2FX13FXDirSelector9onCmdMoveEPNS_8FXObjectEjPv
libFOX-1.6.so.0:_ZN2FX13FXDirSelector9onCmdNameEPNS_8FXObjectEjPv
libFOX-1.6.so.0:_ZN2FX13FXDirSelector9onCmdWorkEPNS_8FXObjectEjPv
libFOX-1.6.so.0:_ZN2FX13FXDirSelector9showFilesEh
libFOX-1.6.so.0:_ZN2FX13FXDirSelectorC1EPNS_11FXCompositeEPNS_8FXObjectEjjiiii
libFOX-1.6.so.0:_ZN2FX13FXDirSelectorC2EPNS_11FXCompositeEPNS_8FXObjectEjjiiii
libFOX-1.6.so.0:_ZN2FX13FXDirSelectorD0Ev
libFOX-1.6.so.0:_ZN2FX13FXDirSelectorD1Ev
libFOX-1.6.so.0:_ZN2FX13FXDirSelectorD2Ev
libFOX-1.6.so.0:_ZN2FX13FXDockHandler10onKeyPressEPNS_8FXObjectEjPv
libFOX-1.6.so.0:_ZN2FX13FXDockHandler10onQueryTipEPNS_8FXObjectEjPv
libFOX-1.6.so.0:_ZN2FX13FXDockHandler11onCmdGetTipEPNS_8FXObjectEjPv
libFOX-1.6.so.0:_ZN2FX13FXDockHandler11onCmdSetTipEPNS_8FXObjectEjPv
libFOX-1.6.so.0:_ZN2FX13FXDockHandler11onQueryHelpEPNS_8FXObjectEjPv
libFOX-1.6.so.0:_ZN2FX13FXDockHandler12onCmdGetHelpEPNS_8FXObjectEjPv
libFOX-1.6.so.0:_ZN2FX13FXDockHandler12onCmdSetHelpEPNS_8FXObjectEjPv
libFOX-1.6.so.0:_ZN2FX13FXDockHandler12onKeyReleaseEPNS_8FXObjectEjPv
libFOX-1.6.so.0:_ZN2FX13FXDockHandler14onLeftBtnPressEPNS_8FXObjectEjPv
libFOX-1.6.so.0:_ZN2FX13FXDockHandler16onLeftBtnReleaseEPNS_8FXObjectEjPv
libFOX-1.6.so.0:_ZN2FX13FXDockHandler4loadERNS_8FXStreamE
libFOX-1.6.so.0:_ZN2FX13FXDockHandler6handleEPNS_8FXObjectEjPv
libFOX-1.6.so.0:_ZN2FX13FXDockHandler8onMotionEPNS_8FXObjectEjPv
libFOX-1.6.so.0:_ZN2FX13FXDockHandlerC1EPNS_11FXCompositeEPNS_8FXObjectEjjiiiiiiii
libFOX-1.6.so.0:_ZN2FX13FXDockHandlerC1Ev
libFOX-1.6.so.0:_ZN2FX13FXDockHandlerC2EPNS_11FXCompositeEPNS_8FXObjectEjjiiiiiiii
libFOX-1.6.so.0:_ZN2FX13FXDockHandlerC2Ev
libFOX-1.6.so.0:_ZN2FX13FXFoldingItem10setEnabledEh
libFOX-1.6.so.0:_ZN2FX13FXFoldingItem11manufactureEv
libFOX-1.6.so.0:_ZN2FX13FXFoldingItem11setExpandedEh
libFOX-1.6.so.0:_ZN2FX13FXFoldingItem11setHasItemsEh
libFOX-1.6.so.0:_ZN2FX13FXFoldingItem11setOpenIconEPNS_6FXIconEh
libFOX-1.6.so.0:_ZN2FX13FXFoldingItem11setSelectedEh
libFOX-1.6.so.0:_ZN2FX13FXFoldingItem12setDraggableEh
libFOX-1.6.so.0:_ZN2FX13FXFoldingItem13setClosedIconEPNS_6FXIconEh
libFOX-1.6.so.0:_ZN2FX13FXFoldingItem4loadERNS_8FXStreamE
libFOX-1.6.so.0:_ZN2FX13FXFoldingItem6createEv
libFOX-1.6.so.0:_ZN2FX13FXFoldingItem6detachEv
libFOX-1.6.so.0:_ZN2FX13FXFoldingItem6handleEPNS_8FXObjectEjPv
libFOX-1.6.so.0:_ZN2FX13FXFoldingItem7destroyEv
libFOX-1.6.so.0:_ZN2FX13FXFoldingItem7setTextERKNS_8FXStringE
libFOX-1.6.so.0:_ZN2FX13FXFoldingItem8setFocusEh
libFOX-1.6.so.0:_ZN2FX13FXFoldingItem9setOpenedEh
libFOX-1.6.so.0:_ZN2FX13FXFoldingItemD0Ev
libFOX-1.6.so.0:_ZN2FX13FXFoldingItemD1Ev
libFOX-1.6.so.0:_ZN2FX13FXFoldingItemD2Ev
libFOX-1.6.so.0:_ZN2FX13FXFoldingList10appendItemEPNS_13FXFoldingItemERKNS_8FXStringEPNS_6FXIconES7_Pvh
libFOX-1.6.so.0:_ZN2FX13FXFoldingList10appendItemEPNS_13FXFoldingItemES2_h
libFOX-1.6.so.0:_ZN2FX13FXFoldingList10clearItemsEh
libFOX-1.6.so.0:_ZN2FX13FXFoldingList10createItemERKNS_8FXStringEPNS_6FXIconES5_Pv
libFOX-1.6.so.0:_ZN2FX13FXFoldingList10descendingEPKNS_13FXFoldingItemES3_
libFOX-1.6.so.0:_ZN2FX13FXFoldingList10enableItemEPNS_13FXFoldingItemE
libFOX-1.6.so.0:_ZN2FX13FXFoldingList10expandTreeEPNS_13FXFoldingItemEh
libFOX-1.6.so.0:_ZN2FX13FXFoldingList10insertItemEPNS_13FXFoldingItemES2_RKNS_8FXStringEPNS_6FXIconES7_Pvh
libFOX-1.6.so.0:_ZN2FX13FXFoldingList10insertItemEPNS_13FXFoldingItemES2_S2_h
libFOX-1.6.so.0:_ZN2FX13FXFoldingList10onFocusOutEPNS_8FXObjectEjPv
libFOX-1.6.so.0:_ZN2FX13FXFoldingList10onKeyPressEPNS_8FXObjectEjPv
libFOX-1.6.so.0:_ZN2FX13FXFoldingList10onQueryTipEPNS_8FXObjectEjPv
libFOX-1.6.so.0:_ZN2FX13FXFoldingList10onTipTimerEPNS_8FXObjectEjPv
libFOX-1.6.so.0:_ZN2FX13FXFoldingList10removeItemEPNS_13FXFoldingItemEh
libFOX-1.6.so.0:_ZN2FX13FXFoldingList10selectItemEPNS_13FXFoldingItemEh
libFOX-1.6.so.0:_ZN2FX13FXFoldingList10setHeadersEPPKci
libFOX-1.6.so.0:_ZN2FX13FXFoldingList10setHeadersERKNS_8FXStringEi
libFOX-1.6.so.0:_ZN2FX13FXFoldingList10toggleItemEPNS_13FXFoldingItemEh
libFOX-1.6.so.0:_ZN2FX13FXFoldingList10updateItemEPNS_13FXFoldingItemE
libFOX-1.6.so.0:_ZN2FX13FXFoldingList11disableItemEPNS_13FXFoldingItemE
libFOX-1.6.so.0:_ZN2FX13FXFoldingList11extractItemEPNS_13FXFoldingItemEh
libFOX-1.6.so.0:_ZN2FX13FXFoldingList11manufactureEv
libFOX-1.6.so.0:_ZN2FX13FXFoldingList11onQueryHelpEPNS_8FXObjectEjPv
libFOX-1.6.so.0:_ZN2FX13FXFoldingList11onUngrabbedEPNS_8FXObjectEjPv
libFOX-1.6.so.0:_ZN2FX13FXFoldingList11prependItemEPNS_13FXFoldingItemERKNS_8FXStringEPNS_6FXIconES7_Pvh
libFOX-1.6.so.0:_ZN2FX13FXFoldingList11prependItemEPNS_13FXFoldingItemES2_h
libFOX-1.6.so.0:_ZN2FX13FXFoldingList11removeItemsEPNS_13FXFoldingItemES2_h
libFOX-1.6.so.0:_ZN2FX13FXFoldingList11setHelpTextERKNS_8FXStringE
libFOX-1.6.so.0:_ZN2FX13FXFoldingList11setItemTextEPNS_13FXFoldingItemERKNS_8FXStringE
libFOX-1.6.so.0:_ZN2FX13FXFoldingList12appendHeaderERKNS_8FXStringEPNS_6FXIconEi
libFOX-1.6.so.0:_ZN2FX13FXFoldingList12collapseTreeEPNS_13FXFoldingItemEh
libFOX-1.6.so.0:_ZN2FX13FXFoldingList12deselectItemEPNS_13FXFoldingItemEh
libFOX-1.6.so.0:_ZN2FX13FXFoldingList12moveContentsEii
libFOX-1.6.so.0:_ZN2FX13FXFoldingList12onAutoScrollEPNS_8FXObjectEjPv
libFOX-1.6.so.0:_ZN2FX13FXFoldingList12onKeyReleaseEPNS_8FXObjectEjPv
libFOX-1.6.so.0:_ZN2FX13FXFoldingList12removeHeaderEi
libFOX-1.6.so.0:_ZN2FX13FXFoldingList12setLineColorEj
libFOX-1.6.so.0:_ZN2FX13FXFoldingList12setListStyleEj
libFOX-1.6.so.0:_ZN2FX13FXFoldingList12setTextColorEj
libFOX-1.6.so.0:_ZN2FX13FXFoldingList13ascendingCaseEPKNS_13FXFoldingItemES3_
libFOX-1.6.so.0:_ZN2FX13FXFoldingList13killSelectionEh
libFOX-1.6.so.0:_ZN2FX13FXFoldingList13onLookupTimerEPNS_8FXObjectEjPv
libFOX-1.6.so.0:_ZN2FX13FXFoldingList13setAnchorItemEPNS_13FXFoldingItemE
libFOX-1.6.so.0:_ZN2FX13FXFoldingList13setHeaderIconEiPNS_6FXIconE
libFOX-1.6.so.0:_ZN2FX13FXFoldingList13setHeaderSizeEii
libFOX-1.6.so.0:_ZN2FX13FXFoldingList13setHeaderTextEiRKNS_8FXStringE
libFOX-1.6.so.0:_ZN2FX13FXFoldingList13setNumVisibleEi
libFOX-1.6.so.0:_ZN2FX13FXFoldingList13sortRootItemsEv
libFOX-1.6.so.0:_ZN2FX13FXFoldingList14compareSectionEPKcS2_i
libFOX-1.6.so.0:_ZN2FX13FXFoldingList14descendingCaseEPKNS_13FXFoldingItemES3_
libFOX-1.6.so.0:_ZN2FX13FXFoldingList14onLeftBtnPressEPNS_8FXObjectEjPv
libFOX-1.6.so.0:_ZN2FX13FXFoldingList14setCurrentItemEPNS_13FXFoldingItemEh
libFOX-1.6.so.0:_ZN2FX13FXFoldingList14sortChildItemsEPNS_13FXFoldingItemE
libFOX-1.6.so.0:_ZN2FX13FXFoldingList15extendSelectionEPNS_13FXFoldingItemEh
libFOX-1.6.so.0:_ZN2FX13FXFoldingList15getContentWidthEv
libFOX-1.6.so.0:_ZN2FX13FXFoldingList15getDefaultWidthEv
libFOX-1.6.so.0:_ZN2FX13FXFoldingList15makeItemVisibleEPNS_13FXFoldingItemE
libFOX-1.6.so.0:_ZN2FX13FXFoldingList15onDoubleClickedEPNS_8FXObjectEjPv
libFOX-1.6.so.0:_ZN2FX13FXFoldingList15onHeaderChangedEPNS_8FXObjectEjPv
libFOX-1.6.so.0:_ZN2FX13FXFoldingList15onRightBtnPressEPNS_8FXObjectEjPv
libFOX-1.6.so.0:_ZN2FX13FXFoldingList15onTripleClickedEPNS_8FXObjectEjPv
libFOX-1.6.so.0:_ZN2FX13FXFoldingList15setItemOpenIconEPNS_13FXFoldingItemEPNS_6FXIconEh
libFOX-1.6.so.0:_ZN2FX13FXFoldingList15setSelBackColorEj
libFOX-1.6.so.0:_ZN2FX13FXFoldingList15setSelTextColorEj
libFOX-1.6.so.0:_ZN2FX13FXFoldingList16getContentHeightEv
libFOX-1.6.so.0:_ZN2FX13FXFoldingList16getDefaultHeightEv
libFOX-1.6.so.0:_ZN2FX13FXFoldingList16onLeftBtnReleaseEPNS_8FXObjectEjPv
libFOX-1.6.so.0:_ZN2FX13FXFoldingList17onRightBtnReleaseEPNS_8FXObjectEjPv
libFOX-1.6.so.0:_ZN2FX13FXFoldingList17setItemClosedIconEPNS_13FXFoldingItemEPNS_6FXIconEh
libFOX-1.6.so.0:_ZN2FX13FXFoldingList18compareSectionCaseEPKcS2_i
libFOX-1.6.so.0:_ZN2FX13FXFoldingList4loadERNS_8FXStreamE
libFOX-1.6.so.0:_ZN2FX13FXFoldingList4sortERPNS_13FXFoldingItemES3_S3_S3_i
libFOX-1.6.so.0:_ZN2FX13FXFoldingList6createEv
libFOX-1.6.so.0:_ZN2FX13FXFoldingList6detachEv
libFOX-1.6.so.0:_ZN2FX13FXFoldingList6handleEPNS_8FXObjectEjPv
libFOX-1.6.so.0:_ZN2FX13FXFoldingList6layoutEv
libFOX-1.6.so.0:_ZN2FX13FXFoldingList6recalcEv
libFOX-1.6.so.0:_ZN2FX13FXFoldingList7onEnterEPNS_8FXObjectEjPv
libFOX-1.6.so.0:_ZN2FX13FXFoldingList7onLeaveEPNS_8FXObjectEjPv
libFOX-1.6.so.0:_ZN2FX13FXFoldingList7onPaintEPNS_8FXObjectEjPv
libFOX-1.6.so.0:_ZN2FX13FXFoldingList7setFontEPNS_6FXFontE
libFOX-1.6.so.0:_ZN2FX13FXFoldingList8moveItemEPNS_13FXFoldingItemES2_S2_
libFOX-1.6.so.0:_ZN2FX13FXFoldingList8onMotionEPNS_8FXObjectEjPv
libFOX-1.6.so.0:_ZN2FX13FXFoldingList8openItemEPNS_13FXFoldingItemEh
libFOX-1.6.so.0:_ZN2FX13FXFoldingList8setFocusEv
libFOX-1.6.so.0:_ZN2FX13FXFoldingList9ascendingEPKNS_13FXFoldingItemES3_
libFOX-1.6.so.0:_ZN2FX13FXFoldingList9closeItemEPNS_13FXFoldingItemEh
libFOX-1.6.so.0:_ZN2FX13FXFoldingList9fillItemsEPNS_13FXFoldingItemEPPKcPNS_6FXIconES7_Pvh
libFOX-1.6.so.0:_ZN2FX13FXFoldingList9fillItemsEPNS_13FXFoldingItemERKNS_8FXStringEPNS_6FXIconES7_Pvh
libFOX-1.6.so.0:_ZN2FX13FXFoldingList9killFocusEv
libFOX-1.6.so.0:_ZN2FX13FXFoldingList9onClickedEPNS_8FXObjectEjPv
libFOX-1.6.so.0:_ZN2FX13FXFoldingList9onCommandEPNS_8FXObjectEjPv
libFOX-1.6.so.0:_ZN2FX13FXFoldingList9onFocusInEPNS_8FXObjectEjPv
libFOX-1.6.so.0:_ZN2FX13FXFoldingList9recomputeEv
libFOX-1.6.so.0:_ZN2FX13FXFoldingList9setIndentEi
libFOX-1.6.so.0:_ZN2FX13FXFoldingList9sortItemsEv
libFOX-1.6.so.0:_ZN2FX13FXFoldingListC1EPNS_11FXCompositeEPNS_8FXObjectEjjiiii
libFOX-1.6.so.0:_ZN2FX13FXFoldingListC1Ev
libFOX-1.6.so.0:_ZN2FX13FXFoldingListC2EPNS_11FXCompositeEPNS_8FXObjectEjjiiii
libFOX-1.6.so.0:_ZN2FX13FXFoldingListC2Ev
libFOX-1.6.so.0:_ZN2FX13FXFoldingListD0Ev
libFOX-1.6.so.0:_ZN2FX13FXFoldingListD1Ev
libFOX-1.6.so.0:_ZN2FX13FXFoldingListD2Ev
libFOX-1.6.so.0:_ZN2FX13FXGradientBar10blendpowerEdd
libFOX-1.6.so.0:_ZN2FX13FXGradientBar10onCmdMergeEPNS_8FXObjectEjPv
libFOX-1.6.so.0:_ZN2FX13FXGradientBar10onCmdSplitEPNS_8FXObjectEjPv
libFOX-1.6.so.0:_ZN2FX13FXGradientBar10onDNDEnterEPNS_8FXObjectEjPv
libFOX-1.6.so.0:_ZN2FX13FXGradientBar10onDNDLeaveEPNS_8FXObjectEjPv
libFOX-1.6.so.0:_ZN2FX13FXGradientBar10onQueryTipEPNS_8FXObjectEjPv
libFOX-1.6.so.0:_ZN2FX13FXGradientBar10onUpdMergeEPNS_8FXObjectEjPv
libFOX-1.6.so.0:_ZN2FX13FXGradientBar10onUpdSplitEPNS_8FXObjectEjPv
libFOX-1.6.so.0:_ZN2FX13FXGradientBar11blendlinearEdd
libFOX-1.6.so.0:_ZN2FX13FXGradientBar11drawDnArrowERNS_10FXDCWindowEiij
libFOX-1.6.so.0:_ZN2FX13FXGradientBar11drawLtArrowERNS_10FXDCWindowEiij
libFOX-1.6.so.0:_ZN2FX13FXGradientBar11drawRtArrowERNS_10FXDCWindowEiij
libFOX-1.6.so.0:_ZN2FX13FXGradientBar11drawUpArrowERNS_10FXDCWindowEiij
libFOX-1.6.so.0:_ZN2FX13FXGradientBar11manufactureEv
libFOX-1.6.so.0:_ZN2FX13FXGradientBar11onCmdGetTipEPNS_8FXObjectEjPv
libFOX-1.6.so.0:_ZN2FX13FXGradientBar11onCmdSetTipEPNS_8FXObjectEjPv
libFOX-1.6.so.0:_ZN2FX13FXGradientBar11onDNDMotionEPNS_8FXObjectEjPv
libFOX-1.6.so.0:_ZN2FX13FXGradientBar11onQueryHelpEPNS_8FXObjectEjPv
libFOX-1.6.so.0:_ZN2FX13FXGradientBar11setBarStyleEj
libFOX-1.6.so.0:_ZN2FX13FXGradientBar12moveSegmentsEiidh
libFOX-1.6.so.0:_ZN2FX13FXGradientBar12onCmdGetHelpEPNS_8FXObjectEjPv
libFOX-1.6.so.0:_ZN2FX13FXGradientBar12onCmdSetHelpEPNS_8FXObjectEjPv
libFOX-1.6.so.0:_ZN2FX13FXGradientBar12onCmdUniformEPNS_8FXObjectEjPv
libFOX-1.6.so.0:_ZN2FX13FXGradientBar12onUpdUniformEPNS_8FXObjectEjPv
libFOX-1.6.so.0:_ZN2FX13FXGradientBar12setGradientsEPKNS_10FXGradientEi
libFOX-1.6.so.0:_ZN2FX13FXGradientBar13blendSegmentsEiijh
libFOX-1.6.so.0:_ZN2FX13FXGradientBar13drawTopArrowsERNS_10FXDCWindowEiiii
libFOX-1.6.so.0:_ZN2FX13FXGradientBar13mergeSegmentsEiih
libFOX-1.6.so.0:_ZN2FX13FXGradientBar13onCmdBlendingEPNS_8FXObjectEjPv
libFOX-1.6.so.0:_ZN2FX13FXGradientBar13onCmdRecenterEPNS_8FXObjectEjPv
libFOX-1.6.so.0:_ZN2FX13FXGradientBar13onCmdSegColorEPNS_8FXObjectEjPv
libFOX-1.6.so.0:_ZN2FX13FXGradientBar13onUpdBlendingEPNS_8FXObjectEjPv
libFOX-1.6.so.0:_ZN2FX13FXGradientBar13onUpdRecenterEPNS_8FXObjectEjPv
libFOX-1.6.so.0:_ZN2FX13FXGradientBar13onUpdSegColorEPNS_8FXObjectEjPv
libFOX-1.6.so.0:_ZN2FX13FXGradientBar13splitSegmentsEiih
libFOX-1.6.so.0:_ZN2FX13FXGradientBar14drawLeftArrowsERNS_10FXDCWindowEiiii
libFOX-1.6.so.0:_ZN2FX13FXGradientBar14onLeftBtnPressEPNS_8FXObjectEjPv
libFOX-1.6.so.0:_ZN2FX13FXGradientBar14selectSegmentsEiih
libFOX-1.6.so.0:_ZN2FX13FXGradientBar14setSelectColorEj
libFOX-1.6.so.0:_ZN2FX13FXGradientBar15blenddecreasingEdd
libFOX-1.6.so.0:_ZN2FX13FXGradientBar15blendincreasingEdd
libFOX-1.6.so.0:_ZN2FX13FXGradientBar15drawRightArrowsERNS_10FXDCWindowEiiii
libFOX-1.6.so.0:_ZN2FX13FXGradientBar15getDefaultWidthEv
libFOX-1.6.so.0:_ZN2FX13FXGradientBar15uniformSegmentsEiih
libFOX-1.6.so.0:_ZN2FX13FXGradientBar16deselectSegmentsEh
libFOX-1.6.so.0:_ZN2FX13FXGradientBar16drawBottomArrowsERNS_10FXDCWindowEiiii
libFOX-1.6.so.0:_ZN2FX13FXGradientBar16getDefaultHeightEv
libFOX-1.6.so.0:_ZN2FX13FXGradientBar16moveSegmentLowerEidh
libFOX-1.6.so.0:_ZN2FX13FXGradientBar16moveSegmentUpperEidh
libFOX-1.6.so.0:_ZN2FX13FXGradientBar16onLeftBtnReleaseEPNS_8FXObjectEjPv
libFOX-1.6.so.0:_ZN2FX13FXGradientBar16setAnchorSegmentEi
libFOX-1.6.so.0:_ZN2FX13FXGradientBar17moveSegmentMiddleEidh
libFOX-1.6.so.0:_ZN2FX13FXGradientBar17setCurrentSegmentEih
libFOX-1.6.so.0:_ZN2FX13FXGradientBar20setSegmentLowerColorEijh
libFOX-1.6.so.0:_ZN2FX13FXGradientBar20setSegmentUpperColorEijh
libFOX-1.6.so.0:_ZN2FX13FXGradientBar4loadERNS_8FXStreamE
libFOX-1.6.so.0:_ZN2FX13FXGradientBar6createEv
libFOX-1.6.so.0:_ZN2FX13FXGradientBar6handleEPNS_8FXObjectEjPv
libFOX-1.6.so.0:_ZN2FX13FXGradientBar6layoutEv
libFOX-1.6.so.0:_ZN2FX13FXGradientBar7onPaintEPNS_8FXObjectEjPv
libFOX-1.6.so.0:_ZN2FX13FXGradientBar8gradientEPji
libFOX-1.6.so.0:_ZN2FX13FXGradientBar8onMotionEPNS_8FXObjectEjPv
libFOX-1.6.so.0:_ZN2FX13FXGradientBar9blendsineEdd
libFOX-1.6.so.0:_ZN2FX13FXGradientBar9onDNDDropEPNS_8FXObjectEjPv
libFOX-1.6.so.0:_ZN2FX13FXGradientBar9updatebarEv
libFOX-1.6.so.0:_ZN2FX13FXGradientBarC1EPNS_11FXCompositeEPNS_8FXObjectEjjiiiiiiii
libFOX-1.6.so.0:_ZN2FX13FXGradientBarC1Ev
libFOX-1.6.so.0:_ZN2FX13FXGradientBarC2EPNS_11FXCompositeEPNS_8FXObjectEjjiiiiiiii
libFOX-1.6.so.0:_ZN2FX13FXGradientBarC2Ev
libFOX-1.6.so.0:_ZN2FX13FXGradientBarD0Ev
libFOX-1.6.so.0:_ZN2FX13FXGradientBarD1Ev
libFOX-1.6.so.0:_ZN2FX13FXGradientBarD2Ev
libFOX-1.6.so.0:_ZN2FX13FXInputDialog10getIntegerERiPNS_5FXAppERKNS_8FXStringES6_PNS_6FXIconEii
libFOX-1.6.so.0:_ZN2FX13FXInputDialog10getIntegerERiPNS_8FXWindowERKNS_8FXStringES6_PNS_6FXIconEii
libFOX-1.6.so.0:_ZN2FX13FXInputDialog10initializeERKNS_8FXStringEPNS_6FXIconE
libFOX-1.6.so.0:_ZN2FX13FXInputDialog11manufactureEv
libFOX-1.6.so.0:_ZN2FX13FXInputDialog11onCmdAcceptEPNS_8FXObjectEjPv
libFOX-1.6.so.0:_ZN2FX13FXInputDialog13setNumColumnsEi
libFOX-1.6.so.0:_ZN2FX13FXInputDialog6handleEPNS_8FXObjectEjPv
libFOX-1.6.so.0:_ZN2FX13FXInputDialog7executeEj
libFOX-1.6.so.0:_ZN2FX13FXInputDialog7getRealERdPNS_5FXAppERKNS_8FXStringES6_PNS_6FXIconEdd
libFOX-1.6.so.0:_ZN2FX13FXInputDialog7getRealERdPNS_8FXWindowERKNS_8FXStringES6_PNS_6FXIconEdd
libFOX-1.6.so.0:_ZN2FX13FXInputDialog7setTextERKNS_8FXStringE
libFOX-1.6.so.0:_ZN2FX13FXInputDialog9getStringERNS_8FXStringEPNS_5FXAppERKS1_S6_PNS_6FXIconE
libFOX-1.6.so.0:_ZN2FX13FXInputDialog9getStringERNS_8FXStringEPNS_8FXWindowERKS1_S6_PNS_6FXIconE
libFOX-1.6.so.0:_ZN2FX13FXInputDialogC1EPNS_5FXAppERKNS_8FXStringES5_PNS_6FXIconEjiiii
libFOX-1.6.so.0:_ZN2FX13FXInputDialogC1EPNS_8FXWindowERKNS_8FXStringES5_PNS_6FXIconEjiiii
libFOX-1.6.so.0:_ZN2FX13FXInputDialogC2EPNS_5FXAppERKNS_8FXStringES5_PNS_6FXIconEjiiii
libFOX-1.6.so.0:_ZN2FX13FXInputDialogC2EPNS_8FXWindowERKNS_8FXStringES5_PNS_6FXIconEjiiii
libFOX-1.6.so.0:_ZN2FX13FXMenuCaption10onQueryTipEPNS_8FXObjectEjPv
libFOX-1.6.so.0:_ZN2FX13FXMenuCaption11manufactureEv
libFOX-1.6.so.0:_ZN2FX13FXMenuCaption11onCmdGetTipEPNS_8FXObjectEjPv
libFOX-1.6.so.0:_ZN2FX13FXMenuCaption11onCmdSetTipEPNS_8FXObjectEjPv
libFOX-1.6.so.0:_ZN2FX13FXMenuCaption11onQueryHelpEPNS_8FXObjectEjPv
libFOX-1.6.so.0:_ZN2FX13FXMenuCaption11setHelpTextERKNS_8FXStringE
libFOX-1.6.so.0:_ZN2FX13FXMenuCaption12onCmdGetHelpEPNS_8FXObjectEjPv
libFOX-1.6.so.0:_ZN2FX13FXMenuCaption12onCmdSetHelpEPNS_8FXObjectEjPv
libFOX-1.6.so.0:_ZN2FX13FXMenuCaption12setMenuStyleEj
libFOX-1.6.so.0:_ZN2FX13FXMenuCaption12setTextColorEj
libFOX-1.6.so.0:_ZN2FX13FXMenuCaption14setHiliteColorEj
libFOX-1.6.so.0:_ZN2FX13FXMenuCaption14setShadowColorEj
libFOX-1.6.so.0:_ZN2FX13FXMenuCaption15getDefaultWidthEv
libFOX-1.6.so.0:_ZN2FX13FXMenuCaption15setSelBackColorEj
libFOX-1.6.so.0:_ZN2FX13FXMenuCaption15setSelTextColorEj
libFOX-1.6.so.0:_ZN2FX13FXMenuCaption16getDefaultHeightEv
libFOX-1.6.so.0:_ZN2FX13FXMenuCaption17onCmdGetIconValueEPNS_8FXObjectEjPv
libFOX-1.6.so.0:_ZN2FX13FXMenuCaption17onCmdSetIconValueEPNS_8FXObjectEjPv
libFOX-1.6.so.0:_ZN2FX13FXMenuCaption19onCmdGetStringValueEPNS_8FXObjectEjPv
libFOX-1.6.so.0:_ZN2FX13FXMenuCaption19onCmdSetStringValueEPNS_8FXObjectEjPv
libFOX-1.6.so.0:_ZN2FX13FXMenuCaption4loadERNS_8FXStreamE
libFOX-1.6.so.0:_ZN2FX13FXMenuCaption6createEv
libFOX-1.6.so.0:_ZN2FX13FXMenuCaption6detachEv
libFOX-1.6.so.0:_ZN2FX13FXMenuCaption6enableEv
libFOX-1.6.so.0:_ZN2FX13FXMenuCaption6handleEPNS_8FXObjectEjPv
libFOX-1.6.so.0:_ZN2FX13FXMenuCaption7disableEv
libFOX-1.6.so.0:_ZN2FX13FXMenuCaption7onPaintEPNS_8FXObjectEjPv
libFOX-1.6.so.0:_ZN2FX13FXMenuCaption7setFontEPNS_6FXFontE
libFOX-1.6.so.0:_ZN2FX13FXMenuCaption7setIconEPNS_6FXIconE
libFOX-1.6.so.0:_ZN2FX13FXMenuCaption7setTextERKNS_8FXStringE
libFOX-1.6.so.0:_ZN2FX13FXMenuCaption8onUpdateEPNS_8FXObjectEjPv
libFOX-1.6.so.0:_ZN2FX13FXMenuCaptionC1EPNS_11FXCompositeERKNS_8FXStringEPNS_6FXIconEj
libFOX-1.6.so.0:_ZN2FX13FXMenuCaptionC1Ev
libFOX-1.6.so.0:_ZN2FX13FXMenuCaptionC2EPNS_11FXCompositeERKNS_8FXStringEPNS_6FXIconEj
libFOX-1.6.so.0:_ZN2FX13FXMenuCaptionC2Ev
libFOX-1.6.so.0:_ZN2FX13FXMenuCaptionD0Ev
libFOX-1.6.so.0:_ZN2FX13FXMenuCaptionD1Ev
libFOX-1.6.so.0:_ZN2FX13FXMenuCaptionD2Ev
libFOX-1.6.so.0:_ZN2FX13FXMenuCascade10onKeyPressEPNS_8FXObjectEjPv
libFOX-1.6.so.0:_ZN2FX13FXMenuCascade11manufactureEv
libFOX-1.6.so.0:_ZN2FX13FXMenuCascade11onCmdUnpostEPNS_8FXObjectEjPv
libFOX-1.6.so.0:_ZN2FX13FXMenuCascade12drawTriangleERNS_10FXDCWindowEiiii
libFOX-1.6.so.0:_ZN2FX13FXMenuCascade12onKeyReleaseEPNS_8FXObjectEjPv
libFOX-1.6.so.0:_ZN2FX13FXMenuCascade13onButtonPressEPNS_8FXObjectEjPv
libFOX-1.6.so.0:_ZN2FX13FXMenuCascade13onHotKeyPressEPNS_8FXObjectEjPv
libFOX-1.6.so.0:_ZN2FX13FXMenuCascade15onButtonReleaseEPNS_8FXObjectEjPv
libFOX-1.6.so.0:_ZN2FX13FXMenuCascade15onHotKeyReleaseEPNS_8FXObjectEjPv
libFOX-1.6.so.0:_ZN2FX13FXMenuCascade4loadERNS_8FXStreamE
libFOX-1.6.so.0:_ZN2FX13FXMenuCascade6createEv
libFOX-1.6.so.0:_ZN2FX13FXMenuCascade6detachEv
libFOX-1.6.so.0:_ZN2FX13FXMenuCascade6handleEPNS_8FXObjectEjPv
libFOX-1.6.so.0:_ZN2FX13FXMenuCascade7destroyEv
libFOX-1.6.so.0:_ZN2FX13FXMenuCascade7onEnterEPNS_8FXObjectEjPv
libFOX-1.6.so.0:_ZN2FX13FXMenuCascade7onLeaveEPNS_8FXObjectEjPv
libFOX-1.6.so.0:_ZN2FX13FXMenuCascade7onPaintEPNS_8FXObjectEjPv
libFOX-1.6.so.0:_ZN2FX13FXMenuCascade8setFocusEv
libFOX-1.6.so.0:_ZN2FX13FXMenuCascade9killFocusEv
libFOX-1.6.so.0:_ZN2FX13FXMenuCascade9onCmdPostEPNS_8FXObjectEjPv
libFOX-1.6.so.0:_ZN2FX13FXMenuCascadeC1EPNS_11FXCompositeERKNS_8FXStringEPNS_6FXIconEPNS_7FXPopupEj
libFOX-1.6.so.0:_ZN2FX13FXMenuCascadeC1Ev
libFOX-1.6.so.0:_ZN2FX13FXMenuCascadeC2EPNS_11FXCompositeERKNS_8FXStringEPNS_6FXIconEPNS_7FXPopupEj
libFOX-1.6.so.0:_ZN2FX13FXMenuCascadeC2Ev
libFOX-1.6.so.0:_ZN2FX13FXMenuCascadeD0Ev
libFOX-1.6.so.0:_ZN2FX13FXMenuCascadeD1Ev
libFOX-1.6.so.0:_ZN2FX13FXMenuCascadeD2Ev
libFOX-1.6.so.0:_ZN2FX13FXMenuCommand10onCmdAccelEPNS_8FXObjectEjPv
libFOX-1.6.so.0:_ZN2FX13FXMenuCommand10onKeyPressEPNS_8FXObjectEjPv
libFOX-1.6.so.0:_ZN2FX13FXMenuCommand11manufactureEv
libFOX-1.6.so.0:_ZN2FX13FXMenuCommand12onKeyReleaseEPNS_8FXObjectEjPv
libFOX-1.6.so.0:_ZN2FX13FXMenuCommand12setAccelTextERKNS_8FXStringE
libFOX-1.6.so.0:_ZN2FX13FXMenuCommand13onButtonPressEPNS_8FXObjectEjPv
libFOX-1.6.so.0:_ZN2FX13FXMenuCommand13onHotKeyPressEPNS_8FXObjectEjPv
libFOX-1.6.so.0:_ZN2FX13FXMenuCommand15getDefaultWidthEv
libFOX-1.6.so.0:_ZN2FX13FXMenuCommand15onButtonReleaseEPNS_8FXObjectEjPv
libFOX-1.6.so.0:_ZN2FX13FXMenuCommand15onHotKeyReleaseEPNS_8FXObjectEjPv
libFOX-1.6.so.0:_ZN2FX13FXMenuCommand16getDefaultHeightEv
libFOX-1.6.so.0:_ZN2FX13FXMenuCommand4loadERNS_8FXStreamE
libFOX-1.6.so.0:_ZN2FX13FXMenuCommand6handleEPNS_8FXObjectEjPv
libFOX-1.6.so.0:_ZN2FX13FXMenuCommand7onEnterEPNS_8FXObjectEjPv
libFOX-1.6.so.0:_ZN2FX13FXMenuCommand7onLeaveEPNS_8FXObjectEjPv
libFOX-1.6.so.0:_ZN2FX13FXMenuCommand7onPaintEPNS_8FXObjectEjPv
libFOX-1.6.so.0:_ZN2FX13FXMenuCommand8setFocusEv
libFOX-1.6.so.0:_ZN2FX13FXMenuCommand9killFocusEv
libFOX-1.6.so.0:_ZN2FX13FXMenuCommandC1EPNS_11FXCompositeERKNS_8FXStringEPNS_6FXIconEPNS_8FXObjectEjj
libFOX-1.6.so.0:_ZN2FX13FXMenuCommandC1Ev
libFOX-1.6.so.0:_ZN2FX13FXMenuCommandC2EPNS_11FXCompositeERKNS_8FXStringEPNS_6FXIconEPNS_8FXObjectEjj
libFOX-1.6.so.0:_ZN2FX13FXMenuCommandC2Ev
libFOX-1.6.so.0:_ZN2FX13FXMenuCommandD0Ev
libFOX-1.6.so.0:_ZN2FX13FXMenuCommandD1Ev
libFOX-1.6.so.0:_ZN2FX13FXMenuCommandD2Ev
libFOX-1.6.so.0:_ZN2FX13FXPrintDialog10getPrinterERNS_9FXPrinterE
libFOX-1.6.so.0:_ZN2FX13FXPrintDialog10onCmdColorEPNS_8FXObjectEjPv
libFOX-1.6.so.0:_ZN2FX13FXPrintDialog10onCmdMediaEPNS_8FXObjectEjPv
libFOX-1.6.so.0:_ZN2FX13FXPrintDialog10onCmdPagesEPNS_8FXObjectEjPv
libFOX-1.6.so.0:_ZN2FX13FXPrintDialog10onCmdPropsEPNS_8FXObjectEjPv
libFOX-1.6.so.0:_ZN2FX13FXPrintDialog10onUpdColorEPNS_8FXObjectEjPv
libFOX-1.6.so.0:_ZN2FX13FXPrintDialog10onUpdMediaEPNS_8FXObjectEjPv
libFOX-1.6.so.0:_ZN2FX13FXPrintDialog10onUpdPagesEPNS_8FXObjectEjPv
libFOX-1.6.so.0:_ZN2FX13FXPrintDialog10onUpdPropsEPNS_8FXObjectEjPv
libFOX-1.6.so.0:_ZN2FX13FXPrintDialog10setPrinterERKNS_9FXPrinterE
libFOX-1.6.so.0:_ZN2FX13FXPrintDialog11manufactureEv
libFOX-1.6.so.0:_ZN2FX13FXPrintDialog11onCmdAcceptEPNS_8FXObjectEjPv
libFOX-1.6.so.0:_ZN2FX13FXPrintDialog11onCmdBrowseEPNS_8FXObjectEjPv
libFOX-1.6.so.0:_ZN2FX13FXPrintDialog11onCmdToFileEPNS_8FXObjectEjPv
libFOX-1.6.so.0:_ZN2FX13FXPrintDialog11onUpdBrowseEPNS_8FXObjectEjPv
libFOX-1.6.so.0:_ZN2FX13FXPrintDialog11onUpdToFileEPNS_8FXObjectEjPv
libFOX-1.6.so.0:_ZN2FX13FXPrintDialog13onCmdFileNameEPNS_8FXObjectEjPv
libFOX-1.6.so.0:_ZN2FX13FXPrintDialog13onCmdLastPageEPNS_8FXObjectEjPv
libFOX-1.6.so.0:_ZN2FX13FXPrintDialog13onCmdPortraitEPNS_8FXObjectEjPv
libFOX-1.6.so.0:_ZN2FX13FXPrintDialog13onUpdFileNameEPNS_8FXObjectEjPv
libFOX-1.6.so.0:_ZN2FX13FXPrintDialog13onUpdLastPageEPNS_8FXObjectEjPv
libFOX-1.6.so.0:_ZN2FX13FXPrintDialog13onUpdPortraitEPNS_8FXObjectEjPv
libFOX-1.6.so.0:_ZN2FX13FXPrintDialog14onCmdFirstPageEPNS_8FXObjectEjPv
libFOX-1.6.so.0:_ZN2FX13FXPrintDialog14onCmdLandscapeEPNS_8FXObjectEjPv
libFOX-1.6.so.0:_ZN2FX13FXPrintDialog14onCmdNumCopiesEPNS_8FXObjectEjPv
libFOX-1.6.so.0:_ZN2FX13FXPrintDialog14onCmdToPrinterEPNS_8FXObjectEjPv
libFOX-1.6.so.0:_ZN2FX13FXPrintDialog14onUpdFirstPageEPNS_8FXObjectEjPv
libFOX-1.6.so.0:_ZN2FX13FXPrintDialog14onUpdLandscapeEPNS_8FXObjectEjPv
libFOX-1.6.so.0:_ZN2FX13FXPrintDialog14onUpdNumCopiesEPNS_8FXObjectEjPv
libFOX-1.6.so.0:_ZN2FX13FXPrintDialog14onUpdToPrinterEPNS_8FXObjectEjPv
libFOX-1.6.so.0:_ZN2FX13FXPrintDialog16onCmdPrinterNameEPNS_8FXObjectEjPv
libFOX-1.6.so.0:_ZN2FX13FXPrintDialog16onUpdPrinterNameEPNS_8FXObjectEjPv
libFOX-1.6.so.0:_ZN2FX13FXPrintDialog18onCmdCollateNormalEPNS_8FXObjectEjPv
libFOX-1.6.so.0:_ZN2FX13FXPrintDialog18onUpdCollateNormalEPNS_8FXObjectEjPv
libFOX-1.6.so.0:_ZN2FX13FXPrintDialog20onCmdCollateReversedEPNS_8FXObjectEjPv
libFOX-1.6.so.0:_ZN2FX13FXPrintDialog20onUpdCollateReversedEPNS_8FXObjectEjPv
libFOX-1.6.so.0:_ZN2FX13FXPrintDialog4loadERNS_8FXStreamE
libFOX-1.6.so.0:_ZN2FX13FXPrintDialog6createEv
libFOX-1.6.so.0:_ZN2FX13FXPrintDialog6handleEPNS_8FXObjectEjPv
libFOX-1.6.so.0:_ZN2FX13FXPrintDialog9onCmdGrayEPNS_8FXObjectEjPv
libFOX-1.6.so.0:_ZN2FX13FXPrintDialog9onUpdGrayEPNS_8FXObjectEjPv
libFOX-1.6.so.0:_ZN2FX13FXPrintDialogC1EPNS_8FXWindowERKNS_8FXStringEjiiii
libFOX-1.6.so.0:_ZN2FX13FXPrintDialogC2EPNS_8FXWindowERKNS_8FXStringEjiiii
libFOX-1.6.so.0:_ZN2FX13FXPrintDialogD0Ev
libFOX-1.6.so.0:_ZN2FX13FXPrintDialogD1Ev
libFOX-1.6.so.0:_ZN2FX13FXPrintDialogD2Ev
libFOX-1.6.so.0:_ZN2FX13FXProgressBar10hideNumberEv
libFOX-1.6.so.0:_ZN2FX13FXProgressBar10setBarSizeEi
libFOX-1.6.so.0:_ZN2FX13FXProgressBar10showNumberEv
libFOX-1.6.so.0:_ZN2FX13FXProgressBar11manufactureEv
libFOX-1.6.so.0:_ZN2FX13FXProgressBar11setBarColorEj
libFOX-1.6.so.0:_ZN2FX13FXProgressBar11setBarStyleEj
libFOX-1.6.so.0:_ZN2FX13FXProgressBar11setProgressEj
libFOX-1.6.so.0:_ZN2FX13FXProgressBar12drawInteriorERNS_10FXDCWindowE
libFOX-1.6.so.0:_ZN2FX13FXProgressBar12setTextColorEj
libFOX-1.6.so.0:_ZN2FX13FXProgressBar13onCmdSetValueEPNS_8FXObjectEjPv
libFOX-1.6.so.0:_ZN2FX13FXProgressBar13setBarBGColorEj
libFOX-1.6.so.0:_ZN2FX13FXProgressBar15getDefaultWidthEv
libFOX-1.6.so.0:_ZN2FX13FXProgressBar15setTextAltColorEj
libFOX-1.6.so.0:_ZN2FX13FXProgressBar16getDefaultHeightEv
libFOX-1.6.so.0:_ZN2FX13FXProgressBar16onCmdGetIntValueEPNS_8FXObjectEjPv
libFOX-1.6.so.0:_ZN2FX13FXProgressBar16onCmdSetIntValueEPNS_8FXObjectEjPv
libFOX-1.6.so.0:_ZN2FX13FXProgressBar4loadERNS_8FXStreamE
libFOX-1.6.so.0:_ZN2FX13FXProgressBar6createEv
libFOX-1.6.so.0:_ZN2FX13FXProgressBar6detachEv
libFOX-1.6.so.0:_ZN2FX13FXProgressBar6handleEPNS_8FXObjectEjPv
libFOX-1.6.so.0:_ZN2FX13FXProgressBar7onPaintEPNS_8FXObjectEjPv
libFOX-1.6.so.0:_ZN2FX13FXProgressBar7setFontEPNS_6FXFontE
libFOX-1.6.so.0:_ZN2FX13FXProgressBar8setTotalEj
libFOX-1.6.so.0:_ZN2FX13FXProgressBar9incrementEj
libFOX-1.6.so.0:_ZN2FX13FXProgressBarC1EPNS_11FXCompositeEPNS_8FXObjectEjjiiiiiiii
libFOX-1.6.so.0:_ZN2FX13FXProgressBarC2EPNS_11FXCompositeEPNS_8FXObjectEjjiiiiiiii
libFOX-1.6.so.0:_ZN2FX13FXProgressBarD0Ev
libFOX-1.6.so.0:_ZN2FX13FXProgressBarD1Ev
libFOX-1.6.so.0:_ZN2FX13FXProgressBarD2Ev
libFOX-1.6.so.0:_ZN2FX13FXRadioButton10onFocusOutEPNS_8FXObjectEjPv
libFOX-1.6.so.0:_ZN2FX13FXRadioButton10onKeyPressEPNS_8FXObjectEjPv
libFOX-1.6.so.0:_ZN2FX13FXRadioButton11manufactureEv
libFOX-1.6.so.0:_ZN2FX13FXRadioButton11onUngrabbedEPNS_8FXObjectEjPv
libFOX-1.6.so.0:_ZN2FX13FXRadioButton12onKeyReleaseEPNS_8FXObjectEjPv
libFOX-1.6.so.0:_ZN2FX13FXRadioButton12setDiskColorEj
libFOX-1.6.so.0:_ZN2FX13FXRadioButton13onCmdSetValueEPNS_8FXObjectEjPv
libFOX-1.6.so.0:_ZN2FX13FXRadioButton13onHotKeyPressEPNS_8FXObjectEjPv
libFOX-1.6.so.0:_ZN2FX13FXRadioButton13setRadioColorEj
libFOX-1.6.so.0:_ZN2FX13FXRadioButton14onLeftBtnPressEPNS_8FXObjectEjPv
libFOX-1.6.so.0:_ZN2FX13FXRadioButton15getDefaultWidthEv
libFOX-1.6.so.0:_ZN2FX13FXRadioButton15onHotKeyReleaseEPNS_8FXObjectEjPv
libFOX-1.6.so.0:_ZN2FX13FXRadioButton16getDefaultHeightEv
libFOX-1.6.so.0:_ZN2FX13FXRadioButton16onCmdGetIntValueEPNS_8FXObjectEjPv
libFOX-1.6.so.0:_ZN2FX13FXRadioButton16onCmdSetIntValueEPNS_8FXObjectEjPv
libFOX-1.6.so.0:_ZN2FX13FXRadioButton16onLeftBtnReleaseEPNS_8FXObjectEjPv
libFOX-1.6.so.0:_ZN2FX13FXRadioButton19setRadioButtonStyleEj
libFOX-1.6.so.0:_ZN2FX13FXRadioButton4loadERNS_8FXStreamE
libFOX-1.6.so.0:_ZN2FX13FXRadioButton6handleEPNS_8FXObjectEjPv
libFOX-1.6.so.0:_ZN2FX13FXRadioButton7onCheckEPNS_8FXObjectEjPv
libFOX-1.6.so.0:_ZN2FX13FXRadioButton7onEnterEPNS_8FXObjectEjPv
libFOX-1.6.so.0:_ZN2FX13FXRadioButton7onLeaveEPNS_8FXObjectEjPv
libFOX-1.6.so.0:_ZN2FX13FXRadioButton7onPaintEPNS_8FXObjectEjPv
libFOX-1.6.so.0:_ZN2FX13FXRadioButton8onUpdateEPNS_8FXObjectEjPv
libFOX-1.6.so.0:_ZN2FX13FXRadioButton8setCheckEhh
libFOX-1.6.so.0:_ZN2FX13FXRadioButton9onFocusInEPNS_8FXObjectEjPv
libFOX-1.6.so.0:_ZN2FX13FXRadioButton9onUncheckEPNS_8FXObjectEjPv
libFOX-1.6.so.0:_ZN2FX13FXRadioButton9onUnknownEPNS_8FXObjectEjPv
libFOX-1.6.so.0:_ZN2FX13FXRadioButtonC1EPNS_11FXCompositeERKNS_8FXStringEPNS_8FXObjectEjjiiiiiiii
libFOX-1.6.so.0:_ZN2FX13FXRadioButtonC1Ev
libFOX-1.6.so.0:_ZN2FX13FXRadioButtonC2EPNS_11FXCompositeERKNS_8FXStringEPNS_8FXObjectEjjiiiiiiii
libFOX-1.6.so.0:_ZN2FX13FXRadioButtonC2Ev
libFOX-1.6.so.0:_ZN2FX13FXRealSpinner10onChgEntryEPNS_8FXObjectEjPv
libFOX-1.6.so.0:_ZN2FX13FXRealSpinner10onCmdEntryEPNS_8FXObjectEjPv
libFOX-1.6.so.0:_ZN2FX13FXRealSpinner10onKeyPressEPNS_8FXObjectEjPv
libFOX-1.6.so.0:_ZN2FX13FXRealSpinner10setTipTextERKNS_8FXStringE
libFOX-1.6.so.0:_ZN2FX13FXRealSpinner11manufactureEv
libFOX-1.6.so.0:_ZN2FX13FXRealSpinner11onFocusSelfEPNS_8FXObjectEjPv
libFOX-1.6.so.0:_ZN2FX13FXRealSpinner11setEditableEh
libFOX-1.6.so.0:_ZN2FX13FXRealSpinner11setHelpTextERKNS_8FXStringE
libFOX-1.6.so.0:_ZN2FX13FXRealSpinner12onKeyReleaseEPNS_8FXObjectEjPv
libFOX-1.6.so.0:_ZN2FX13FXRealSpinner12onWheelEntryEPNS_8FXObjectEjPv
libFOX-1.6.so.0:_ZN2FX13FXRealSpinner12setIncrementEd
libFOX-1.6.so.0:_ZN2FX13FXRealSpinner12setTextColorEj
libFOX-1.6.so.0:_ZN2FX13FXRealSpinner13onCmdSetValueEPNS_8FXObjectEjPv
libFOX-1.6.so.0:_ZN2FX13FXRealSpinner13setNumColumnsEi
libFOX-1.6.so.0:_ZN2FX13FXRealSpinner14onCmdDecrementEPNS_8FXObjectEjPv
libFOX-1.6.so.0:_ZN2FX13FXRealSpinner14onCmdIncrementEPNS_8FXObjectEjPv
libFOX-1.6.so.0:_ZN2FX13FXRealSpinner14onUpdDecrementEPNS_8FXObjectEjPv
libFOX-1.6.so.0:_ZN2FX13FXRealSpinner14onUpdIncrementEPNS_8FXObjectEjPv
libFOX-1.6.so.0:_ZN2FX13FXRealSpinner14setCursorColorEj
libFOX-1.6.so.0:_ZN2FX13FXRealSpinner14setGranularityEd
libFOX-1.6.so.0:_ZN2FX13FXRealSpinner14setTextVisibleEh
libFOX-1.6.so.0:_ZN2FX13FXRealSpinner15getDefaultWidthEv
libFOX-1.6.so.0:_ZN2FX13FXRealSpinner15setSelBackColorEj
libFOX-1.6.so.0:_ZN2FX13FXRealSpinner15setSelTextColorEj
libFOX-1.6.so.0:_ZN2FX13FXRealSpinner15setSpinnerStyleEj
libFOX-1.6.so.0:_ZN2FX13FXRealSpinner15setUpArrowColorEj
libFOX-1.6.so.0:_ZN2FX13FXRealSpinner16getDefaultHeightEv
libFOX-1.6.so.0:_ZN2FX13FXRealSpinner16onCmdGetIntRangeEPNS_8FXObjectEjPv
libFOX-1.6.so.0:_ZN2FX13FXRealSpinner16onCmdGetIntValueEPNS_8FXObjectEjPv
libFOX-1.6.so.0:_ZN2FX13FXRealSpinner16onCmdSetIntRangeEPNS_8FXObjectEjPv
libFOX-1.6.so.0:_ZN2FX13FXRealSpinner16onCmdSetIntValueEPNS_8FXObjectEjPv
libFOX-1.6.so.0:_ZN2FX13FXRealSpinner17decrementByAmountEdh
libFOX-1.6.so.0:_ZN2FX13FXRealSpinner17incrementByAmountEdh
libFOX-1.6.so.0:_ZN2FX13FXRealSpinner17onCmdGetRealRangeEPNS_8FXObjectEjPv
libFOX-1.6.so.0:_ZN2FX13FXRealSpinner17onCmdGetRealValueEPNS_8FXObjectEjPv
libFOX-1.6.so.0:_ZN2FX13FXRealSpinner17onCmdSetRealRangeEPNS_8FXObjectEjPv
libFOX-1.6.so.0:_ZN2FX13FXRealSpinner17onCmdSetRealValueEPNS_8FXObjectEjPv
libFOX-1.6.so.0:_ZN2FX13FXRealSpinner17setDownArrowColorEj
libFOX-1.6.so.0:_ZN2FX13FXRealSpinner4loadERNS_8FXStreamE
libFOX-1.6.so.0:_ZN2FX13FXRealSpinner6enableEv
libFOX-1.6.so.0:_ZN2FX13FXRealSpinner6handleEPNS_8FXObjectEjPv
libFOX-1.6.so.0:_ZN2FX13FXRealSpinner6layoutEv
libFOX-1.6.so.0:_ZN2FX13FXRealSpinner7disableEv
libFOX-1.6.so.0:_ZN2FX13FXRealSpinner7setFontEPNS_6FXFontE
libFOX-1.6.so.0:_ZN2FX13FXRealSpinner8setRangeEddh
libFOX-1.6.so.0:_ZN2FX13FXRealSpinner8setValueEdh
libFOX-1.6.so.0:_ZN2FX13FXRealSpinner9decrementEh
libFOX-1.6.so.0:_ZN2FX13FXRealSpinner9incrementEh
libFOX-1.6.so.0:_ZN2FX13FXRealSpinner9setCyclicEh
libFOX-1.6.so.0:_ZN2FX13FXRealSpinnerC1EPNS_11FXCompositeEiPNS_8FXObjectEjjiiiiiiii
libFOX-1.6.so.0:_ZN2FX13FXRealSpinnerC1Ev
libFOX-1.6.so.0:_ZN2FX13FXRealSpinnerC2EPNS_11FXCompositeEiPNS_8FXObjectEjjiiiiiiii
libFOX-1.6.so.0:_ZN2FX13FXRealSpinnerC2Ev
libFOX-1.6.so.0:_ZN2FX13FXRealSpinnerD0Ev
libFOX-1.6.so.0:_ZN2FX13FXRealSpinnerD1Ev
libFOX-1.6.so.0:_ZN2FX13FXRealSpinnerD2Ev
libFOX-1.6.so.0:_ZN2FX13FXRecentFiles10appendFileERKNS_8FXStringE
libFOX-1.6.so.0:_ZN2FX13FXRecentFiles10onCmdClearEPNS_8FXObjectEjPv
libFOX-1.6.so.0:_ZN2FX13FXRecentFiles10removeFileERKNS_8FXStringE
libFOX-1.6.so.0:_ZN2FX13FXRecentFiles11manufactureEv
libFOX-1.6.so.0:_ZN2FX13FXRecentFiles13onUpdAnyFilesEPNS_8FXObjectEjPv
libFOX-1.6.so.0:_ZN2FX13FXRecentFiles4loadERNS_8FXStreamE
libFOX-1.6.so.0:_ZN2FX13FXRecentFiles5clearEv
libFOX-1.6.so.0:_ZN2FX13FXRecentFiles6handleEPNS_8FXObjectEjPv
libFOX-1.6.so.0:_ZN2FX13FXRecentFiles7setFileEiRKNS_8FXStringE
libFOX-1.6.so.0:_ZN2FX13FXRecentFiles9onCmdFileEPNS_8FXObjectEjPv
libFOX-1.6.so.0:_ZN2FX13FXRecentFiles9onUpdFileEPNS_8FXObjectEjPv
libFOX-1.6.so.0:_ZN2FX13FXRecentFilesC1EPNS_5FXAppE
libFOX-1.6.so.0:_ZN2FX13FXRecentFilesC1EPNS_5FXAppERKNS_8FXStringEPNS_8FXObjectEj
libFOX-1.6.so.0:_ZN2FX13FXRecentFilesC1Ev
libFOX-1.6.so.0:_ZN2FX13FXRecentFilesC2EPNS_5FXAppE
libFOX-1.6.so.0:_ZN2FX13FXRecentFilesC2EPNS_5FXAppERKNS_8FXStringEPNS_8FXObjectEj
libFOX-1.6.so.0:_ZN2FX13FXRecentFilesC2Ev
libFOX-1.6.so.0:_ZN2FX13FXRecentFilesD0Ev
libFOX-1.6.so.0:_ZN2FX13FXRecentFilesD1Ev
libFOX-1.6.so.0:_ZN2FX13FXRecentFilesD2Ev
libFOX-1.6.so.0:_ZN2FX13FXShutterItem10setTipTextERKNS_8FXStringE
libFOX-1.6.so.0:_ZN2FX13FXShutterItem11manufactureEv
libFOX-1.6.so.0:_ZN2FX13FXShutterItem11onCmdButtonEPNS_8FXObjectEjPv
libFOX-1.6.so.0:_ZN2FX13FXShutterItem11onFocusDownEPNS_8FXObjectEjPv
libFOX-1.6.so.0:_ZN2FX13FXShutterItem11setHelpTextERKNS_8FXStringE
libFOX-1.6.so.0:_ZN2FX13FXShutterItem6handleEPNS_8FXObjectEjPv
libFOX-1.6.so.0:_ZN2FX13FXShutterItem9onFocusUpEPNS_8FXObjectEjPv
libFOX-1.6.so.0:_ZN2FX13FXShutterItemC1EPNS_9FXShutterERKNS_8FXStringEPNS_6FXIconEjiiiiiiiiii
libFOX-1.6.so.0:_ZN2FX13FXShutterItemC2EPNS_9FXShutterERKNS_8FXStringEPNS_6FXIconEjiiiiiiiiii
libFOX-1.6.so.0:_ZN2FX13FXShutterItemD0Ev
libFOX-1.6.so.0:_ZN2FX13FXShutterItemD1Ev
libFOX-1.6.so.0:_ZN2FX13FXShutterItemD2Ev
libFOX-1.6.so.0:_ZN2FX13FXToolBarGrip11manufactureEv
libFOX-1.6.so.0:_ZN2FX13FXToolBarGrip12setDoubleBarEh
libFOX-1.6.so.0:_ZN2FX13FXToolBarGrip14setActiveColorEj
libFOX-1.6.so.0:_ZN2FX13FXToolBarGrip15getDefaultWidthEv
libFOX-1.6.so.0:_ZN2FX13FXToolBarGrip16getDefaultHeightEv
libFOX-1.6.so.0:_ZN2FX13FXToolBarGrip4loadERNS_8FXStreamE
libFOX-1.6.so.0:_ZN2FX13FXToolBarGrip6handleEPNS_8FXObjectEjPv
libFOX-1.6.so.0:_ZN2FX13FXToolBarGrip7onEnterEPNS_8FXObjectEjPv
libFOX-1.6.so.0:_ZN2FX13FXToolBarGrip7onLeaveEPNS_8FXObjectEjPv
libFOX-1.6.so.0:_ZN2FX13FXToolBarGrip7onPaintEPNS_8FXObjectEjPv
libFOX-1.6.so.0:_ZN2FX13FXToolBarGripC1EPNS_11FXCompositeEPNS_8FXObjectEjjiiiiiiii
libFOX-1.6.so.0:_ZN2FX13FXToolBarGripC1Ev
libFOX-1.6.so.0:_ZN2FX13FXToolBarGripC2EPNS_11FXCompositeEPNS_8FXObjectEjjiiiiiiii
libFOX-1.6.so.0:_ZN2FX13FXToolBarGripC2Ev
libFOX-1.6.so.0:_ZN2FX13FXTreeListBox10appendItemEPNS_10FXTreeItemERKNS_8FXStringEPNS_6FXIconES7_Pv
libFOX-1.6.so.0:_ZN2FX13FXTreeListBox10appendItemEPNS_10FXTreeItemES2_
libFOX-1.6.so.0:_ZN2FX13FXTreeListBox10clearItemsEv
libFOX-1.6.so.0:_ZN2FX13FXTreeListBox10insertItemEPNS_10FXTreeItemES2_RKNS_8FXStringEPNS_6FXIconES7_Pv
libFOX-1.6.so.0:_ZN2FX13FXTreeListBox10insertItemEPNS_10FXTreeItemES2_S2_
libFOX-1.6.so.0:_ZN2FX13FXTreeListBox10removeItemEPNS_10FXTreeItemE
libFOX-1.6.so.0:_ZN2FX13FXTreeListBox10setTipTextERKNS_8FXStringE
libFOX-1.6.so.0:_ZN2FX13FXTreeListBox11extractItemEPNS_10FXTreeItemE
libFOX-1.6.so.0:_ZN2FX13FXTreeListBox11manufactureEv
libFOX-1.6.so.0:_ZN2FX13FXTreeListBox11onFocusDownEPNS_8FXObjectEjPv
libFOX-1.6.so.0:_ZN2FX13FXTreeListBox11onFocusSelfEPNS_8FXObjectEjPv
libFOX-1.6.so.0:_ZN2FX13FXTreeListBox11prependItemEPNS_10FXTreeItemERKNS_8FXStringEPNS_6FXIconES7_Pv
libFOX-1.6.so.0:_ZN2FX13FXTreeListBox11prependItemEPNS_10FXTreeItemES2_
libFOX-1.6.so.0:_ZN2FX13FXTreeListBox11removeItemsEPNS_10FXTreeItemES2_
libFOX-1.6.so.0:_ZN2FX13FXTreeListBox11setHelpTextERKNS_8FXStringE
libFOX-1.6.so.0:_ZN2FX13FXTreeListBox11setItemTextEPNS_10FXTreeItemERKNS_8FXStringE
libFOX-1.6.so.0:_ZN2FX13FXTreeListBox11setSortFuncEPFiPKNS_10FXTreeItemES3_E
libFOX-1.6.so.0:_ZN2FX13FXTreeListBox12onMouseWheelEPNS_8FXObjectEjPv
libFOX-1.6.so.0:_ZN2FX13FXTreeListBox12onTreeUpdateEPNS_8FXObjectEjPv
libFOX-1.6.so.0:_ZN2FX13FXTreeListBox12setListStyleEj
libFOX-1.6.so.0:_ZN2FX13FXTreeListBox13onFieldButtonEPNS_8FXObjectEjPv
libFOX-1.6.so.0:_ZN2FX13FXTreeListBox13onTreeChangedEPNS_8FXObjectEjPv
libFOX-1.6.so.0:_ZN2FX13FXTreeListBox13onTreeClickedEPNS_8FXObjectEjPv
libFOX-1.6.so.0:_ZN2FX13FXTreeListBox13setNumVisibleEi
libFOX-1.6.so.0:_ZN2FX13FXTreeListBox13sortRootItemsEv
libFOX-1.6.so.0:_ZN2FX13FXTreeListBox14setCurrentItemEPNS_10FXTreeItemEh
libFOX-1.6.so.0:_ZN2FX13FXTreeListBox14sortChildItemsEPNS_10FXTreeItemE
libFOX-1.6.so.0:_ZN2FX13FXTreeListBox15getDefaultWidthEv
libFOX-1.6.so.0:_ZN2FX13FXTreeListBox15setItemOpenIconEPNS_10FXTreeItemEPNS_6FXIconEh
libFOX-1.6.so.0:_ZN2FX13FXTreeListBox16getDefaultHeightEv
libFOX-1.6.so.0:_ZN2FX13FXTreeListBox17setItemClosedIconEPNS_10FXTreeItemEPNS_6FXIconEh
libFOX-1.6.so.0:_ZN2FX13FXTreeListBox4loadERNS_8FXStreamE
libFOX-1.6.so.0:_ZN2FX13FXTreeListBox6createEv
libFOX-1.6.so.0:_ZN2FX13FXTreeListBox6detachEv
libFOX-1.6.so.0:_ZN2FX13FXTreeListBox6enableEv
libFOX-1.6.so.0:_ZN2FX13FXTreeListBox6handleEPNS_8FXObjectEjPv
libFOX-1.6.so.0:_ZN2FX13FXTreeListBox6layoutEv
libFOX-1.6.so.0:_ZN2FX13FXTreeListBox7destroyEv
libFOX-1.6.so.0:_ZN2FX13FXTreeListBox7disableEv
libFOX-1.6.so.0:_ZN2FX13FXTreeListBox7setFontEPNS_6FXFontE
libFOX-1.6.so.0:_ZN2FX13FXTreeListBox8moveItemEPNS_10FXTreeItemES2_S2_
libFOX-1.6.so.0:_ZN2FX13FXTreeListBox9fillItemsEPNS_10FXTreeItemEPPKcPNS_6FXIconES7_Pv
libFOX-1.6.so.0:_ZN2FX13FXTreeListBox9fillItemsEPNS_10FXTreeItemERKNS_8FXStringEPNS_6FXIconES7_Pv
libFOX-1.6.so.0:_ZN2FX13FXTreeListBox9onFocusUpEPNS_8FXObjectEjPv
libFOX-1.6.so.0:_ZN2FX13FXTreeListBox9sortItemsEv
libFOX-1.6.so.0:_ZN2FX13FXTreeListBoxC1EPNS_11FXCompositeEPNS_8FXObjectEjjiiiiiiii
libFOX-1.6.so.0:_ZN2FX13FXTreeListBoxC2EPNS_11FXCompositeEPNS_8FXObjectEjjiiiiiiii
libFOX-1.6.so.0:_ZN2FX13FXTreeListBoxD0Ev
libFOX-1.6.so.0:_ZN2FX13FXTreeListBoxD1Ev
libFOX-1.6.so.0:_ZN2FX13FXTreeListBoxD2Ev
libFOX-1.6.so.0:_ZN2FX13fxsendrequestEP9_XDisplaymmmmj
libFOX-1.6.so.0:_ZN2FX14FXBZFileStream10readBufferEm
libFOX-1.6.so.0:_ZN2FX14FXBZFileStream11writeBufferEm
libFOX-1.6.so.0:_ZN2FX14FXBZFileStream4openERKNS_8FXStringENS_17FXStreamDirectionEm
libFOX-1.6.so.0:_ZN2FX14FXBZFileStream5closeEv
libFOX-1.6.so.0:_ZN2FX14FXBZFileStream5flushEv
libFOX-1.6.so.0:_ZN2FX14FXBZFileStreamC1EPKNS_8FXObjectE
libFOX-1.6.so.0:_ZN2FX14FXBZFileStreamC2EPKNS_8FXObjectE
libFOX-1.6.so.0:_ZN2FX14FXBZFileStreamD0Ev
libFOX-1.6.so.0:_ZN2FX14FXBZFileStreamD1Ev
libFOX-1.6.so.0:_ZN2FX14FXBZFileStreamD2Ev
libFOX-1.6.so.0:_ZN2FX14FXCommandGroup11manufactureEv
libFOX-1.6.so.0:_ZN2FX14FXCommandGroup4redoEv
libFOX-1.6.so.0:_ZN2FX14FXCommandGroup4undoEv
libFOX-1.6.so.0:_ZN2FX14FXCommandGroup6handleEPNS_8FXObjectEjPv
libFOX-1.6.so.0:_ZN2FX14FXCommandGroupD0Ev
libFOX-1.6.so.0:_ZN2FX14FXCommandGroupD1Ev
libFOX-1.6.so.0:_ZN2FX14FXCommandGroupD2Ev
libFOX-1.6.so.0:_ZN2FX14FXFileSelector10onCmdVisitEPNS_8FXObjectEjPv
libFOX-1.6.so.0:_ZN2FX14FXFileSelector10setPatternERKNS_8FXStringE
libFOX-1.6.so.0:_ZN2FX14FXFileSelector10showImagesEh
libFOX-1.6.so.0:_ZN2FX14FXFileSelector11manufactureEv
libFOX-1.6.so.0:_ZN2FX14FXFileSelector11onCmdAcceptEPNS_8FXObjectEjPv
libFOX-1.6.so.0:_ZN2FX14FXFileSelector11onCmdDeleteEPNS_8FXObjectEjPv
libFOX-1.6.so.0:_ZN2FX14FXFileSelector11onCmdFilterEPNS_8FXObjectEjPv
libFOX-1.6.so.0:_ZN2FX14FXFileSelector11onPopupMenuEPNS_8FXObjectEjPv
libFOX-1.6.so.0:_ZN2FX14FXFileSelector11setFilenameERKNS_8FXStringE
libFOX-1.6.so.0:_ZN2FX14FXFileSelector11setReadOnlyEh
libFOX-1.6.so.0:_ZN2FX14FXFileSelector12onCmdDirTreeEPNS_8FXObjectEjPv
libFOX-1.6.so.0:_ZN2FX14FXFileSelector12setDirectoryERKNS_8FXStringE
libFOX-1.6.so.0:_ZN2FX14FXFileSelector12setImageSizeEi
libFOX-1.6.so.0:_ZN2FX14FXFileSelector12setItemSpaceEi
libFOX-1.6.so.0:_ZN2FX14FXFileSelector12setMatchModeEj
libFOX-1.6.so.0:_ZN2FX14FXFileSelector12showReadOnlyEh
libFOX-1.6.so.0:_ZN2FX14FXFileSelector13onCmdBookmarkEPNS_8FXObjectEjPv
libFOX-1.6.so.0:_ZN2FX14FXFileSelector13onUpdSelectedEPNS_8FXObjectEjPv
libFOX-1.6.so.0:_ZN2FX14FXFileSelector13setSelectModeEj
libFOX-1.6.so.0:_ZN2FX14FXFileSelector14onCmdImageSizeEPNS_8FXObjectEjPv
libFOX-1.6.so.0:_ZN2FX14FXFileSelector14onUpdImageSizeEPNS_8FXObjectEjPv
libFOX-1.6.so.0:_ZN2FX14FXFileSelector14onUpdNavigableEPNS_8FXObjectEjPv
libFOX-1.6.so.0:_ZN2FX14FXFileSelector14setPatternListERKNS_8FXStringE
libFOX-1.6.so.0:_ZN2FX14FXFileSelector14setPatternTextEiRKNS_8FXStringE
libFOX-1.6.so.0:_ZN2FX14FXFileSelector15patternFromTextERKNS_8FXStringE
libFOX-1.6.so.0:_ZN2FX14FXFileSelector15setFileBoxStyleEj
libFOX-1.6.so.0:_ZN2FX14FXFileSelector15showHiddenFilesEh
libFOX-1.6.so.0:_ZN2FX14FXFileSelector16onCmdDirectoryUpEPNS_8FXObjectEjPv
libFOX-1.6.so.0:_ZN2FX14FXFileSelector16onUpdDirectoryUpEPNS_8FXObjectEjPv
libFOX-1.6.so.0:_ZN2FX14FXFileSelector17allowPatternEntryEh
libFOX-1.6.so.0:_ZN2FX14FXFileSelector17onCmdItemSelectedEPNS_8FXObjectEjPv
libFOX-1.6.so.0:_ZN2FX14FXFileSelector17setCurrentPatternEi
libFOX-1.6.so.0:_ZN2FX14FXFileSelector19onCmdItemDblClickedEPNS_8FXObjectEjPv
libFOX-1.6.so.0:_ZN2FX14FXFileSelector19onCmdItemDeselectedEPNS_8FXObjectEjPv
libFOX-1.6.so.0:_ZN2FX14FXFileSelector20extensionFromPatternERKNS_8FXStringE
libFOX-1.6.so.0:_ZN2FX14FXFileSelector4loadERNS_8FXStreamE
libFOX-1.6.so.0:_ZN2FX14FXFileSelector6handleEPNS_8FXObjectEjPv
libFOX-1.6.so.0:_ZN2FX14FXFileSelector8onCmdNewEPNS_8FXObjectEjPv
libFOX-1.6.so.0:_ZN2FX14FXFileSelector8onUpdNewEPNS_8FXObjectEjPv
libFOX-1.6.so.0:_ZN2FX14FXFileSelector9onCmdCopyEPNS_8FXObjectEjPv
libFOX-1.6.so.0:_ZN2FX14FXFileSelector9onCmdHomeEPNS_8FXObjectEjPv
libFOX-1.6.so.0:_ZN2FX14FXFileSelector9onCmdLinkEPNS_8FXObjectEjPv
libFOX-1.6.so.0:_ZN2FX14FXFileSelector9onCmdMoveEPNS_8FXObjectEjPv
libFOX-1.6.so.0:_ZN2FX14FXFileSelector9onCmdWorkEPNS_8FXObjectEjPv
libFOX-1.6.so.0:_ZN2FX14FXFileSelectorC1EPNS_11FXCompositeEPNS_8FXObjectEjjiiii
libFOX-1.6.so.0:_ZN2FX14FXFileSelectorC2EPNS_11FXCompositeEPNS_8FXObjectEjjiiii
libFOX-1.6.so.0:_ZN2FX14FXFileSelectorD0Ev
libFOX-1.6.so.0:_ZN2FX14FXFileSelectorD1Ev
libFOX-1.6.so.0:_ZN2FX14FXFileSelectorD2Ev
libFOX-1.6.so.0:_ZN2FX14FXFontSelector10listSlantsEv
libFOX-1.6.so.0:_ZN2FX14FXFontSelector10onCmdPitchEPNS_8FXObjectEjPv
libFOX-1.6.so.0:_ZN2FX14FXFontSelector10onCmdStyleEPNS_8FXObjectEjPv
libFOX-1.6.so.0:_ZN2FX14FXFontSelector10onUpdPitchEPNS_8FXObjectEjPv
libFOX-1.6.so.0:_ZN2FX14FXFontSelector11listWeightsEv
libFOX-1.6.so.0:_ZN2FX14FXFontSelector11manufactureEv
libFOX-1.6.so.0:_ZN2FX14FXFontSelector11onCmdFamilyEPNS_8FXObjectEjPv
libFOX-1.6.so.0:_ZN2FX14FXFontSelector11onCmdWeightEPNS_8FXObjectEjPv
libFOX-1.6.so.0:_ZN2FX14FXFontSelector11previewFontEv
libFOX-1.6.so.0:_ZN2FX14FXFontSelector12onCmdCharsetEPNS_8FXObjectEjPv
libFOX-1.6.so.0:_ZN2FX14FXFontSelector12onUpdCharsetEPNS_8FXObjectEjPv
libFOX-1.6.so.0:_ZN2FX14FXFontSelector13listFontFacesEv
libFOX-1.6.so.0:_ZN2FX14FXFontSelector13listFontSizesEv
libFOX-1.6.so.0:_ZN2FX14FXFontSelector13onCmdAllFontsEPNS_8FXObjectEjPv
libFOX-1.6.so.0:_ZN2FX14FXFontSelector13onCmdScalableEPNS_8FXObjectEjPv
libFOX-1.6.so.0:_ZN2FX14FXFontSelector13onCmdSetWidthEPNS_8FXObjectEjPv
libFOX-1.6.so.0:_ZN2FX14FXFontSelector13onCmdSizeTextEPNS_8FXObjectEjPv
libFOX-1.6.so.0:_ZN2FX14FXFontSelector13onUpdAllFontsEPNS_8FXObjectEjPv
libFOX-1.6.so.0:_ZN2FX14FXFontSelector13onUpdScalableEPNS_8FXObjectEjPv
libFOX-1.6.so.0:_ZN2FX14FXFontSelector13onUpdSetWidthEPNS_8FXObjectEjPv
libFOX-1.6.so.0:_ZN2FX14FXFontSelector14onCmdStyleTextEPNS_8FXObjectEjPv
libFOX-1.6.so.0:_ZN2FX14FXFontSelector16setFontSelectionERKNS_10FXFontDescE
libFOX-1.6.so.0:_ZN2FX14FXFontSelector4loadERNS_8FXStreamE
libFOX-1.6.so.0:_ZN2FX14FXFontSelector6createEv
libFOX-1.6.so.0:_ZN2FX14FXFontSelector6handleEPNS_8FXObjectEjPv
libFOX-1.6.so.0:_ZN2FX14FXFontSelector9onCmdSizeEPNS_8FXObjectEjPv
libFOX-1.6.so.0:_ZN2FX14FXFontSelectorC1EPNS_11FXCompositeEPNS_8FXObjectEjjiiii
libFOX-1.6.so.0:_ZN2FX14FXFontSelectorC2EPNS_11FXCompositeEPNS_8FXObjectEjjiiii
libFOX-1.6.so.0:_ZN2FX14FXFontSelectorD0Ev
libFOX-1.6.so.0:_ZN2FX14FXFontSelectorD1Ev
libFOX-1.6.so.0:_ZN2FX14FXFontSelectorD2Ev
libFOX-1.6.so.0:_ZN2FX14FXGZFileStream10readBufferEm
libFOX-1.6.so.0:_ZN2FX14FXGZFileStream11writeBufferEm
libFOX-1.6.so.0:_ZN2FX14FXGZFileStream4openERKNS_8FXStringENS_17FXStreamDirectionEm
libFOX-1.6.so.0:_ZN2FX14FXGZFileStream5closeEv
libFOX-1.6.so.0:_ZN2FX14FXGZFileStream5flushEv
libFOX-1.6.so.0:_ZN2FX14FXGZFileStreamC1EPKNS_8FXObjectE
libFOX-1.6.so.0:_ZN2FX14FXGZFileStreamC2EPKNS_8FXObjectE
libFOX-1.6.so.0:_ZN2FX14FXGZFileStreamD0Ev
libFOX-1.6.so.0:_ZN2FX14FXGZFileStreamD1Ev
libFOX-1.6.so.0:_ZN2FX14FXGZFileStreamD2Ev
libFOX-1.6.so.0:_ZN2FX14FXMemoryStream10giveBufferEPhm
libFOX-1.6.so.0:_ZN2FX14FXMemoryStream10readBufferEm
libFOX-1.6.so.0:_ZN2FX14FXMemoryStream10takeBufferERPhRm
libFOX-1.6.so.0:_ZN2FX14FXMemoryStream11writeBufferEm
libFOX-1.6.so.0:_ZN2FX14FXMemoryStream4openENS_17FXStreamDirectionEPh
libFOX-1.6.so.0:_ZN2FX14FXMemoryStream4openENS_17FXStreamDirectionEmPh
libFOX-1.6.so.0:_ZN2FX14FXMemoryStream5closeEv
libFOX-1.6.so.0:_ZN2FX14FXMemoryStream8positionElNS_8FXWhenceE
libFOX-1.6.so.0:_ZN2FX14FXMemoryStreamC1EPKNS_8FXObjectE
libFOX-1.6.so.0:_ZN2FX14FXMemoryStreamC2EPKNS_8FXObjectE
libFOX-1.6.so.0:_ZN2FX14FXScrollCorner11manufactureEv
libFOX-1.6.so.0:_ZN2FX14FXScrollCorner6enableEv
libFOX-1.6.so.0:_ZN2FX14FXScrollCorner6handleEPNS_8FXObjectEjPv
libFOX-1.6.so.0:_ZN2FX14FXScrollCorner7disableEv
libFOX-1.6.so.0:_ZN2FX14FXScrollCorner7onPaintEPNS_8FXObjectEjPv
libFOX-1.6.so.0:_ZN2FX14FXScrollCornerC1EPNS_11FXCompositeE
libFOX-1.6.so.0:_ZN2FX14FXScrollCornerC1Ev
libFOX-1.6.so.0:_ZN2FX14FXScrollCornerC2EPNS_11FXCompositeE
libFOX-1.6.so.0:_ZN2FX14FXScrollCornerC2Ev
libFOX-1.6.so.0:_ZN2FX14FXScrollWindow10onKeyPressEPNS_8FXObjectEjPv
libFOX-1.6.so.0:_ZN2FX14FXScrollWindow11manufactureEv
libFOX-1.6.so.0:_ZN2FX14FXScrollWindow11onFocusSelfEPNS_8FXObjectEjPv
libFOX-1.6.so.0:_ZN2FX14FXScrollWindow12moveContentsEii
libFOX-1.6.so.0:_ZN2FX14FXScrollWindow12onKeyReleaseEPNS_8FXObjectEjPv
libFOX-1.6.so.0:_ZN2FX14FXScrollWindow15getContentWidthEv
libFOX-1.6.so.0:_ZN2FX14FXScrollWindow16getContentHeightEv
libFOX-1.6.so.0:_ZN2FX14FXScrollWindow6handleEPNS_8FXObjectEjPv
libFOX-1.6.so.0:_ZN2FX14FXScrollWindow6layoutEv
libFOX-1.6.so.0:_ZN2FX14FXScrollWindowC1EPNS_11FXCompositeEjiiii
libFOX-1.6.so.0:_ZN2FX14FXScrollWindowC2EPNS_11FXCompositeEjiiii
libFOX-1.6.so.0:_ZN2FX14FXSearchDialog11manufactureEv
libFOX-1.6.so.0:_ZN2FX14FXSearchDialog6handleEPNS_8FXObjectEjPv
libFOX-1.6.so.0:_ZN2FX14FXSearchDialogC1EPNS_8FXWindowERKNS_8FXStringEPNS_6FXIconEjiiii
libFOX-1.6.so.0:_ZN2FX14FXSearchDialogC2EPNS_8FXWindowERKNS_8FXStringEPNS_6FXIconEjiiii
libFOX-1.6.so.0:_ZN2FX14FXSearchDialogD0Ev
libFOX-1.6.so.0:_ZN2FX14FXSearchDialogD1Ev
libFOX-1.6.so.0:_ZN2FX14FXSearchDialogD2Ev
libFOX-1.6.so.0:_ZN2FX14FXSplashWindow11manufactureEv
libFOX-1.6.so.0:_ZN2FX14FXSplashWindow15getDefaultWidthEv
libFOX-1.6.so.0:_ZN2FX14FXSplashWindow16getDefaultHeightEv
libFOX-1.6.so.0:_ZN2FX14FXSplashWindow4hideEv
libFOX-1.6.so.0:_ZN2FX14FXSplashWindow4loadERNS_8FXStreamE
libFOX-1.6.so.0:_ZN2FX14FXSplashWindow4showEj
libFOX-1.6.so.0:_ZN2FX14FXSplashWindow4showEv
libFOX-1.6.so.0:_ZN2FX14FXSplashWindow6createEv
libFOX-1.6.so.0:_ZN2FX14FXSplashWindow6detachEv
libFOX-1.6.so.0:_ZN2FX14FXSplashWindow6handleEPNS_8FXObjectEjPv
libFOX-1.6.so.0:_ZN2FX14FXSplashWindow7onPaintEPNS_8FXObjectEjPv
libFOX-1.6.so.0:_ZN2FX14FXSplashWindow7setIconEPNS_6FXIconE
libFOX-1.6.so.0:_ZN2FX14FXSplashWindow8setDelayEj
libFOX-1.6.so.0:_ZN2FX14FXSplashWindowC1EPNS_5FXAppEPNS_6FXIconEjj
libFOX-1.6.so.0:_ZN2FX14FXSplashWindowC1EPNS_8FXWindowEPNS_6FXIconEjj
libFOX-1.6.so.0:_ZN2FX14FXSplashWindowC1Ev
libFOX-1.6.so.0:_ZN2FX14FXSplashWindowC2EPNS_5FXAppEPNS_6FXIconEjj
libFOX-1.6.so.0:_ZN2FX14FXSplashWindowC2EPNS_8FXWindowEPNS_6FXIconEjj
libFOX-1.6.so.0:_ZN2FX14FXSplashWindowC2Ev
libFOX-1.6.so.0:_ZN2FX14FXSplashWindowD0Ev
libFOX-1.6.so.0:_ZN2FX14FXSplashWindowD1Ev
libFOX-1.6.so.0:_ZN2FX14FXSplashWindowD2Ev
libFOX-1.6.so.0:_ZN2FX14FXStringFormatEPKcz
libFOX-1.6.so.0:_ZN2FX14FXToggleButton10onFocusOutEPNS_8FXObjectEjPv
libFOX-1.6.so.0:_ZN2FX14FXToggleButton10onKeyPressEPNS_8FXObjectEjPv
libFOX-1.6.so.0:_ZN2FX14FXToggleButton10onQueryTipEPNS_8FXObjectEjPv
libFOX-1.6.so.0:_ZN2FX14FXToggleButton10setAltIconEPNS_6FXIconE
libFOX-1.6.so.0:_ZN2FX14FXToggleButton10setAltTextERKNS_8FXStringE
libFOX-1.6.so.0:_ZN2FX14FXToggleButton11manufactureEv
libFOX-1.6.so.0:_ZN2FX14FXToggleButton11onQueryHelpEPNS_8FXObjectEjPv
libFOX-1.6.so.0:_ZN2FX14FXToggleButton11onUngrabbedEPNS_8FXObjectEjPv
libFOX-1.6.so.0:_ZN2FX14FXToggleButton12onKeyReleaseEPNS_8FXObjectEjPv
libFOX-1.6.so.0:_ZN2FX14FXToggleButton13onCmdSetValueEPNS_8FXObjectEjPv
libFOX-1.6.so.0:_ZN2FX14FXToggleButton13onHotKeyPressEPNS_8FXObjectEjPv
libFOX-1.6.so.0:_ZN2FX14FXToggleButton13setAltTipTextERKNS_8FXStringE
libFOX-1.6.so.0:_ZN2FX14FXToggleButton14onLeftBtnPressEPNS_8FXObjectEjPv
libFOX-1.6.so.0:_ZN2FX14FXToggleButton14setAltHelpTextERKNS_8FXStringE
libFOX-1.6.so.0:_ZN2FX14FXToggleButton14setToggleStyleEj
libFOX-1.6.so.0:_ZN2FX14FXToggleButton15getDefaultWidthEv
libFOX-1.6.so.0:_ZN2FX14FXToggleButton15onHotKeyReleaseEPNS_8FXObjectEjPv
libFOX-1.6.so.0:_ZN2FX14FXToggleButton16getDefaultHeightEv
libFOX-1.6.so.0:_ZN2FX14FXToggleButton16onCmdGetIntValueEPNS_8FXObjectEjPv
libFOX-1.6.so.0:_ZN2FX14FXToggleButton16onCmdSetIntValueEPNS_8FXObjectEjPv
libFOX-1.6.so.0:_ZN2FX14FXToggleButton16onLeftBtnReleaseEPNS_8FXObjectEjPv
libFOX-1.6.so.0:_ZN2FX14FXToggleButton4loadERNS_8FXStreamE
libFOX-1.6.so.0:_ZN2FX14FXToggleButton5pressEh
libFOX-1.6.so.0:_ZN2FX14FXToggleButton6createEv
libFOX-1.6.so.0:_ZN2FX14FXToggleButton6detachEv
libFOX-1.6.so.0:_ZN2FX14FXToggleButton6handleEPNS_8FXObjectEjPv
libFOX-1.6.so.0:_ZN2FX14FXToggleButton7onCheckEPNS_8FXObjectEjPv
libFOX-1.6.so.0:_ZN2FX14FXToggleButton7onEnterEPNS_8FXObjectEjPv
libFOX-1.6.so.0:_ZN2FX14FXToggleButton7onLeaveEPNS_8FXObjectEjPv
libFOX-1.6.so.0:_ZN2FX14FXToggleButton7onPaintEPNS_8FXObjectEjPv
libFOX-1.6.so.0:_ZN2FX14FXToggleButton8onUpdateEPNS_8FXObjectEjPv
libFOX-1.6.so.0:_ZN2FX14FXToggleButton8setStateEhh
libFOX-1.6.so.0:_ZN2FX14FXToggleButton9onFocusInEPNS_8FXObjectEjPv
libFOX-1.6.so.0:_ZN2FX14FXToggleButton9onUncheckEPNS_8FXObjectEjPv
libFOX-1.6.so.0:_ZN2FX14FXToggleButtonC1EPNS_11FXCompositeERKNS_8FXStringES5_PNS_6FXIconES7_PNS_8FXObjectEjjiiiiiiii
libFOX-1.6.so.0:_ZN2FX14FXToggleButtonC1Ev
libFOX-1.6.so.0:_ZN2FX14FXToggleButtonC2EPNS_11FXCompositeERKNS_8FXStringES5_PNS_6FXIconES7_PNS_8FXObjectEjjiiiiiiii
libFOX-1.6.so.0:_ZN2FX14FXToggleButtonC2Ev
libFOX-1.6.so.0:_ZN2FX14FXToggleButtonD0Ev
libFOX-1.6.so.0:_ZN2FX14FXToggleButtonD1Ev
libFOX-1.6.so.0:_ZN2FX14FXToggleButtonD2Ev
libFOX-1.6.so.0:_ZN2FX14FXToolBarShell11manufactureEv
libFOX-1.6.so.0:_ZN2FX14FXToolBarShell12setBaseColorEj
libFOX-1.6.so.0:_ZN2FX14FXToolBarShell13setFrameStyleEj
libFOX-1.6.so.0:_ZN2FX14FXToolBarShell14setBorderColorEj
libFOX-1.6.so.0:_ZN2FX14FXToolBarShell14setHiliteColorEj
libFOX-1.6.so.0:_ZN2FX14FXToolBarShell14setShadowColorEj
libFOX-1.6.so.0:_ZN2FX14FXToolBarShell15getDefaultWidthEv
libFOX-1.6.so.0:_ZN2FX14FXToolBarShell16getDefaultHeightEv
libFOX-1.6.so.0:_ZN2FX14FXToolBarShell18drawRidgeRectangleERNS_10FXDCWindowEiiii
libFOX-1.6.so.0:_ZN2FX14FXToolBarShell19drawBorderRectangleERNS_10FXDCWindowEiiii
libFOX-1.6.so.0:_ZN2FX14FXToolBarShell19drawGrooveRectangleERNS_10FXDCWindowEiiii
libFOX-1.6.so.0:_ZN2FX14FXToolBarShell19drawRaisedRectangleERNS_10FXDCWindowEiiii
libFOX-1.6.so.0:_ZN2FX14FXToolBarShell19drawSunkenRectangleERNS_10FXDCWindowEiiii
libFOX-1.6.so.0:_ZN2FX14FXToolBarShell25drawDoubleRaisedRectangleERNS_10FXDCWindowEiiii
libFOX-1.6.so.0:_ZN2FX14FXToolBarShell25drawDoubleSunkenRectangleERNS_10FXDCWindowEiiii
libFOX-1.6.so.0:_ZN2FX14FXToolBarShell4loadERNS_8FXStreamE
libFOX-1.6.so.0:_ZN2FX14FXToolBarShell6createEv
libFOX-1.6.so.0:_ZN2FX14FXToolBarShell6handleEPNS_8FXObjectEjPv
libFOX-1.6.so.0:_ZN2FX14FXToolBarShell6layoutEv
libFOX-1.6.so.0:_ZN2FX14FXToolBarShell7onPaintEPNS_8FXObjectEjPv
libFOX-1.6.so.0:_ZN2FX14FXToolBarShell9drawFrameERNS_10FXDCWindowEiiii
libFOX-1.6.so.0:_ZN2FX14FXToolBarShellC1EPNS_8FXWindowEjiiiiii
libFOX-1.6.so.0:_ZN2FX14FXToolBarShellC2EPNS_8FXWindowEjiiiiii
libFOX-1.6.so.0:_ZN2FX14FXUTF16BECodec11manufactureEv
libFOX-1.6.so.0:_ZN2FX14FXUTF16BECodec6handleEPNS_8FXObjectEjPv
libFOX-1.6.so.0:_ZN2FX14FXUTF16LECodec11manufactureEv
libFOX-1.6.so.0:_ZN2FX14FXUTF16LECodec6handleEPNS_8FXObjectEjPv
libFOX-1.6.so.0:_ZN2FX14FXUTF32BECodec11manufactureEv
libFOX-1.6.so.0:_ZN2FX14FXUTF32BECodec6handleEPNS_8FXObjectEjPv
libFOX-1.6.so.0:_ZN2FX14FXUTF32LECodec11manufactureEv
libFOX-1.6.so.0:_ZN2FX14FXUTF32LECodec6handleEPNS_8FXObjectEjPv
libFOX-1.6.so.0:_ZN2FX14compareversionEPKcRKNS_8FXStringE
libFOX-1.6.so.0:_ZN2FX14compareversionEPKcS1_
libFOX-1.6.so.0:_ZN2FX14compareversionERKNS_8FXStringEPKc
libFOX-1.6.so.0:_ZN2FX14compareversionERKNS_8FXStringES2_
libFOX-1.6.so.0:_ZN2FX15FXColorSelector10onCmdWheelEPNS_8FXObjectEjPv
libFOX-1.6.so.0:_ZN2FX15FXColorSelector10onUpdWheelEPNS_8FXObjectEjPv
libFOX-1.6.so.0:_ZN2FX15FXColorSelector10updateWellEv
libFOX-1.6.so.0:_ZN2FX15FXColorSelector11manufactureEv
libFOX-1.6.so.0:_ZN2FX15FXColorSelector12onCmdCMYTextEPNS_8FXObjectEjPv
libFOX-1.6.so.0:_ZN2FX15FXColorSelector12onCmdHSVTextEPNS_8FXObjectEjPv
libFOX-1.6.so.0:_ZN2FX15FXColorSelector12onCmdRGBTextEPNS_8FXObjectEjPv
libFOX-1.6.so.0:_ZN2FX15FXColorSelector12onUpdCMYTextEPNS_8FXObjectEjPv
libFOX-1.6.so.0:_ZN2FX15FXColorSelector12onUpdHSVTextEPNS_8FXObjectEjPv
libFOX-1.6.so.0:_ZN2FX15FXColorSelector12onUpdRGBTextEPNS_8FXObjectEjPv
libFOX-1.6.so.0:_ZN2FX15FXColorSelector13onCmdSetValueEPNS_8FXObjectEjPv
libFOX-1.6.so.0:_ZN2FX15FXColorSelector13setOpaqueOnlyEh
libFOX-1.6.so.0:_ZN2FX15FXColorSelector14onCmdAlphaTextEPNS_8FXObjectEjPv
libFOX-1.6.so.0:_ZN2FX15FXColorSelector14onCmdCMYSliderEPNS_8FXObjectEjPv
libFOX-1.6.so.0:_ZN2FX15FXColorSelector14onCmdColorPickEPNS_8FXObjectEjPv
libFOX-1.6.so.0:_ZN2FX15FXColorSelector14onCmdHSVSliderEPNS_8FXObjectEjPv
libFOX-1.6.so.0:_ZN2FX15FXColorSelector14onCmdRGBSliderEPNS_8FXObjectEjPv
libFOX-1.6.so.0:_ZN2FX15FXColorSelector14onUpdAlphaTextEPNS_8FXObjectEjPv
libFOX-1.6.so.0:_ZN2FX15FXColorSelector14onUpdCMYSliderEPNS_8FXObjectEjPv
libFOX-1.6.so.0:_ZN2FX15FXColorSelector14onUpdHSVSliderEPNS_8FXObjectEjPv
libFOX-1.6.so.0:_ZN2FX15FXColorSelector14onUpdRGBSliderEPNS_8FXObjectEjPv
libFOX-1.6.so.0:_ZN2FX15FXColorSelector15onChgCustomWellEPNS_8FXObjectEjPv
libFOX-1.6.so.0:_ZN2FX15FXColorSelector15onCmdActivePaneEPNS_8FXObjectEjPv
libFOX-1.6.so.0:_ZN2FX15FXColorSelector15onCmdCustomWellEPNS_8FXObjectEjPv
libFOX-1.6.so.0:_ZN2FX15FXColorSelector15onUpdAlphaLabelEPNS_8FXObjectEjPv
libFOX-1.6.so.0:_ZN2FX15FXColorSelector16onCmdAlphaSliderEPNS_8FXObjectEjPv
libFOX-1.6.so.0:_ZN2FX15FXColorSelector16onUpdAlphaSliderEPNS_8FXObjectEjPv
libFOX-1.6.so.0:_ZN2FX15FXColorSelector4loadERNS_8FXStreamE
libFOX-1.6.so.0:_ZN2FX15FXColorSelector6createEv
libFOX-1.6.so.0:_ZN2FX15FXColorSelector6handleEPNS_8FXObjectEjPv
libFOX-1.6.so.0:_ZN2FX15FXColorSelector7setRGBAEj
libFOX-1.6.so.0:_ZN2FX15FXColorSelector9onChgWellEPNS_8FXObjectEjPv
libFOX-1.6.so.0:_ZN2FX15FXColorSelector9onCmdListEPNS_8FXObjectEjPv
libFOX-1.6.so.0:_ZN2FX15FXColorSelector9onCmdWellEPNS_8FXObjectEjPv
libFOX-1.6.so.0:_ZN2FX15FXColorSelectorC1EPNS_11FXCompositeEPNS_8FXObjectEjjiiii
libFOX-1.6.so.0:_ZN2FX15FXColorSelectorC2EPNS_11FXCompositeEPNS_8FXObjectEjjiiii
libFOX-1.6.so.0:_ZN2FX15FXColorSelectorD0Ev
libFOX-1.6.so.0:_ZN2FX15FXColorSelectorD1Ev
libFOX-1.6.so.0:_ZN2FX15FXColorSelectorD2Ev
libFOX-1.6.so.0:_ZN2FX15FXMenuSeparator11manufactureEv
libFOX-1.6.so.0:_ZN2FX15FXMenuSeparator14setHiliteColorEj
libFOX-1.6.so.0:_ZN2FX15FXMenuSeparator14setShadowColorEj
libFOX-1.6.so.0:_ZN2FX15FXMenuSeparator15getDefaultWidthEv
libFOX-1.6.so.0:_ZN2FX15FXMenuSeparator16getDefaultHeightEv
libFOX-1.6.so.0:_ZN2FX15FXMenuSeparator4loadERNS_8FXStreamE
libFOX-1.6.so.0:_ZN2FX15FXMenuSeparator6handleEPNS_8FXObjectEjPv
libFOX-1.6.so.0:_ZN2FX15FXMenuSeparator7onPaintEPNS_8FXObjectEjPv
libFOX-1.6.so.0:_ZN2FX15FXMenuSeparatorC1EPNS_11FXCompositeEj
libFOX-1.6.so.0:_ZN2FX15FXMenuSeparatorC1Ev
libFOX-1.6.so.0:_ZN2FX15FXMenuSeparatorC2EPNS_11FXCompositeEj
libFOX-1.6.so.0:_ZN2FX15FXMenuSeparatorC2Ev
libFOX-1.6.so.0:_ZN2FX15FXReplaceDialog11manufactureEv
libFOX-1.6.so.0:_ZN2FX15FXReplaceDialog11onCmdAcceptEPNS_8FXObjectEjPv
libFOX-1.6.so.0:_ZN2FX15FXReplaceDialog11onSearchKeyEPNS_8FXObjectEjPv
libFOX-1.6.so.0:_ZN2FX15FXReplaceDialog12onReplaceKeyEPNS_8FXObjectEjPv
libFOX-1.6.so.0:_ZN2FX15FXReplaceDialog13appendHistoryERKNS_8FXStringES3_j
libFOX-1.6.so.0:_ZN2FX15FXReplaceDialog13setSearchTextERKNS_8FXStringE
libFOX-1.6.so.0:_ZN2FX15FXReplaceDialog14setReplaceTextERKNS_8FXStringE
libFOX-1.6.so.0:_ZN2FX15FXReplaceDialog15onCmdSearchHistEPNS_8FXObjectEjPv
libFOX-1.6.so.0:_ZN2FX15FXReplaceDialog16onCmdReplaceHistEPNS_8FXObjectEjPv
libFOX-1.6.so.0:_ZN2FX15FXReplaceDialog4loadERNS_8FXStreamE
libFOX-1.6.so.0:_ZN2FX15FXReplaceDialog6handleEPNS_8FXObjectEjPv
libFOX-1.6.so.0:_ZN2FX15FXReplaceDialog7executeEj
libFOX-1.6.so.0:_ZN2FX15FXReplaceDialog8onCmdAllEPNS_8FXObjectEjPv
libFOX-1.6.so.0:_ZN2FX15FXReplaceDialog8onCmdDirEPNS_8FXObjectEjPv
libFOX-1.6.so.0:_ZN2FX15FXReplaceDialog8onUpdDirEPNS_8FXObjectEjPv
libFOX-1.6.so.0:_ZN2FX15FXReplaceDialog9onCmdModeEPNS_8FXObjectEjPv
libFOX-1.6.so.0:_ZN2FX15FXReplaceDialog9onCmdNextEPNS_8FXObjectEjPv
libFOX-1.6.so.0:_ZN2FX15FXReplaceDialog9onUpdModeEPNS_8FXObjectEjPv
libFOX-1.6.so.0:_ZN2FX15FXReplaceDialogC1EPNS_8FXWindowERKNS_8FXStringEPNS_6FXIconEjiiii
libFOX-1.6.so.0:_ZN2FX15FXReplaceDialogC2EPNS_8FXWindowERKNS_8FXStringEPNS_6FXIconEjiiii
libFOX-1.6.so.0:_ZN2FX15FXReplaceDialogD0Ev
libFOX-1.6.so.0:_ZN2FX15FXReplaceDialogD1Ev
libFOX-1.6.so.0:_ZN2FX15FXReplaceDialogD2Ev
libFOX-1.6.so.0:_ZN2FX15FXStringVFormatEPKcP13__va_list_tag
libFOX-1.6.so.0:_ZN2FX15FXVerticalFrame11manufactureEv
libFOX-1.6.so.0:_ZN2FX15FXVerticalFrame15getDefaultWidthEv
libFOX-1.6.so.0:_ZN2FX15FXVerticalFrame16getDefaultHeightEv
libFOX-1.6.so.0:_ZN2FX15FXVerticalFrame6handleEPNS_8FXObjectEjPv
libFOX-1.6.so.0:_ZN2FX15FXVerticalFrame6layoutEv
libFOX-1.6.so.0:_ZN2FX15FXVerticalFrameC1EPNS_11FXCompositeEjiiiiiiiiii
libFOX-1.6.so.0:_ZN2FX15FXVerticalFrameC2EPNS_11FXCompositeEjiiiiiiiiii
libFOX-1.6.so.0:_ZN2FX15fxcolorfromnameEPKc
libFOX-1.6.so.0:_ZN2FX15fxnamefromcolorEPcj
libFOX-1.6.so.0:_ZN2FX15fxparsegeometryEPKcRiS2_S2_S2_
libFOX-1.6.so.0:_ZN2FX15makeHiliteColorEj
libFOX-1.6.so.0:_ZN2FX15makeShadowColorEj
libFOX-1.6.so.0:_ZN2FX16FXComboTableItem11manufactureEv
libFOX-1.6.so.0:_ZN2FX16FXComboTableItem13getControlForEPNS_7FXTableE
libFOX-1.6.so.0:_ZN2FX16FXComboTableItem13setSelectionsERKNS_8FXStringE
libFOX-1.6.so.0:_ZN2FX16FXComboTableItem14setFromControlEPNS_8FXWindowE
libFOX-1.6.so.0:_ZN2FX16FXComboTableItem6handleEPNS_8FXObjectEjPv
libFOX-1.6.so.0:_ZN2FX16FXComboTableItemC1ERKNS_8FXStringEPNS_6FXIconEPv
libFOX-1.6.so.0:_ZN2FX16FXComboTableItemC2ERKNS_8FXStringEPNS_6FXIconEPv
libFOX-1.6.so.0:_ZN2FX16FXComposeContext11manufactureEv
libFOX-1.6.so.0:_ZN2FX16FXComposeContext14translateEventER7_XEvent
libFOX-1.6.so.0:_ZN2FX16FXComposeContext16editDoneCallbackEPvPS0_S1_
libFOX-1.6.so.0:_ZN2FX16FXComposeContext16editDrawCallbackEPvPS0_S1_
libFOX-1.6.so.0:_ZN2FX16FXComposeContext17editCaretCallbackEPvPS0_S1_
libFOX-1.6.so.0:_ZN2FX16FXComposeContext17editStartCallbackEPvPS0_S1_
libFOX-1.6.so.0:_ZN2FX16FXComposeContext18statusDoneCallbackEPvPS0_S1_
libFOX-1.6.so.0:_ZN2FX16FXComposeContext18statusDrawCallbackEPvPS0_S1_
libFOX-1.6.so.0:_ZN2FX16FXComposeContext19statusStartCallbackEPvPS0_S1_
libFOX-1.6.so.0:_ZN2FX16FXComposeContext6createEv
libFOX-1.6.so.0:_ZN2FX16FXComposeContext6handleEPNS_8FXObjectEjPv
libFOX-1.6.so.0:_ZN2FX16FXComposeContext7destroyEv
libFOX-1.6.so.0:_ZN2FX16FXComposeContext7focusInEv
libFOX-1.6.so.0:_ZN2FX16FXComposeContext7setAreaEiiii
libFOX-1.6.so.0:_ZN2FX16FXComposeContext7setSpotEii
libFOX-1.6.so.0:_ZN2FX16FXComposeContext8focusOutEv
libFOX-1.6.so.0:_ZN2FX16FXComposeContextC1EPNS_5FXAppEPNS_8FXWindowEj
libFOX-1.6.so.0:_ZN2FX16FXComposeContextC1Ev
libFOX-1.6.so.0:_ZN2FX16FXComposeContextC2EPNS_5FXAppEPNS_8FXWindowEj
libFOX-1.6.so.0:_ZN2FX16FXComposeContextC2Ev
libFOX-1.6.so.0:_ZN2FX16FXComposeContextD0Ev
libFOX-1.6.so.0:_ZN2FX16FXComposeContextD1Ev
libFOX-1.6.so.0:_ZN2FX16FXComposeContextD2Ev
libFOX-1.6.so.0:_ZN2FX16FXGLTriangleMesh11manufactureEv
libFOX-1.6.so.0:_ZN2FX16FXGLTriangleMesh14recomputerangeEv
libFOX-1.6.so.0:_ZN2FX16FXGLTriangleMesh15generatenormalsEv
libFOX-1.6.so.0:_ZN2FX16FXGLTriangleMesh15setVertexBufferEPf
libFOX-1.6.so.0:_ZN2FX16FXGLTriangleMesh4copyEv
libFOX-1.6.so.0:_ZN2FX16FXGLTriangleMesh4loadERNS_8FXStreamE
libFOX-1.6.so.0:_ZN2FX16FXGLTriangleMesh6handleEPNS_8FXObjectEjPv
libFOX-1.6.so.0:_ZN2FX16FXGLTriangleMesh9drawshapeEPNS_10FXGLViewerE
libFOX-1.6.so.0:_ZN2FX16FXGLTriangleMeshC1ERKS0_
libFOX-1.6.so.0:_ZN2FX16FXGLTriangleMeshC1EfffiPfS1_S1_S1_
libFOX-1.6.so.0:_ZN2FX16FXGLTriangleMeshC1EfffiPfS1_S1_S1_RKNS_10FXMaterialE
libFOX-1.6.so.0:_ZN2FX16FXGLTriangleMeshC1Ev
libFOX-1.6.so.0:_ZN2FX16FXGLTriangleMeshC2ERKS0_
libFOX-1.6.so.0:_ZN2FX16FXGLTriangleMeshC2EfffiPfS1_S1_S1_
libFOX-1.6.so.0:_ZN2FX16FXGLTriangleMeshC2EfffiPfS1_S1_S1_RKNS_10FXMaterialE
libFOX-1.6.so.0:_ZN2FX16FXGLTriangleMeshC2Ev
libFOX-1.6.so.0:_ZN2FX16FXGLTriangleMeshD0Ev
libFOX-1.6.so.0:_ZN2FX16FXGLTriangleMeshD1Ev
libFOX-1.6.so.0:_ZN2FX16FXGLTriangleMeshD2Ev
libFOX-1.6.so.0:_ZN2FX16FXProgressDialog10setMessageERKNS_8FXStringE
libFOX-1.6.so.0:_ZN2FX16FXProgressDialog11manufactureEv
libFOX-1.6.so.0:_ZN2FX16FXProgressDialog11onCmdCancelEPNS_8FXObjectEjPv
libFOX-1.6.so.0:_ZN2FX16FXProgressDialog11setBarStyleEj
libFOX-1.6.so.0:_ZN2FX16FXProgressDialog11setProgressEj
libFOX-1.6.so.0:_ZN2FX16FXProgressDialog13onCmdSetValueEPNS_8FXObjectEjPv
libFOX-1.6.so.0:_ZN2FX16FXProgressDialog16onCmdGetIntValueEPNS_8FXObjectEjPv
libFOX-1.6.so.0:_ZN2FX16FXProgressDialog16onCmdSetIntValueEPNS_8FXObjectEjPv
libFOX-1.6.so.0:_ZN2FX16FXProgressDialog19onCmdGetStringValueEPNS_8FXObjectEjPv
libFOX-1.6.so.0:_ZN2FX16FXProgressDialog19onCmdSetStringValueEPNS_8FXObjectEjPv
libFOX-1.6.so.0:_ZN2FX16FXProgressDialog6handleEPNS_8FXObjectEjPv
libFOX-1.6.so.0:_ZN2FX16FXProgressDialog8setTotalEj
libFOX-1.6.so.0:_ZN2FX16FXProgressDialog9incrementEj
libFOX-1.6.so.0:_ZN2FX16FXProgressDialogC1EPNS_8FXWindowERKNS_8FXStringES5_jiiii
libFOX-1.6.so.0:_ZN2FX16FXProgressDialogC1Ev
libFOX-1.6.so.0:_ZN2FX16FXProgressDialogC2EPNS_8FXWindowERKNS_8FXStringES5_jiiii
libFOX-1.6.so.0:_ZN2FX16FXProgressDialogC2Ev
libFOX-1.6.so.0:_ZN2FX16FXProgressDialogD0Ev
libFOX-1.6.so.0:_ZN2FX16FXProgressDialogD1Ev
libFOX-1.6.so.0:_ZN2FX16FXProgressDialogD2Ev
libFOX-1.6.so.0:_ZN2FX16FXTriStateButton10onQueryTipEPNS_8FXObjectEjPv
libFOX-1.6.so.0:_ZN2FX16FXTriStateButton11manufactureEv
libFOX-1.6.so.0:_ZN2FX16FXTriStateButton11onQueryHelpEPNS_8FXObjectEjPv
libFOX-1.6.so.0:_ZN2FX16FXTriStateButton12setMaybeIconEPNS_6FXIconE
libFOX-1.6.so.0:_ZN2FX16FXTriStateButton12setMaybeTextERKNS_8FXStringE
libFOX-1.6.so.0:_ZN2FX16FXTriStateButton15getDefaultWidthEv
libFOX-1.6.so.0:_ZN2FX16FXTriStateButton15setMaybeTipTextERKNS_8FXStringE
libFOX-1.6.so.0:_ZN2FX16FXTriStateButton16getDefaultHeightEv
libFOX-1.6.so.0:_ZN2FX16FXTriStateButton16setMaybeHelpTextERKNS_8FXStringE
libFOX-1.6.so.0:_ZN2FX16FXTriStateButton4loadERNS_8FXStreamE
libFOX-1.6.so.0:_ZN2FX16FXTriStateButton6createEv
libFOX-1.6.so.0:_ZN2FX16FXTriStateButton6detachEv
libFOX-1.6.so.0:_ZN2FX16FXTriStateButton6handleEPNS_8FXObjectEjPv
libFOX-1.6.so.0:_ZN2FX16FXTriStateButton7onPaintEPNS_8FXObjectEjPv
libFOX-1.6.so.0:_ZN2FX16FXTriStateButton9onUnknownEPNS_8FXObjectEjPv
libFOX-1.6.so.0:_ZN2FX16FXTriStateButtonC1EPNS_11FXCompositeERKNS_8FXStringES5_S5_PNS_6FXIconES7_S7_PNS_8FXObjectEjjiiiiiiii
libFOX-1.6.so.0:_ZN2FX16FXTriStateButtonC1Ev
libFOX-1.6.so.0:_ZN2FX16FXTriStateButtonC2EPNS_11FXCompositeERKNS_8FXStringES5_S5_PNS_6FXIconES7_S7_PNS_8FXObjectEjjiiiiiiii
libFOX-1.6.so.0:_ZN2FX16FXTriStateButtonC2Ev
libFOX-1.6.so.0:_ZN2FX16FXTriStateButtonD0Ev
libFOX-1.6.so.0:_ZN2FX16FXTriStateButtonD1Ev
libFOX-1.6.so.0:_ZN2FX16FXTriStateButtonD2Ev
libFOX-1.6.so.0:_ZN2FX16fxieeefloatclassEf
libFOX-1.6.so.0:_ZN2FX17FXHorizontalFrame11manufactureEv
libFOX-1.6.so.0:_ZN2FX17FXHorizontalFrame15getDefaultWidthEv
libFOX-1.6.so.0:_ZN2FX17FXHorizontalFrame16getDefaultHeightEv
libFOX-1.6.so.0:_ZN2FX17FXHorizontalFrame6handleEPNS_8FXObjectEjPv
libFOX-1.6.so.0:_ZN2FX17FXHorizontalFrame6layoutEv
libFOX-1.6.so.0:_ZN2FX17FXHorizontalFrameC1EPNS_11FXCompositeEjiiiiiiiiii
libFOX-1.6.so.0:_ZN2FX17FXHorizontalFrameC2EPNS_11FXCompositeEjiiiiiiiiii
libFOX-1.6.so.0:_ZN2FX17FXMDIDeleteButton11manufactureEv
libFOX-1.6.so.0:_ZN2FX17FXMDIDeleteButton15getDefaultWidthEv
libFOX-1.6.so.0:_ZN2FX17FXMDIDeleteButton16getDefaultHeightEv
libFOX-1.6.so.0:_ZN2FX17FXMDIDeleteButton6handleEPNS_8FXObjectEjPv
libFOX-1.6.so.0:_ZN2FX17FXMDIDeleteButton7onPaintEPNS_8FXObjectEjPv
libFOX-1.6.so.0:_ZN2FX17FXMDIDeleteButtonC1EPNS_11FXCompositeEPNS_8FXObjectEjjiiii
libFOX-1.6.so.0:_ZN2FX17FXMDIDeleteButtonC2EPNS_11FXCompositeEPNS_8FXObjectEjjiiii
libFOX-1.6.so.0:_ZN2FX17FXMDIWindowButton11manufactureEv
libFOX-1.6.so.0:_ZN2FX17FXMDIWindowButton15getDefaultWidthEv
libFOX-1.6.so.0:_ZN2FX17FXMDIWindowButton16getDefaultHeightEv
libFOX-1.6.so.0:_ZN2FX17FXMDIWindowButton6handleEPNS_8FXObjectEjPv
libFOX-1.6.so.0:_ZN2FX17FXMDIWindowButton7onPaintEPNS_8FXObjectEjPv
libFOX-1.6.so.0:_ZN2FX17FXMDIWindowButtonC1EPNS_11FXCompositeEPNS_7FXPopupEPNS_8FXObjectEjjiiii
libFOX-1.6.so.0:_ZN2FX17FXMDIWindowButtonC2EPNS_11FXCompositeEPNS_7FXPopupEPNS_8FXObjectEjjiiii
libFOX-1.6.so.0:_ZN2FX17fxieeedoubleclassEd
libFOX-1.6.so.0:_ZN2FX17translateKeyEventER7_XEvent
libFOX-1.6.so.0:_ZN2FX18FXMDIRestoreButton11manufactureEv
libFOX-1.6.so.0:_ZN2FX18FXMDIRestoreButton15getDefaultWidthEv
libFOX-1.6.so.0:_ZN2FX18FXMDIRestoreButton16getDefaultHeightEv
libFOX-1.6.so.0:_ZN2FX18FXMDIRestoreButton6handleEPNS_8FXObjectEjPv
libFOX-1.6.so.0:_ZN2FX18FXMDIRestoreButton7onPaintEPNS_8FXObjectEjPv
libFOX-1.6.so.0:_ZN2FX18FXMDIRestoreButtonC1EPNS_11FXCompositeEPNS_8FXObjectEjjiiii
libFOX-1.6.so.0:_ZN2FX18FXMDIRestoreButtonC2EPNS_11FXCompositeEPNS_8FXObjectEjjiiii
libFOX-1.6.so.0:_ZN2FX19FXMDIMaximizeButton11manufactureEv
libFOX-1.6.so.0:_ZN2FX19FXMDIMaximizeButton15getDefaultWidthEv
libFOX-1.6.so.0:_ZN2FX19FXMDIMaximizeButton16getDefaultHeightEv
libFOX-1.6.so.0:_ZN2FX19FXMDIMaximizeButton6handleEPNS_8FXObjectEjPv
libFOX-1.6.so.0:_ZN2FX19FXMDIMaximizeButton7onPaintEPNS_8FXObjectEjPv
libFOX-1.6.so.0:_ZN2FX19FXMDIMaximizeButtonC1EPNS_11FXCompositeEPNS_8FXObjectEjjiiii
libFOX-1.6.so.0:_ZN2FX19FXMDIMaximizeButtonC2EPNS_11FXCompositeEPNS_8FXObjectEjjiiii
libFOX-1.6.so.0:_ZN2FX19FXMDIMinimizeButton11manufactureEv
libFOX-1.6.so.0:_ZN2FX19FXMDIMinimizeButton15getDefaultWidthEv
libFOX-1.6.so.0:_ZN2FX19FXMDIMinimizeButton16getDefaultHeightEv
libFOX-1.6.so.0:_ZN2FX19FXMDIMinimizeButton6handleEPNS_8FXObjectEjPv
libFOX-1.6.so.0:_ZN2FX19FXMDIMinimizeButton7onPaintEPNS_8FXObjectEjPv
libFOX-1.6.so.0:_ZN2FX19FXMDIMinimizeButtonC1EPNS_11FXCompositeEPNS_8FXObjectEjjiiii
libFOX-1.6.so.0:_ZN2FX19FXMDIMinimizeButtonC2EPNS_11FXCompositeEPNS_8FXObjectEjjiiii
libFOX-1.6.so.0:_ZN2FX19FXVerticalSeparator11manufactureEv
libFOX-1.6.so.0:_ZN2FX19FXVerticalSeparator6handleEPNS_8FXObjectEjPv
libFOX-1.6.so.0:_ZN2FX19FXVerticalSeparatorC1EPNS_11FXCompositeEjiiiiiiii
libFOX-1.6.so.0:_ZN2FX19FXVerticalSeparatorC2EPNS_11FXCompositeEjiiiiiiii
libFOX-1.6.so.0:_ZN2FX21FXHorizontalSeparator11manufactureEv
libFOX-1.6.so.0:_ZN2FX21FXHorizontalSeparator6handleEPNS_8FXObjectEjPv
libFOX-1.6.so.0:_ZN2FX21FXHorizontalSeparatorC1EPNS_11FXCompositeEjiiiiiiii
libFOX-1.6.so.0:_ZN2FX21FXHorizontalSeparatorC2EPNS_11FXCompositeEjiiiiiiii
libFOX-1.6.so.0:_ZN2FX2wcEPKc
libFOX-1.6.so.0:_ZN2FX2wcEPKt
libFOX-1.6.so.0:_ZN2FX4FXDC10drawBitmapEPKNS_8FXBitmapEii
libFOX-1.6.so.0:_ZN2FX4FXDC10drawPointsEPKNS_7FXPointEj
libFOX-1.6.so.0:_ZN2FX4FXDC10fillChordsEPKNS_5FXArcEj
libFOX-1.6.so.0:_ZN2FX4FXDC10setLineCapENS_10FXCapStyleE
libFOX-1.6.so.0:_ZN2FX4FXDC10setStippleENS_16FXStipplePatternEii
libFOX-1.6.so.0:_ZN2FX4FXDC10setStippleEPNS_8FXBitmapEii
libFOX-1.6.so.0:_ZN2FX4FXDC11drawEllipseEiiii
libFOX-1.6.so.0:_ZN2FX4FXDC11drawHashBoxEiiiii
libFOX-1.6.so.0:_ZN2FX4FXDC11fillEllipseEiiii
libFOX-1.6.so.0:_ZN2FX4FXDC11fillPolygonEPKNS_7FXPointEj
libFOX-1.6.so.0:_ZN2FX4FXDC11setClipMaskEPNS_8FXBitmapEii
libFOX-1.6.so.0:_ZN2FX4FXDC11setFillRuleENS_10FXFillRuleE
libFOX-1.6.so.0:_ZN2FX4FXDC11setFunctionENS_10FXFunctionE
libFOX-1.6.so.0:_ZN2FX4FXDC11setLineJoinENS_11FXJoinStyleE
libFOX-1.6.so.0:_ZN2FX4FXDC12clipChildrenEh
libFOX-1.6.so.0:_ZN2FX4FXDC12drawLinesRelEPKNS_7FXPointEj
libFOX-1.6.so.0:_ZN2FX4FXDC12setFillStyleENS_11FXFillStyleE
libFOX-1.6.so.0:_ZN2FX4FXDC12setLineStyleENS_11FXLineStyleE
libFOX-1.6.so.0:_ZN2FX4FXDC12setLineWidthEj
libFOX-1.6.so.0:_ZN2FX4FXDC13clearClipMaskEv
libFOX-1.6.so.0:_ZN2FX4FXDC13drawImageTextEiiPKcj
libFOX-1.6.so.0:_ZN2FX4FXDC13drawImageTextEiiRKNS_8FXStringE
libFOX-1.6.so.0:_ZN2FX4FXDC13drawPointsRelEPKNS_7FXPointEj
libFOX-1.6.so.0:_ZN2FX4FXDC13drawRectangleEiiii
libFOX-1.6.so.0:_ZN2FX4FXDC13fillRectangleEiiii
libFOX-1.6.so.0:_ZN2FX4FXDC13setBackgroundEj
libFOX-1.6.so.0:_ZN2FX4FXDC13setClipRegionERKNS_8FXRegionE
libFOX-1.6.so.0:_ZN2FX4FXDC13setForegroundEj
libFOX-1.6.so.0:_ZN2FX4FXDC14drawIconShadedEPKNS_6FXIconEii
libFOX-1.6.so.0:_ZN2FX4FXDC14drawIconSunkenEPKNS_6FXIconEii
libFOX-1.6.so.0:_ZN2FX4FXDC14drawRectanglesEPKNS_11FXRectangleEj
libFOX-1.6.so.0:_ZN2FX4FXDC14fillPolygonRelEPKNS_7FXPointEj
libFOX-1.6.so.0:_ZN2FX4FXDC14fillRectanglesEPKNS_11FXRectangleEj
libFOX-1.6.so.0:_ZN2FX4FXDC16drawLineSegmentsEPKNS_9FXSegmentEj
libFOX-1.6.so.0:_ZN2FX4FXDC16setClipRectangleERKNS_11FXRectangleE
libFOX-1.6.so.0:_ZN2FX4FXDC16setClipRectangleEiiii
libFOX-1.6.so.0:_ZN2FX4FXDC18clearClipRectangleEv
libFOX-1.6.so.0:_ZN2FX4FXDC18drawFocusRectangleEiiii
libFOX-1.6.so.0:_ZN2FX4FXDC18drawRoundRectangleEiiiiii
libFOX-1.6.so.0:_ZN2FX4FXDC18fillComplexPolygonEPKNS_7FXPointEj
libFOX-1.6.so.0:_ZN2FX4FXDC18fillConcavePolygonEPKNS_7FXPointEj
libFOX-1.6.so.0:_ZN2FX4FXDC18fillRoundRectangleEiiiiii
libFOX-1.6.so.0:_ZN2FX4FXDC21fillComplexPolygonRelEPKNS_7FXPointEj
libFOX-1.6.so.0:_ZN2FX4FXDC21fillConcavePolygonRelEPKNS_7FXPointEj
libFOX-1.6.so.0:_ZN2FX4FXDC7drawArcEiiiiii
libFOX-1.6.so.0:_ZN2FX4FXDC7fillArcEiiiiii
libFOX-1.6.so.0:_ZN2FX4FXDC7setFontEPNS_6FXFontE
libFOX-1.6.so.0:_ZN2FX4FXDC7setTileEPNS_7FXImageEii
libFOX-1.6.so.0:_ZN2FX4FXDC8drawArcsEPKNS_5FXArcEj
libFOX-1.6.so.0:_ZN2FX4FXDC8drawAreaEPKNS_10FXDrawableEiiiiii
libFOX-1.6.so.0:_ZN2FX4FXDC8drawAreaEPKNS_10FXDrawableEiiiiiiii
libFOX-1.6.so.0:_ZN2FX4FXDC8drawIconEPKNS_6FXIconEii
libFOX-1.6.so.0:_ZN2FX4FXDC8drawLineEiiii
libFOX-1.6.so.0:_ZN2FX4FXDC8drawTextEiiPKcj
libFOX-1.6.so.0:_ZN2FX4FXDC8drawTextEiiRKNS_8FXStringE
libFOX-1.6.so.0:_ZN2FX4FXDC8fillArcsEPKNS_5FXArcEj
libFOX-1.6.so.0:_ZN2FX4FXDC9drawImageEPKNS_7FXImageEii
libFOX-1.6.so.0:_ZN2FX4FXDC9drawLinesEPKNS_7FXPointEj
libFOX-1.6.so.0:_ZN2FX4FXDC9drawPointEii
libFOX-1.6.so.0:_ZN2FX4FXDC9fillChordEiiiiii
libFOX-1.6.so.0:_ZN2FX4FXDC9readPixelEii
libFOX-1.6.so.0:_ZN2FX4FXDC9setDashesEjPKcj
libFOX-1.6.so.0:_ZN2FX4FXDCC1EPNS_5FXAppE
libFOX-1.6.so.0:_ZN2FX4FXDCC2EPNS_5FXAppE
libFOX-1.6.so.0:_ZN2FX4FXDCD0Ev
libFOX-1.6.so.0:_ZN2FX4FXDCD1Ev
libFOX-1.6.so.0:_ZN2FX4FXDCD2Ev
libFOX-1.6.so.0:_ZN2FX4FXIO10writeBlockEPKvl
libFOX-1.6.so.0:_ZN2FX4FXIO3eofEv
libFOX-1.6.so.0:_ZN2FX4FXIO4openEij
libFOX-1.6.so.0:_ZN2FX4FXIO4sizeEv
libFOX-1.6.so.0:_ZN2FX4FXIO5closeEv
libFOX-1.6.so.0:_ZN2FX4FXIO5flushEv
libFOX-1.6.so.0:_ZN2FX4FXIO6attachEij
libFOX-1.6.so.0:_ZN2FX4FXIO6detachEv
libFOX-1.6.so.0:_ZN2FX4FXIO8positionElj
libFOX-1.6.so.0:_ZN2FX4FXIO8truncateEl
libFOX-1.6.so.0:_ZN2FX4FXIO9readBlockEPvl
libFOX-1.6.so.0:_ZN2FX4FXIOC1Ev
libFOX-1.6.so.0:_ZN2FX4FXIOC2Ev
libFOX-1.6.so.0:_ZN2FX4FXIOD0Ev
libFOX-1.6.so.0:_ZN2FX4FXIOD1Ev
libFOX-1.6.so.0:_ZN2FX4FXIOD2Ev
libFOX-1.6.so.0:_ZN2FX4FXId4loadERNS_8FXStreamE
libFOX-1.6.so.0:_ZN2FX4FXId6handleEPNS_8FXObjectEjPv
libFOX-1.6.so.0:_ZN2FX5Ascii10digitValueEc
libFOX-1.6.so.0:_ZN2FX5Ascii10isHexDigitEc
libFOX-1.6.so.0:_ZN2FX5Ascii14isAlphaNumericEc
libFOX-1.6.so.0:_ZN2FX5Ascii5isSepEc
libFOX-1.6.so.0:_ZN2FX5Ascii7hasCaseEc
libFOX-1.6.so.0:_ZN2FX5Ascii7isAsciiEc
libFOX-1.6.so.0:_ZN2FX5Ascii7isBlankEc
libFOX-1.6.so.0:_ZN2FX5Ascii7isDigitEc
libFOX-1.6.so.0:_ZN2FX5Ascii7isGraphEc
libFOX-1.6.so.0:_ZN2FX5Ascii7isLowerEc
libFOX-1.6.so.0:_ZN2FX5Ascii7isPrintEc
libFOX-1.6.so.0:_ZN2FX5Ascii7isPunctEc
libFOX-1.6.so.0:_ZN2FX5Ascii7isSpaceEc
libFOX-1.6.so.0:_ZN2FX5Ascii7isTitleEc
libFOX-1.6.so.0:_ZN2FX5Ascii7isUpperEc
libFOX-1.6.so.0:_ZN2FX5Ascii7toLowerEc
libFOX-1.6.so.0:_ZN2FX5Ascii7toTitleEc
libFOX-1.6.so.0:_ZN2FX5Ascii7toUpperEc
libFOX-1.6.so.0:_ZN2FX5Ascii8isLetterEc
libFOX-1.6.so.0:_ZN2FX5Ascii8isSymbolEc
libFOX-1.6.so.0:_ZN2FX5Ascii9isControlEc
libFOX-1.6.so.0:_ZN2FX5FXApp10addRepaintEmiiiih
libFOX-1.6.so.0:_ZN2FX5FXApp10addTimeoutEPNS_8FXObjectEjjPv
libFOX-1.6.so.0:_ZN2FX5FXApp10onCmdHoverEPNS_8FXObjectEjPv
libFOX-1.6.so.0:_ZN2FX5FXApp10readWindowERNS_8FXStreamERPNS_8FXWindowES4_S4_
libFOX-1.6.so.0:_ZN2FX5FXApp11enterWindowEPNS_8FXWindowES2_
libFOX-1.6.so.0:_ZN2FX5FXApp11leaveWindowEPNS_8FXWindowES2_
libFOX-1.6.so.0:_ZN2FX5FXApp11manufactureEv
libFOX-1.6.so.0:_ZN2FX5FXApp11openDisplayEPKc
libFOX-1.6.so.0:_ZN2FX5FXApp11removeChoreEPNS_8FXObjectEj
libFOX-1.6.so.0:_ZN2FX5FXApp11removeInputEij
libFOX-1.6.so.0:_ZN2FX5FXApp11runModalForEPNS_8FXWindowE
libFOX-1.6.so.0:_ZN2FX5FXApp11runOneEventEb
libFOX-1.6.so.0:_ZN2FX5FXApp11writeWindowERNS_8FXStreamEPNS_8FXWindowE
libFOX-1.6.so.0:_ZN2FX5FXApp12closeDisplayEv
libFOX-1.6.so.0:_ZN2FX5FXApp12forceRefreshEv
libFOX-1.6.so.0:_ZN2FX5FXApp12getNextEventER7_XEventb
libFOX-1.6.so.0:_ZN2FX5FXApp12removeSignalEi
libFOX-1.6.so.0:_ZN2FX5FXApp12setAnimSpeedEj
libFOX-1.6.so.0:_ZN2FX5FXApp12setBackColorEj
libFOX-1.6.so.0:_ZN2FX5FXApp12setBaseColorEj
libFOX-1.6.so.0:_ZN2FX5FXApp12setDragDeltaEi
libFOX-1.6.so.0:_ZN2FX5FXApp12setForeColorEj
libFOX-1.6.so.0:_ZN2FX5FXApp12setMenuPauseEj
libFOX-1.6.so.0:_ZN2FX5FXApp13dispatchEventER7_XEvent
libFOX-1.6.so.0:_ZN2FX5FXApp13endWaitCursorEv
libFOX-1.6.so.0:_ZN2FX5FXApp13removeTimeoutEPNS_8FXObjectEj
libFOX-1.6.so.0:_ZN2FX5FXApp13setBlinkSpeedEj
libFOX-1.6.so.0:_ZN2FX5FXApp13setClickSpeedEj
libFOX-1.6.so.0:_ZN2FX5FXApp13setNormalFontEPNS_6FXFontE
libFOX-1.6.so.0:_ZN2FX5FXApp13setRootWindowEPNS_12FXRootWindowE
libFOX-1.6.so.0:_ZN2FX5FXApp13setTranslatorEPNS_12FXTranslatorE
libFOX-1.6.so.0:_ZN2FX5FXApp13setWaitCursorEPNS_8FXCursorE
libFOX-1.6.so.0:_ZN2FX5FXApp13setWheelLinesEi
libFOX-1.6.so.0:_ZN2FX5FXApp13signalhandlerEi
libFOX-1.6.so.0:_ZN2FX5FXApp14handleTimeoutsEv
libFOX-1.6.so.0:_ZN2FX5FXApp14removeRepaintsEmiiii
libFOX-1.6.so.0:_ZN2FX5FXApp14runWhileEventsEv
libFOX-1.6.so.0:_ZN2FX5FXApp14scrollRepaintsEmii
libFOX-1.6.so.0:_ZN2FX5FXApp14setBorderColorEj
libFOX-1.6.so.0:_ZN2FX5FXApp14setHiliteColorEj
libFOX-1.6.so.0:_ZN2FX5FXApp14setScrollDelayEj
libFOX-1.6.so.0:_ZN2FX5FXApp14setScrollSpeedEj
libFOX-1.6.so.0:_ZN2FX5FXApp14setShadowColorEj
libFOX-1.6.so.0:_ZN2FX5FXApp14setTooltipTimeEj
libFOX-1.6.so.0:_ZN2FX5FXApp14setTypingSpeedEj
libFOX-1.6.so.0:_ZN2FX5FXApp15beginWaitCursorEv
libFOX-1.6.so.0:_ZN2FX5FXApp15dragdropGetDataEPKNS_8FXWindowEmRPhRj
libFOX-1.6.so.0:_ZN2FX5FXApp15dragdropSetDataEPKNS_8FXWindowEmPhj
libFOX-1.6.so.0:_ZN2FX5FXApp15setSelbackColorEj
libFOX-1.6.so.0:_ZN2FX5FXApp15setSelforeColorEj
libFOX-1.6.so.0:_ZN2FX5FXApp15setTipbackColorEj
libFOX-1.6.so.0:_ZN2FX5FXApp15setTipforeColorEj
libFOX-1.6.so.0:_ZN2FX5FXApp15setTooltipPauseEj
libFOX-1.6.so.0:_ZN2FX5FXApp16clipboardGetDataEPKNS_8FXWindowEmRPhRj
libFOX-1.6.so.0:_ZN2FX5FXApp16clipboardSetDataEPKNS_8FXWindowEmPhj
libFOX-1.6.so.0:_ZN2FX5FXApp16dragdropGetTypesEPKNS_8FXWindowERPmRj
libFOX-1.6.so.0:_ZN2FX5FXApp16imcreatecallbackEPvPS0_S1_
libFOX-1.6.so.0:_ZN2FX5FXApp16remainingTimeoutEPNS_8FXObjectEj
libFOX-1.6.so.0:_ZN2FX5FXApp16selectionGetDataEPKNS_8FXWindowEmRPhRj
libFOX-1.6.so.0:_ZN2FX5FXApp16selectionSetDataEPKNS_8FXWindowEmPhj
libFOX-1.6.so.0:_ZN2FX5FXApp16setDefaultCursorENS_15FXDefaultCursorEPNS_8FXCursorE
libFOX-1.6.so.0:_ZN2FX5FXApp16setDefaultVisualEPNS_8FXVisualE
libFOX-1.6.so.0:_ZN2FX5FXApp16setScrollBarSizeEi
libFOX-1.6.so.0:_ZN2FX5FXApp17clipboardGetTypesEPKNS_8FXWindowERPmRj
libFOX-1.6.so.0:_ZN2FX5FXApp17imdestroycallbackEPvPS0_S1_
libFOX-1.6.so.0:_ZN2FX5FXApp17selectionGetTypesEPKNS_8FXWindowERPmRj
libFOX-1.6.so.0:_ZN2FX5FXApp18runModalWhileShownEPNS_8FXWindowE
libFOX-1.6.so.0:_ZN2FX5FXApp19runModalWhileEventsEPNS_8FXWindowE
libFOX-1.6.so.0:_ZN2FX5FXApp19setSelMenuBackColorEj
libFOX-1.6.so.0:_ZN2FX5FXApp19setSelMenuTextColorEj
libFOX-1.6.so.0:_ZN2FX5FXApp22immediatesignalhandlerEi
libFOX-1.6.so.0:_ZN2FX5FXApp3runEv
libFOX-1.6.so.0:_ZN2FX5FXApp4beepEv
libFOX-1.6.so.0:_ZN2FX5FXApp4exitEi
libFOX-1.6.so.0:_ZN2FX5FXApp4initERiPPcb
libFOX-1.6.so.0:_ZN2FX5FXApp4loadERNS_8FXStreamE
libFOX-1.6.so.0:_ZN2FX5FXApp4stopEi
libFOX-1.6.so.0:_ZN2FX5FXApp5flushEb
libFOX-1.6.so.0:_ZN2FX5FXApp6createEv
libFOX-1.6.so.0:_ZN2FX5FXApp6detachEv
libFOX-1.6.so.0:_ZN2FX5FXApp6handleEPNS_8FXObjectEjPv
libFOX-1.6.so.0:_ZN2FX5FXApp7destroyEv
libFOX-1.6.so.0:_ZN2FX5FXApp7refreshEv
libFOX-1.6.so.0:_ZN2FX5FXApp7repaintEv
libFOX-1.6.so.0:_ZN2FX5FXApp8addChoreEPNS_8FXObjectEjPv
libFOX-1.6.so.0:_ZN2FX5FXApp8addInputEijPNS_8FXObjectEj
libFOX-1.6.so.0:_ZN2FX5FXApp8runModalEv
libFOX-1.6.so.0:_ZN2FX5FXApp8runPopupEPNS_8FXWindowE
libFOX-1.6.so.0:_ZN2FX5FXApp8runUntilERj
libFOX-1.6.so.0:_ZN2FX5FXApp9addSignalEiPNS_8FXObjectEjhj
libFOX-1.6.so.0:_ZN2FX5FXApp9onCmdDumpEPNS_8FXObjectEjPv
libFOX-1.6.so.0:_ZN2FX5FXApp9onCmdQuitEPNS_8FXObjectEjPv
libFOX-1.6.so.0:_ZN2FX5FXApp9peekEventEv
libFOX-1.6.so.0:_ZN2FX5FXApp9stopModalEPNS_8FXWindowEi
libFOX-1.6.so.0:_ZN2FX5FXApp9stopModalEi
libFOX-1.6.so.0:_ZN2FX5FXAppC1ERKNS_8FXStringES3_
libFOX-1.6.so.0:_ZN2FX5FXAppC2ERKNS_8FXStringES3_
libFOX-1.6.so.0:_ZN2FX5FXAppD0Ev
libFOX-1.6.so.0:_ZN2FX5FXAppD1Ev
libFOX-1.6.so.0:_ZN2FX5FXAppD2Ev
libFOX-1.6.so.0:_ZN2FX5FXDir10listDrivesERPNS_8FXStringE
libFOX-1.6.so.0:_ZN2FX5FXDir4nextEv
libFOX-1.6.so.0:_ZN2FX5FXDir4openERKNS_8FXStringE
libFOX-1.6.so.0:_ZN2FX5FXDir5closeEv
libFOX-1.6.so.0:_ZN2FX5FXDir6createERKNS_8FXStringEj
libFOX-1.6.so.0:_ZN2FX5FXDir6removeERKNS_8FXStringE
libFOX-1.6.so.0:_ZN2FX5FXDir6renameERKNS_8FXStringES3_
libFOX-1.6.so.0:_ZN2FX5FXDir9listFilesERPNS_8FXStringERKS1_S5_j
libFOX-1.6.so.0:_ZN2FX5FXDirC1ERKNS_8FXStringE
libFOX-1.6.so.0:_ZN2FX5FXDirC1Ev
libFOX-1.6.so.0:_ZN2FX5FXDirC2ERKNS_8FXStringE
libFOX-1.6.so.0:_ZN2FX5FXDirC2Ev
libFOX-1.6.so.0:_ZN2FX5FXDirD0Ev
libFOX-1.6.so.0:_ZN2FX5FXDirD1Ev
libFOX-1.6.so.0:_ZN2FX5FXDirD2Ev
libFOX-1.6.so.0:_ZN2FX5FXRex10substituteEPKciPiS3_RKNS_8FXStringEi
libFOX-1.6.so.0:_ZN2FX5FXRex10substituteERKNS_8FXStringEPiS4_S3_i
libFOX-1.6.so.0:_ZN2FX5FXRex5parseEPKci
libFOX-1.6.so.0:_ZN2FX5FXRex5parseERKNS_8FXStringEi
libFOX-1.6.so.0:_ZN2FX5FXRexC1EPKciPNS_10FXRexErrorE
libFOX-1.6.so.0:_ZN2FX5FXRexC1ERKNS_8FXStringEiPNS_10FXRexErrorE
libFOX-1.6.so.0:_ZN2FX5FXRexC1ERKS0_
libFOX-1.6.so.0:_ZN2FX5FXRexC2EPKciPNS_10FXRexErrorE
libFOX-1.6.so.0:_ZN2FX5FXRexC2ERKNS_8FXStringEiPNS_10FXRexErrorE
libFOX-1.6.so.0:_ZN2FX5FXRexC2ERKS0_
libFOX-1.6.so.0:_ZN2FX5FXRexD1Ev
libFOX-1.6.so.0:_ZN2FX5FXRexD2Ev
libFOX-1.6.so.0:_ZN2FX5FXRexaSERKS0_
libFOX-1.6.so.0:_ZN2FX5FXURL11fileFromURLERKNS_8FXStringE
libFOX-1.6.so.0:_ZN2FX5FXURL6decodeERKNS_8FXStringE
libFOX-1.6.so.0:_ZN2FX5FXURL6encodeERKNS_8FXStringE
libFOX-1.6.so.0:_ZN2FX5FXURL8hostnameEv
libFOX-1.6.so.0:_ZN2FX5FXURL9fileToURLERKNS_8FXStringE
libFOX-1.6.so.0:_ZN2FX5planeERKNS_7FXVec3dES2_
libFOX-1.6.so.0:_ZN2FX5planeERKNS_7FXVec3dES2_S2_
libFOX-1.6.so.0:_ZN2FX5planeERKNS_7FXVec3dEd
libFOX-1.6.so.0:_ZN2FX5planeERKNS_7FXVec3fES2_
libFOX-1.6.so.0:_ZN2FX5planeERKNS_7FXVec3fES2_S2_
libFOX-1.6.so.0:_ZN2FX5planeERKNS_7FXVec3fEf
libFOX-1.6.so.0:_ZN2FX5planeERKNS_7FXVec4dE
libFOX-1.6.so.0:_ZN2FX5planeERKNS_7FXVec4fE
libFOX-1.6.so.0:_ZN2FX5uniteERKNS_8FXRangedES2_
libFOX-1.6.so.0:_ZN2FX5uniteERKNS_8FXRangefES2_
libFOX-1.6.so.0:_ZN2FX5uniteERKNS_9FXExtentdES2_
libFOX-1.6.so.0:_ZN2FX5uniteERKNS_9FXExtentfES2_
libFOX-1.6.so.0:_ZN2FX5wcdecEPKci
libFOX-1.6.so.0:_ZN2FX5wcdecEPKti
libFOX-1.6.so.0:_ZN2FX5wcincEPKci
libFOX-1.6.so.0:_ZN2FX5wcincEPKti
libFOX-1.6.so.0:_ZN2FX5wclenEPKc
libFOX-1.6.so.0:_ZN2FX5wclenEPKt
libFOX-1.6.so.0:_ZN2FX6FXDate7setDateEiii
libFOX-1.6.so.0:_ZN2FX6FXDate8greg2julERjiii
libFOX-1.6.so.0:_ZN2FX6FXDate8jul2gregEjRiS1_S1_
libFOX-1.6.so.0:_ZN2FX6FXDate8leapYearEi
libFOX-1.6.so.0:_ZN2FX6FXDate8zuluDateEv
libFOX-1.6.so.0:_ZN2FX6FXDate9localDateEv
libFOX-1.6.so.0:_ZN2FX6FXDateC1Eiii
libFOX-1.6.so.0:_ZN2FX6FXDateC2Eiii
libFOX-1.6.so.0:_ZN2FX6FXDial10onKeyPressEPNS_8FXObjectEjPv
libFOX-1.6.so.0:_ZN2FX6FXDial10onQueryTipEPNS_8FXObjectEjPv
libFOX-1.6.so.0:_ZN2FX6FXDial10setTipTextERKNS_8FXStringE
libFOX-1.6.so.0:_ZN2FX6FXDial11manufactureEv
libFOX-1.6.so.0:_ZN2FX6FXDial11onCmdGetTipEPNS_8FXObjectEjPv
libFOX-1.6.so.0:_ZN2FX6FXDial11onCmdSetTipEPNS_8FXObjectEjPv
libFOX-1.6.so.0:_ZN2FX6FXDial11onQueryHelpEPNS_8FXObjectEjPv
libFOX-1.6.so.0:_ZN2FX6FXDial11onUngrabbedEPNS_8FXObjectEjPv
libFOX-1.6.so.0:_ZN2FX6FXDial11setHelpTextERKNS_8FXStringE
libFOX-1.6.so.0:_ZN2FX6FXDial12onCmdGetHelpEPNS_8FXObjectEjPv
libFOX-1.6.so.0:_ZN2FX6FXDial12onCmdSetHelpEPNS_8FXObjectEjPv
libFOX-1.6.so.0:_ZN2FX6FXDial12onKeyReleaseEPNS_8FXObjectEjPv
libFOX-1.6.so.0:_ZN2FX6FXDial12onMouseWheelEPNS_8FXObjectEjPv
libFOX-1.6.so.0:_ZN2FX6FXDial12setDialStyleEj
libFOX-1.6.so.0:_ZN2FX6FXDial13onCmdSetValueEPNS_8FXObjectEjPv
libFOX-1.6.so.0:_ZN2FX6FXDial13setNotchColorEj
libFOX-1.6.so.0:_ZN2FX6FXDial14onLeftBtnPressEPNS_8FXObjectEjPv
libFOX-1.6.so.0:_ZN2FX6FXDial14setNotchOffsetEi
libFOX-1.6.so.0:_ZN2FX6FXDial15getDefaultWidthEv
libFOX-1.6.so.0:_ZN2FX6FXDial15setNotchSpacingEi
libFOX-1.6.so.0:_ZN2FX6FXDial16getDefaultHeightEv
libFOX-1.6.so.0:_ZN2FX6FXDial16onCmdGetIntRangeEPNS_8FXObjectEjPv
libFOX-1.6.so.0:_ZN2FX6FXDial16onCmdGetIntValueEPNS_8FXObjectEjPv
libFOX-1.6.so.0:_ZN2FX6FXDial16onCmdSetIntRangeEPNS_8FXObjectEjPv
libFOX-1.6.so.0:_ZN2FX6FXDial16onCmdSetIntValueEPNS_8FXObjectEjPv
libFOX-1.6.so.0:_ZN2FX6FXDial16onLeftBtnReleaseEPNS_8FXObjectEjPv
libFOX-1.6.so.0:_ZN2FX6FXDial17onCmdGetRealRangeEPNS_8FXObjectEjPv
libFOX-1.6.so.0:_ZN2FX6FXDial17onCmdGetRealValueEPNS_8FXObjectEjPv
libFOX-1.6.so.0:_ZN2FX6FXDial17onCmdSetRealRangeEPNS_8FXObjectEjPv
libFOX-1.6.so.0:_ZN2FX6FXDial17onCmdSetRealValueEPNS_8FXObjectEjPv
libFOX-1.6.so.0:_ZN2FX6FXDial22setRevolutionIncrementEi
libFOX-1.6.so.0:_ZN2FX6FXDial4loadERNS_8FXStreamE
libFOX-1.6.so.0:_ZN2FX6FXDial6handleEPNS_8FXObjectEjPv
libFOX-1.6.so.0:_ZN2FX6FXDial7onPaintEPNS_8FXObjectEjPv
libFOX-1.6.so.0:_ZN2FX6FXDial8onMotionEPNS_8FXObjectEjPv
libFOX-1.6.so.0:_ZN2FX6FXDial8setRangeEiih
libFOX-1.6.so.0:_ZN2FX6FXDial8setValueEih
libFOX-1.6.so.0:_ZN2FX6FXDialC1EPNS_11FXCompositeEPNS_8FXObjectEjjiiiiiiii
libFOX-1.6.so.0:_ZN2FX6FXDialC1Ev
libFOX-1.6.so.0:_ZN2FX6FXDialC2EPNS_11FXCompositeEPNS_8FXObjectEjjiiiiiiii
libFOX-1.6.so.0:_ZN2FX6FXDialC2Ev
libFOX-1.6.so.0:_ZN2FX6FXDict10createDataEPKv
libFOX-1.6.so.0:_ZN2FX6FXDict10deleteDataEPv
libFOX-1.6.so.0:_ZN2FX6FXDict11manufactureEv
libFOX-1.6.so.0:_ZN2FX6FXDict4hashEPKc
libFOX-1.6.so.0:_ZN2FX6FXDict4sizeEi
libFOX-1.6.so.0:_ZN2FX6FXDict5clearEv
libFOX-1.6.so.0:_ZN2FX6FXDict6handleEPNS_8FXObjectEjPv
libFOX-1.6.so.0:_ZN2FX6FXDict6insertEPKcPKvb
libFOX-1.6.so.0:_ZN2FX6FXDict6removeEPKc
libFOX-1.6.so.0:_ZN2FX6FXDict7replaceEPKcPKvb
libFOX-1.6.so.0:_ZN2FX6FXDictC1ERKS0_
libFOX-1.6.so.0:_ZN2FX6FXDictC1Ev
libFOX-1.6.so.0:_ZN2FX6FXDictC2ERKS0_
libFOX-1.6.so.0:_ZN2FX6FXDictC2Ev
libFOX-1.6.so.0:_ZN2FX6FXDictD0Ev
libFOX-1.6.so.0:_ZN2FX6FXDictD1Ev
libFOX-1.6.so.0:_ZN2FX6FXDictD2Ev
libFOX-1.6.so.0:_ZN2FX6FXDictaSERKS0_
libFOX-1.6.so.0:_ZN2FX6FXFile10writeBlockEPKvl
libFOX-1.6.so.0:_ZN2FX6FXFile11removeFilesERKNS_8FXStringEb
libFOX-1.6.so.0:_ZN2FX6FXFile3eofEv
libFOX-1.6.so.0:_ZN2FX6FXFile4copyERKNS_8FXStringES3_b
libFOX-1.6.so.0:_ZN2FX6FXFile4linkERKNS_8FXStringES3_
libFOX-1.6.so.0:_ZN2FX6FXFile4openERKNS_8FXStringEjj
libFOX-1.6.so.0:_ZN2FX6FXFile4openEij
libFOX-1.6.so.0:_ZN2FX6FXFile4sizeEv
libFOX-1.6.so.0:_ZN2FX6FXFile5closeEv
libFOX-1.6.so.0:_ZN2FX6FXFile5flushEv
libFOX-1.6.so.0:_ZN2FX6FXFile6concatERKNS_8FXStringES3_S3_b
libFOX-1.6.so.0:_ZN2FX6FXFile6createERKNS_8FXStringEj
libFOX-1.6.so.0:_ZN2FX6FXFile6removeERKNS_8FXStringE
libFOX-1.6.so.0:_ZN2FX6FXFile6renameERKNS_8FXStringES3_
libFOX-1.6.so.0:_ZN2FX6FXFile7symlinkERKNS_8FXStringE
libFOX-1.6.so.0:_ZN2FX6FXFile7symlinkERKNS_8FXStringES3_
libFOX-1.6.so.0:_ZN2FX6FXFile8positionElj
libFOX-1.6.so.0:_ZN2FX6FXFile8truncateEl
libFOX-1.6.so.0:_ZN2FX6FXFile9copyFilesERKNS_8FXStringES3_b
libFOX-1.6.so.0:_ZN2FX6FXFile9identicalERKNS_8FXStringES3_
libFOX-1.6.so.0:_ZN2FX6FXFile9moveFilesERKNS_8FXStringES3_b
libFOX-1.6.so.0:_ZN2FX6FXFile9readBlockEPvl
libFOX-1.6.so.0:_ZN2FX6FXFileC1ERKNS_8FXStringEjj
libFOX-1.6.so.0:_ZN2FX6FXFileC1Eij
libFOX-1.6.so.0:_ZN2FX6FXFileC2ERKNS_8FXStringEjj
libFOX-1.6.so.0:_ZN2FX6FXFileC2Eij
libFOX-1.6.so.0:_ZN2FX6FXFileD0Ev
libFOX-1.6.so.0:_ZN2FX6FXFileD1Ev
libFOX-1.6.so.0:_ZN2FX6FXFileD2Ev
libFOX-1.6.so.0:_ZN2FX6FXFont11manufactureEv
libFOX-1.6.so.0:_ZN2FX6FXFont11setFontDescERKNS_10FXFontDescE
libFOX-1.6.so.0:_ZN2FX6FXFont4loadERNS_8FXStreamE
libFOX-1.6.so.0:_ZN2FX6FXFont5matchERKNS_8FXStringES3_jjjjjji
libFOX-1.6.so.0:_ZN2FX6FXFont6createEv
libFOX-1.6.so.0:_ZN2FX6FXFont6detachEv
libFOX-1.6.so.0:_ZN2FX6FXFont6handleEPNS_8FXObjectEjPv
libFOX-1.6.so.0:_ZN2FX6FXFont7destroyEv
libFOX-1.6.so.0:_ZN2FX6FXFont7setFontERKNS_8FXStringE
libFOX-1.6.so.0:_ZN2FX6FXFont8setAngleEi
libFOX-1.6.so.0:_ZN2FX6FXFont9listFontsERPNS_10FXFontDescERjRKNS_8FXStringEjjjjj
libFOX-1.6.so.0:_ZN2FX6FXFontC1EPNS_5FXAppERKNS_10FXFontDescE
libFOX-1.6.so.0:_ZN2FX6FXFontC1EPNS_5FXAppERKNS_8FXStringE
libFOX-1.6.so.0:_ZN2FX6FXFontC1EPNS_5FXAppERKNS_8FXStringEjjjjjj
libFOX-1.6.so.0:_ZN2FX6FXFontC1Ev
libFOX-1.6.so.0:_ZN2FX6FXFontC2EPNS_5FXAppERKNS_10FXFontDescE
libFOX-1.6.so.0:_ZN2FX6FXFontC2EPNS_5FXAppERKNS_8FXStringE
libFOX-1.6.so.0:_ZN2FX6FXFontC2EPNS_5FXAppERKNS_8FXStringEjjjjjj
libFOX-1.6.so.0:_ZN2FX6FXFontC2Ev
libFOX-1.6.so.0:_ZN2FX6FXFontD0Ev
libFOX-1.6.so.0:_ZN2FX6FXFontD1Ev
libFOX-1.6.so.0:_ZN2FX6FXFontD2Ev
libFOX-1.6.so.0:_ZN2FX6FXHash4sizeEj
libFOX-1.6.so.0:_ZN2FX6FXHash5clearEv
libFOX-1.6.so.0:_ZN2FX6FXHash6insertEPvS1_
libFOX-1.6.so.0:_ZN2FX6FXHash6removeEPv
libFOX-1.6.so.0:_ZN2FX6FXHash7replaceEPvS1_
libFOX-1.6.so.0:_ZN2FX6FXHashC1Ev
libFOX-1.6.so.0:_ZN2FX6FXHashC2Ev
libFOX-1.6.so.0:_ZN2FX6FXHashD0Ev
libFOX-1.6.so.0:_ZN2FX6FXHashD1Ev
libFOX-1.6.so.0:_ZN2FX6FXHashD2Ev
libFOX-1.6.so.0:_ZN2FX6FXIcon11guesstranspEv
libFOX-1.6.so.0:_ZN2FX6FXIcon11manufactureEv
libFOX-1.6.so.0:_ZN2FX6FXIcon6createEv
libFOX-1.6.so.0:_ZN2FX6FXIcon6detachEv
libFOX-1.6.so.0:_ZN2FX6FXIcon6handleEPNS_8FXObjectEjPv
libFOX-1.6.so.0:_ZN2FX6FXIcon6renderEv
libFOX-1.6.so.0:_ZN2FX6FXIcon6resizeEii
libFOX-1.6.so.0:_ZN2FX6FXIcon7destroyEv
libFOX-1.6.so.0:_ZN2FX6FXIconC1EPNS_5FXAppEPKjjjii
libFOX-1.6.so.0:_ZN2FX6FXIconC2EPNS_5FXAppEPKjjjii
libFOX-1.6.so.0:_ZN2FX6FXIconD0Ev
libFOX-1.6.so.0:_ZN2FX6FXIconD1Ev
libFOX-1.6.so.0:_ZN2FX6FXIconD2Ev
libFOX-1.6.so.0:_ZN2FX6FXKnob10onFocusOutEPNS_8FXObjectEjPv
libFOX-1.6.so.0:_ZN2FX6FXKnob10onKeyPressEPNS_8FXObjectEjPv
libFOX-1.6.so.0:_ZN2FX6FXKnob10onQueryTipEPNS_8FXObjectEjPv
libFOX-1.6.so.0:_ZN2FX6FXKnob11manufactureEv
libFOX-1.6.so.0:_ZN2FX6FXKnob11onAutoSlideEPNS_8FXObjectEjPv
libFOX-1.6.so.0:_ZN2FX6FXKnob11onCmdGetTipEPNS_8FXObjectEjPv
libFOX-1.6.so.0:_ZN2FX6FXKnob11onCmdSetTipEPNS_8FXObjectEjPv
libFOX-1.6.so.0:_ZN2FX6FXKnob11onQueryHelpEPNS_8FXObjectEjPv
libFOX-1.6.so.0:_ZN2FX6FXKnob11onUngrabbedEPNS_8FXObjectEjPv
libFOX-1.6.so.0:_ZN2FX6FXKnob12onCmdGetHelpEPNS_8FXObjectEjPv
libFOX-1.6.so.0:_ZN2FX6FXKnob12onCmdSetHelpEPNS_8FXObjectEjPv
libFOX-1.6.so.0:_ZN2FX6FXKnob12onKeyReleaseEPNS_8FXObjectEjPv
libFOX-1.6.so.0:_ZN2FX6FXKnob12onMouseWheelEPNS_8FXObjectEjPv
libFOX-1.6.so.0:_ZN2FX6FXKnob12setKnobStyleEj
libFOX-1.6.so.0:_ZN2FX6FXKnob12setLineColorEj
libFOX-1.6.so.0:_ZN2FX6FXKnob12setTickDeltaEi
libFOX-1.6.so.0:_ZN2FX6FXKnob13onCmdSetValueEPNS_8FXObjectEjPv
libFOX-1.6.so.0:_ZN2FX6FXKnob14onLeftBtnPressEPNS_8FXObjectEjPv
libFOX-1.6.so.0:_ZN2FX6FXKnob15getDefaultWidthEv
libFOX-1.6.so.0:_ZN2FX6FXKnob16getDefaultHeightEv
libFOX-1.6.so.0:_ZN2FX6FXKnob16onCmdGetIntRangeEPNS_8FXObjectEjPv
libFOX-1.6.so.0:_ZN2FX6FXKnob16onCmdGetIntValueEPNS_8FXObjectEjPv
libFOX-1.6.so.0:_ZN2FX6FXKnob16onCmdSetIntRangeEPNS_8FXObjectEjPv
libFOX-1.6.so.0:_ZN2FX6FXKnob16onCmdSetIntValueEPNS_8FXObjectEjPv
libFOX-1.6.so.0:_ZN2FX6FXKnob16onLeftBtnReleaseEPNS_8FXObjectEjPv
libFOX-1.6.so.0:_ZN2FX6FXKnob16onMiddleBtnPressEPNS_8FXObjectEjPv
libFOX-1.6.so.0:_ZN2FX6FXKnob17onCmdGetRealRangeEPNS_8FXObjectEjPv
libFOX-1.6.so.0:_ZN2FX6FXKnob17onCmdGetRealValueEPNS_8FXObjectEjPv
libFOX-1.6.so.0:_ZN2FX6FXKnob17onCmdSetRealRangeEPNS_8FXObjectEjPv
libFOX-1.6.so.0:_ZN2FX6FXKnob17onCmdSetRealValueEPNS_8FXObjectEjPv
libFOX-1.6.so.0:_ZN2FX6FXKnob18onMiddleBtnReleaseEPNS_8FXObjectEjPv
libFOX-1.6.so.0:_ZN2FX6FXKnob4loadERNS_8FXStreamE
libFOX-1.6.so.0:_ZN2FX6FXKnob6enableEv
libFOX-1.6.so.0:_ZN2FX6FXKnob6handleEPNS_8FXObjectEjPv
libFOX-1.6.so.0:_ZN2FX6FXKnob6layoutEv
libFOX-1.6.so.0:_ZN2FX6FXKnob7disableEv
libFOX-1.6.so.0:_ZN2FX6FXKnob7onPaintEPNS_8FXObjectEjPv
libFOX-1.6.so.0:_ZN2FX6FXKnob8onMotionEPNS_8FXObjectEjPv
libFOX-1.6.so.0:_ZN2FX6FXKnob8setRangeEiih
libFOX-1.6.so.0:_ZN2FX6FXKnob8setValueEih
libFOX-1.6.so.0:_ZN2FX6FXKnob9calcValueEii
libFOX-1.6.so.0:_ZN2FX6FXKnob9getLimitsERiS1_
libFOX-1.6.so.0:_ZN2FX6FXKnob9onFocusInEPNS_8FXObjectEjPv
libFOX-1.6.so.0:_ZN2FX6FXKnob9setLimitsEiih
libFOX-1.6.so.0:_ZN2FX6FXKnobC1EPNS_11FXCompositeEPNS_8FXObjectEjjiiiiiiii
libFOX-1.6.so.0:_ZN2FX6FXKnobC1Ev
libFOX-1.6.so.0:_ZN2FX6FXKnobC2EPNS_11FXCompositeEPNS_8FXObjectEjjiiiiiiii
libFOX-1.6.so.0:_ZN2FX6FXKnobC2Ev
libFOX-1.6.so.0:_ZN2FX6FXKnobD0Ev
libFOX-1.6.so.0:_ZN2FX6FXKnobD1Ev
libFOX-1.6.so.0:_ZN2FX6FXKnobD2Ev
libFOX-1.6.so.0:_ZN2FX6FXList10appendItemEPNS_10FXListItemEh
libFOX-1.6.so.0:_ZN2FX6FXList10appendItemERKNS_8FXStringEPNS_6FXIconEPvh
libFOX-1.6.so.0:_ZN2FX6FXList10clearItemsEh
libFOX-1.6.so.0:_ZN2FX6FXList10createItemERKNS_8FXStringEPNS_6FXIconEPv
libFOX-1.6.so.0:_ZN2FX6FXList10descendingEPKNS_10FXListItemES3_
libFOX-1.6.so.0:_ZN2FX6FXList10enableItemEi
libFOX-1.6.so.0:_ZN2FX6FXList10insertItemEiPNS_10FXListItemEh
libFOX-1.6.so.0:_ZN2FX6FXList10insertItemEiRKNS_8FXStringEPNS_6FXIconEPvh
libFOX-1.6.so.0:_ZN2FX6FXList10onFocusOutEPNS_8FXObjectEjPv
libFOX-1.6.so.0:_ZN2FX6FXList10onKeyPressEPNS_8FXObjectEjPv
libFOX-1.6.so.0:_ZN2FX6FXList10onQueryTipEPNS_8FXObjectEjPv
libFOX-1.6.so.0:_ZN2FX6FXList10onTipTimerEPNS_8FXObjectEjPv
libFOX-1.6.so.0:_ZN2FX6FXList10removeItemEih
libFOX-1.6.so.0:_ZN2FX6FXList10selectItemEih
libFOX-1.6.so.0:_ZN2FX6FXList10toggleItemEih
libFOX-1.6.so.0:_ZN2FX6FXList11disableItemEi
libFOX-1.6.so.0:_ZN2FX6FXList11extractItemEih
libFOX-1.6.so.0:_ZN2FX6FXList11manufactureEv
libFOX-1.6.so.0:_ZN2FX6FXList11onQueryHelpEPNS_8FXObjectEjPv
libFOX-1.6.so.0:_ZN2FX6FXList11onUngrabbedEPNS_8FXObjectEjPv
libFOX-1.6.so.0:_ZN2FX6FXList11prependItemEPNS_10FXListItemEh
libFOX-1.6.so.0:_ZN2FX6FXList11prependItemERKNS_8FXStringEPNS_6FXIconEPvh
libFOX-1.6.so.0:_ZN2FX6FXList11setHelpTextERKNS_8FXStringE
libFOX-1.6.so.0:_ZN2FX6FXList11setItemDataEiPv
libFOX-1.6.so.0:_ZN2FX6FXList11setItemIconEiPNS_6FXIconEh
libFOX-1.6.so.0:_ZN2FX6FXList11setItemTextEiRKNS_8FXStringE
libFOX-1.6.so.0:_ZN2FX6FXList12deselectItemEih
libFOX-1.6.so.0:_ZN2FX6FXList12onAutoScrollEPNS_8FXObjectEjPv
libFOX-1.6.so.0:_ZN2FX6FXList12onKeyReleaseEPNS_8FXObjectEjPv
libFOX-1.6.so.0:_ZN2FX6FXList12setListStyleEj
libFOX-1.6.so.0:_ZN2FX6FXList12setTextColorEj
libFOX-1.6.so.0:_ZN2FX6FXList13ascendingCaseEPKNS_10FXListItemES3_
libFOX-1.6.so.0:_ZN2FX6FXList13killSelectionEh
libFOX-1.6.so.0:_ZN2FX6FXList13onCmdSetValueEPNS_8FXObjectEjPv
libFOX-1.6.so.0:_ZN2FX6FXList13onLookupTimerEPNS_8FXObjectEjPv
libFOX-1.6.so.0:_ZN2FX6FXList13setAnchorItemEi
libFOX-1.6.so.0:_ZN2FX6FXList13setNumVisibleEi
libFOX-1.6.so.0:_ZN2FX6FXList14descendingCaseEPKNS_10FXListItemES3_
libFOX-1.6.so.0:_ZN2FX6FXList14onLeftBtnPressEPNS_8FXObjectEjPv
libFOX-1.6.so.0:_ZN2FX6FXList14setCurrentItemEih
libFOX-1.6.so.0:_ZN2FX6FXList15extendSelectionEih
libFOX-1.6.so.0:_ZN2FX6FXList15getContentWidthEv
libFOX-1.6.so.0:_ZN2FX6FXList15getDefaultWidthEv
libFOX-1.6.so.0:_ZN2FX6FXList15makeItemVisibleEi
libFOX-1.6.so.0:_ZN2FX6FXList15onDoubleClickedEPNS_8FXObjectEjPv
libFOX-1.6.so.0:_ZN2FX6FXList15onRightBtnPressEPNS_8FXObjectEjPv
libFOX-1.6.so.0:_ZN2FX6FXList15onTripleClickedEPNS_8FXObjectEjPv
libFOX-1.6.so.0:_ZN2FX6FXList15setSelBackColorEj
libFOX-1.6.so.0:_ZN2FX6FXList15setSelTextColorEj
libFOX-1.6.so.0:_ZN2FX6FXList16getContentHeightEv
libFOX-1.6.so.0:_ZN2FX6FXList16getDefaultHeightEv
libFOX-1.6.so.0:_ZN2FX6FXList16onCmdGetIntValueEPNS_8FXObjectEjPv
libFOX-1.6.so.0:_ZN2FX6FXList16onCmdSetIntValueEPNS_8FXObjectEjPv
libFOX-1.6.so.0:_ZN2FX6FXList16onLeftBtnReleaseEPNS_8FXObjectEjPv
libFOX-1.6.so.0:_ZN2FX6FXList17onRightBtnReleaseEPNS_8FXObjectEjPv
libFOX-1.6.so.0:_ZN2FX6FXList4loadERNS_8FXStreamE
libFOX-1.6.so.0:_ZN2FX6FXList6createEv
libFOX-1.6.so.0:_ZN2FX6FXList6detachEv
libFOX-1.6.so.0:_ZN2FX6FXList6handleEPNS_8FXObjectEjPv
libFOX-1.6.so.0:_ZN2FX6FXList6layoutEv
libFOX-1.6.so.0:_ZN2FX6FXList6recalcEv
libFOX-1.6.so.0:_ZN2FX6FXList7onEnterEPNS_8FXObjectEjPv
libFOX-1.6.so.0:_ZN2FX6FXList7onLeaveEPNS_8FXObjectEjPv
libFOX-1.6.so.0:_ZN2FX6FXList7onPaintEPNS_8FXObjectEjPv
libFOX-1.6.so.0:_ZN2FX6FXList7setFontEPNS_6FXFontE
libFOX-1.6.so.0:_ZN2FX6FXList7setItemEiPNS_10FXListItemEh
libFOX-1.6.so.0:_ZN2FX6FXList7setItemEiRKNS_8FXStringEPNS_6FXIconEPvh
libFOX-1.6.so.0:_ZN2FX6FXList8moveItemEiih
libFOX-1.6.so.0:_ZN2FX6FXList8onMotionEPNS_8FXObjectEjPv
libFOX-1.6.so.0:_ZN2FX6FXList8setFocusEv
libFOX-1.6.so.0:_ZN2FX6FXList9ascendingEPKNS_10FXListItemES3_
libFOX-1.6.so.0:_ZN2FX6FXList9fillItemsEPPKcPNS_6FXIconEPvh
libFOX-1.6.so.0:_ZN2FX6FXList9fillItemsERKNS_8FXStringEPNS_6FXIconEPvh
libFOX-1.6.so.0:_ZN2FX6FXList9killFocusEv
libFOX-1.6.so.0:_ZN2FX6FXList9onClickedEPNS_8FXObjectEjPv
libFOX-1.6.so.0:_ZN2FX6FXList9onCommandEPNS_8FXObjectEjPv
libFOX-1.6.so.0:_ZN2FX6FXList9onFocusInEPNS_8FXObjectEjPv
libFOX-1.6.so.0:_ZN2FX6FXList9recomputeEv
libFOX-1.6.so.0:_ZN2FX6FXList9sortItemsEv
libFOX-1.6.so.0:_ZN2FX6FXListC1EPNS_11FXCompositeEPNS_8FXObjectEjjiiii
libFOX-1.6.so.0:_ZN2FX6FXListC1Ev
libFOX-1.6.so.0:_ZN2FX6FXListC2EPNS_11FXCompositeEPNS_8FXObjectEjjiiii
libFOX-1.6.so.0:_ZN2FX6FXListC2Ev
libFOX-1.6.so.0:_ZN2FX6FXListD0Ev
libFOX-1.6.so.0:_ZN2FX6FXListD1Ev
libFOX-1.6.so.0:_ZN2FX6FXListD2Ev
libFOX-1.6.so.0:_ZN2FX6FXPath10isAbsoluteERKNS_8FXStringE
libFOX-1.6.so.0:_ZN2FX6FXPath14isTopDirectoryERKNS_8FXStringE
libFOX-1.6.so.0:_ZN2FX6FXPath14stripExtensionERKNS_8FXStringE
libFOX-1.6.so.0:_ZN2FX6FXPath4nameERKNS_8FXStringE
libFOX-1.6.so.0:_ZN2FX6FXPath4rootERKNS_8FXStringE
libFOX-1.6.so.0:_ZN2FX6FXPath5driveERKNS_8FXStringE
libFOX-1.6.so.0:_ZN2FX6FXPath5matchERKNS_8FXStringES3_j
libFOX-1.6.so.0:_ZN2FX6FXPath5titleERKNS_8FXStringE
libFOX-1.6.so.0:_ZN2FX6FXPath6expandERKNS_8FXStringE
libFOX-1.6.so.0:_ZN2FX6FXPath6searchERKNS_8FXStringES3_
libFOX-1.6.so.0:_ZN2FX6FXPath6uniqueERKNS_8FXStringE
libFOX-1.6.so.0:_ZN2FX6FXPath7convertERKNS_8FXStringE
libFOX-1.6.so.0:_ZN2FX6FXPath7dequoteERKNS_8FXStringE
libFOX-1.6.so.0:_ZN2FX6FXPath7enquoteERKNS_8FXStringEb
libFOX-1.6.so.0:_ZN2FX6FXPath7isShareERKNS_8FXStringE
libFOX-1.6.so.0:_ZN2FX6FXPath7upLevelERKNS_8FXStringE
libFOX-1.6.so.0:_ZN2FX6FXPath8absoluteERKNS_8FXStringE
libFOX-1.6.so.0:_ZN2FX6FXPath8absoluteERKNS_8FXStringES3_
libFOX-1.6.so.0:_ZN2FX6FXPath8contractERKNS_8FXStringES3_S3_
libFOX-1.6.so.0:_ZN2FX6FXPath8relativeERKNS_8FXStringE
libFOX-1.6.so.0:_ZN2FX6FXPath8relativeERKNS_8FXStringES3_
libFOX-1.6.so.0:_ZN2FX6FXPath8simplifyERKNS_8FXStringE
libFOX-1.6.so.0:_ZN2FX6FXPath9directoryERKNS_8FXStringE
libFOX-1.6.so.0:_ZN2FX6FXPath9extensionERKNS_8FXStringE
libFOX-1.6.so.0:_ZN2FX6FXPipe10writeBlockEPKvl
libFOX-1.6.so.0:_ZN2FX6FXPipe4openEij
libFOX-1.6.so.0:_ZN2FX6FXPipe5closeEv
libFOX-1.6.so.0:_ZN2FX6FXPipe6createERKNS_8FXStringEj
libFOX-1.6.so.0:_ZN2FX6FXPipe9readBlockEPvl
libFOX-1.6.so.0:_ZN2FX6FXPipeC1Eij
libFOX-1.6.so.0:_ZN2FX6FXPipeC2Eij
libFOX-1.6.so.0:_ZN2FX6FXPipeD0Ev
libFOX-1.6.so.0:_ZN2FX6FXPipeD1Ev
libFOX-1.6.so.0:_ZN2FX6FXPipeD2Ev
libFOX-1.6.so.0:_ZN2FX6FXSize4growEs
libFOX-1.6.so.0:_ZN2FX6FXSize4growEss
libFOX-1.6.so.0:_ZN2FX6FXSize4growEssss
libFOX-1.6.so.0:_ZN2FX6FXSize6shrinkEs
libFOX-1.6.so.0:_ZN2FX6FXSize6shrinkEss
libFOX-1.6.so.0:_ZN2FX6FXSize6shrinkEssss
libFOX-1.6.so.0:_ZN2FX6FXStat10isReadableERKNS_8FXStringE
libFOX-1.6.so.0:_ZN2FX6FXStat10isWritableERKNS_8FXStringE
libFOX-1.6.so.0:_ZN2FX6FXStat11isDirectoryERKNS_8FXStringE
libFOX-1.6.so.0:_ZN2FX6FXStat11isSetStickyERKNS_8FXStringE
libFOX-1.6.so.0:_ZN2FX6FXStat12isExecutableERKNS_8FXStringE
libFOX-1.6.so.0:_ZN2FX6FXStat15isGroupReadableERKNS_8FXStringE
libFOX-1.6.so.0:_ZN2FX6FXStat15isGroupWritableERKNS_8FXStringE
libFOX-1.6.so.0:_ZN2FX6FXStat15isOtherReadableERKNS_8FXStringE
libFOX-1.6.so.0:_ZN2FX6FXStat15isOtherWritableERKNS_8FXStringE
libFOX-1.6.so.0:_ZN2FX6FXStat15isOwnerReadableERKNS_8FXStringE
libFOX-1.6.so.0:_ZN2FX6FXStat15isOwnerWritableERKNS_8FXStringE
libFOX-1.6.so.0:_ZN2FX6FXStat17isGroupExecutableERKNS_8FXStringE
libFOX-1.6.so.0:_ZN2FX6FXStat17isOtherExecutableERKNS_8FXStringE
libFOX-1.6.so.0:_ZN2FX6FXStat17isOwnerExecutableERKNS_8FXStringE
libFOX-1.6.so.0:_ZN2FX6FXStat23isGroupReadWriteExecuteERKNS_8FXStringE
libFOX-1.6.so.0:_ZN2FX6FXStat23isOtherReadWriteExecuteERKNS_8FXStringE
libFOX-1.6.so.0:_ZN2FX6FXStat23isOwnerReadWriteExecuteERKNS_8FXStringE
libFOX-1.6.so.0:_ZN2FX6FXStat4modeERKNS_8FXStringE
libFOX-1.6.so.0:_ZN2FX6FXStat4modeERKNS_8FXStringEj
libFOX-1.6.so.0:_ZN2FX6FXStat4sizeERKNS_8FXStringE
libFOX-1.6.so.0:_ZN2FX6FXStat4statERKNS_6FXFileERS0_
libFOX-1.6.so.0:_ZN2FX6FXStat6existsERKNS_8FXStringE
libFOX-1.6.so.0:_ZN2FX6FXStat6isFileERKNS_8FXStringE
libFOX-1.6.so.0:_ZN2FX6FXStat6isLinkERKNS_8FXStringE
libFOX-1.6.so.0:_ZN2FX6FXStat7createdERKNS_8FXStringE
libFOX-1.6.so.0:_ZN2FX6FXStat7touchedERKNS_8FXStringE
libFOX-1.6.so.0:_ZN2FX6FXStat8accessedERKNS_8FXStringE
libFOX-1.6.so.0:_ZN2FX6FXStat8isHiddenERKNS_8FXStringE
libFOX-1.6.so.0:_ZN2FX6FXStat8isSetGidERKNS_8FXStringE
libFOX-1.6.so.0:_ZN2FX6FXStat8isSetUidERKNS_8FXStringE
libFOX-1.6.so.0:_ZN2FX6FXStat8modifiedERKNS_8FXStringE
libFOX-1.6.so.0:_ZN2FX6FXStat8statFileERKNS_8FXStringERS0_
libFOX-1.6.so.0:_ZN2FX6FXStat8statLinkERKNS_8FXStringERS0_
libFOX-1.6.so.0:_ZN2FX6FXText10appendTextEPKcih
libFOX-1.6.so.0:_ZN2FX6FXText10appendTextERKNS_8FXStringEh
libFOX-1.6.so.0:_ZN2FX6FXText10drawCursorEj
libFOX-1.6.so.0:_ZN2FX6FXText10insertTextEiPKcih
libFOX-1.6.so.0:_ZN2FX6FXText10insertTextEiRKNS_8FXStringEh
libFOX-1.6.so.0:_ZN2FX6FXText10onDNDEnterEPNS_8FXObjectEjPv
libFOX-1.6.so.0:_ZN2FX6FXText10onDNDLeaveEPNS_8FXObjectEjPv
libFOX-1.6.so.0:_ZN2FX6FXText10onFocusOutEPNS_8FXObjectEjPv
libFOX-1.6.so.0:_ZN2FX6FXText10onKeyPressEPNS_8FXObjectEjPv
libFOX-1.6.so.0:_ZN2FX6FXText10onQueryTipEPNS_8FXObjectEjPv
libFOX-1.6.so.0:_ZN2FX6FXText10removeTextEiih
libFOX-1.6.so.0:_ZN2FX6FXText10setTopLineEi
libFOX-1.6.so.0:_ZN2FX6FXText10squeezegapEv
libFOX-1.6.so.0:_ZN2FX6FXText11calcVisRowsEii
libFOX-1.6.so.0:_ZN2FX6FXText11changeStyleEiPKci
libFOX-1.6.so.0:_ZN2FX6FXText11changeStyleEiRKNS_8FXStringE
libFOX-1.6.so.0:_ZN2FX6FXText11changeStyleEiii
libFOX-1.6.so.0:_ZN2FX6FXText11manufactureEv
libFOX-1.6.so.0:_ZN2FX6FXText11onBeginDragEPNS_8FXObjectEjPv
libFOX-1.6.so.0:_ZN2FX6FXText11onCmdCutSelEPNS_8FXObjectEjPv
libFOX-1.6.so.0:_ZN2FX6FXText11onCmdDeleteEPNS_8FXObjectEjPv
libFOX-1.6.so.0:_ZN2FX6FXText11onCmdExtendEPNS_8FXObjectEjPv
libFOX-1.6.so.0:_ZN2FX6FXText11onCmdSearchEPNS_8FXObjectEjPv
libFOX-1.6.so.0:_ZN2FX6FXText11onDNDMotionEPNS_8FXObjectEjPv
libFOX-1.6.so.0:_ZN2FX6FXText11onQueryHelpEPNS_8FXObjectEjPv
libFOX-1.6.so.0:_ZN2FX6FXText11onUngrabbedEPNS_8FXObjectEjPv
libFOX-1.6.so.0:_ZN2FX6FXText11replaceTextEiiPKcih
libFOX-1.6.so.0:_ZN2FX6FXText11replaceTextEiiRKNS_8FXStringEh
libFOX-1.6.so.0:_ZN2FX6FXText11setBarColorEj
libFOX-1.6.so.0:_ZN2FX6FXText11setEditableEh
libFOX-1.6.so.0:_ZN2FX6FXText12moveContentsEii
libFOX-1.6.so.0:_ZN2FX6FXText12onAutoScrollEPNS_8FXObjectEjPv
libFOX-1.6.so.0:_ZN2FX6FXText12onCmdCopySelEPNS_8FXObjectEjPv
libFOX-1.6.so.0:_ZN2FX6FXText12onCmdReplaceEPNS_8FXObjectEjPv
libFOX-1.6.so.0:_ZN2FX6FXText12onDNDRequestEPNS_8FXObjectEjPv
libFOX-1.6.so.0:_ZN2FX6FXText12onKeyReleaseEPNS_8FXObjectEjPv
libFOX-1.6.so.0:_ZN2FX6FXText12setAnchorPosEi
libFOX-1.6.so.0:_ZN2FX6FXText12setCursorPosEih
libFOX-1.6.so.0:_ZN2FX6FXText12setCursorRowEih
libFOX-1.6.so.0:_ZN2FX6FXText12setHighlightEii
libFOX-1.6.so.0:_ZN2FX6FXText12setMarginTopEi
libFOX-1.6.so.0:_ZN2FX6FXText12setSelectionEiih
libFOX-1.6.so.0:_ZN2FX6FXText12setTextColorEj
libFOX-1.6.so.0:_ZN2FX6FXText12setTextStyleEj
libFOX-1.6.so.0:_ZN2FX6FXText13flashMatchingEv
libFOX-1.6.so.0:_ZN2FX6FXText13killHighlightEv
libFOX-1.6.so.0:_ZN2FX6FXText13killSelectionEh
libFOX-1.6.so.0:_ZN2FX6FXText13onCmdBlockBegEPNS_8FXObjectEjPv
libFOX-1.6.so.0:_ZN2FX6FXText13onCmdBlockEndEPNS_8FXObjectEjPv
libFOX-1.6.so.0:_ZN2FX6FXText13onCmdCursorUpEPNS_8FXObjectEjPv
libFOX-1.6.so.0:_ZN2FX6FXText13onCmdGotoLineEPNS_8FXObjectEjPv
libFOX-1.6.so.0:_ZN2FX6FXText13onCmdPasteSelEPNS_8FXObjectEjPv
libFOX-1.6.so.0:_ZN2FX6FXText13onCmdScrollUpEPNS_8FXObjectEjPv
libFOX-1.6.so.0:_ZN2FX6FXText13setBarColumnsEi
libFOX-1.6.so.0:_ZN2FX6FXText13setBottomLineEi
libFOX-1.6.so.0:_ZN2FX6FXText13setCenterLineEi
libFOX-1.6.so.0:_ZN2FX6FXText13setMarginLeftEi
libFOX-1.6.so.0:_ZN2FX6FXText13setOverstrikeEh
libFOX-1.6.so.0:_ZN2FX6FXText13setStyledTextEPKciih
libFOX-1.6.so.0:_ZN2FX6FXText13setStyledTextERKNS_8FXStringEih
libFOX-1.6.so.0:_ZN2FX6FXText13setTabColumnsEi
libFOX-1.6.so.0:_ZN2FX6FXText14onCmdBackspaceEPNS_8FXObjectEjPv
libFOX-1.6.so.0:_ZN2FX6FXText14onCmdCursorEndEPNS_8FXObjectEjPv
libFOX-1.6.so.0:_ZN2FX6FXText14onCmdCursorRowEPNS_8FXObjectEjPv
libFOX-1.6.so.0:_ZN2FX6FXText14onCmdCursorTopEPNS_8FXObjectEjPv
libFOX-1.6.so.0:_ZN2FX6FXText14onCmdDeleteAllEPNS_8FXObjectEjPv
libFOX-1.6.so.0:_ZN2FX6FXText14onCmdDeleteEolEPNS_8FXObjectEjPv
libFOX-1.6.so.0:_ZN2FX6FXText14onCmdDeleteSelEPNS_8FXObjectEjPv
libFOX-1.6.so.0:_ZN2FX6FXText14onCmdInsertTabEPNS_8FXObjectEjPv
libFOX-1.6.so.0:_ZN2FX6FXText14onCmdSearchSelEPNS_8FXObjectEjPv
libFOX-1.6.so.0:_ZN2FX6FXText14onCmdSelectAllEPNS_8FXObjectEjPv
libFOX-1.6.so.0:_ZN2FX6FXText14onCmdShiftTextEPNS_8FXObjectEjPv
libFOX-1.6.so.0:_ZN2FX6FXText14onLeftBtnPressEPNS_8FXObjectEjPv
libFOX-1.6.so.0:_ZN2FX6FXText14onUpdCursorRowEPNS_8FXObjectEjPv
libFOX-1.6.so.0:_ZN2FX6FXText14onUpdSelectAllEPNS_8FXObjectEjPv
libFOX-1.6.so.0:_ZN2FX6FXText14setCursorColorEj
libFOX-1.6.so.0:_ZN2FX6FXText14setMarginRightEi
libFOX-1.6.so.0:_ZN2FX6FXText14setNumberColorEj
libFOX-1.6.so.0:_ZN2FX6FXText14setVisibleRowsEi
libFOX-1.6.so.0:_ZN2FX6FXText14setWrapColumnsEi
libFOX-1.6.so.0:_ZN2FX6FXText15extendSelectionEiNS_19FXTextSelectionModeEh
libFOX-1.6.so.0:_ZN2FX6FXText15getContentWidthEv
libFOX-1.6.so.0:_ZN2FX6FXText15getDefaultWidthEv
libFOX-1.6.so.0:_ZN2FX6FXText15onClipboardLostEPNS_8FXObjectEjPv
libFOX-1.6.so.0:_ZN2FX6FXText15onCmdChangeCaseEPNS_8FXObjectEjPv
libFOX-1.6.so.0:_ZN2FX6FXText15onCmdCursorDownEPNS_8FXObjectEjPv
libFOX-1.6.so.0:_ZN2FX6FXText15onCmdCursorHomeEPNS_8FXObjectEjPv
libFOX-1.6.so.0:_ZN2FX6FXText15onCmdCursorLeftEPNS_8FXObjectEjPv
libFOX-1.6.so.0:_ZN2FX6FXText15onCmdDeleteLineEPNS_8FXObjectEjPv
libFOX-1.6.so.0:_ZN2FX6FXText15onCmdDeleteWordEPNS_8FXObjectEjPv
libFOX-1.6.so.0:_ZN2FX6FXText15onCmdScrollDownEPNS_8FXObjectEjPv
libFOX-1.6.so.0:_ZN2FX6FXText15onCmdSearchNextEPNS_8FXObjectEjPv
libFOX-1.6.so.0:_ZN2FX6FXText15onCmdSelectCharEPNS_8FXObjectEjPv
libFOX-1.6.so.0:_ZN2FX6FXText15onCmdSelectLineEPNS_8FXObjectEjPv
libFOX-1.6.so.0:_ZN2FX6FXText15onCmdSelectWordEPNS_8FXObjectEjPv
libFOX-1.6.so.0:_ZN2FX6FXText15onRightBtnPressEPNS_8FXObjectEjPv
libFOX-1.6.so.0:_ZN2FX6FXText15onSelectionLostEPNS_8FXObjectEjPv
libFOX-1.6.so.0:_ZN2FX6FXText15setCursorColumnEih
libFOX-1.6.so.0:_ZN2FX6FXText15setHiliteStylesEPKNS_13FXHiliteStyleE
libFOX-1.6.so.0:_ZN2FX6FXText15setMarginBottomEi
libFOX-1.6.so.0:_ZN2FX6FXText15setSelBackColorEj
libFOX-1.6.so.0:_ZN2FX6FXText15setSelTextColorEj
libFOX-1.6.so.0:_ZN2FX6FXText16appendStyledTextEPKciih
libFOX-1.6.so.0:_ZN2FX6FXText16appendStyledTextERKNS_8FXStringEih
libFOX-1.6.so.0:_ZN2FX6FXText16getContentHeightEv
libFOX-1.6.so.0:_ZN2FX6FXText16getDefaultHeightEv
libFOX-1.6.so.0:_ZN2FX6FXText16insertStyledTextEiPKciih
libFOX-1.6.so.0:_ZN2FX6FXText16insertStyledTextEiRKNS_8FXStringEih
libFOX-1.6.so.0:_ZN2FX6FXText16onCmdCursorRightEPNS_8FXObjectEjPv
libFOX-1.6.so.0:_ZN2FX6FXText16onCmdDeselectAllEPNS_8FXObjectEjPv
libFOX-1.6.so.0:_ZN2FX6FXText16onCmdPasteMiddleEPNS_8FXObjectEjPv
libFOX-1.6.so.0:_ZN2FX6FXText16onCmdSelectBlockEPNS_8FXObjectEjPv
libFOX-1.6.so.0:_ZN2FX6FXText16onLeftBtnReleaseEPNS_8FXObjectEjPv
libFOX-1.6.so.0:_ZN2FX6FXText16onMiddleBtnPressEPNS_8FXObjectEjPv
libFOX-1.6.so.0:_ZN2FX6FXText17onClipboardGainedEPNS_8FXObjectEjPv
libFOX-1.6.so.0:_ZN2FX6FXText17onCmdBackspaceBolEPNS_8FXObjectEjPv
libFOX-1.6.so.0:_ZN2FX6FXText17onCmdCursorBottomEPNS_8FXObjectEjPv
libFOX-1.6.so.0:_ZN2FX6FXText17onCmdCursorColumnEPNS_8FXObjectEjPv
libFOX-1.6.so.0:_ZN2FX6FXText17onCmdCursorPageUpEPNS_8FXObjectEjPv
libFOX-1.6.so.0:_ZN2FX6FXText17onCmdCursorParEndEPNS_8FXObjectEjPv
libFOX-1.6.so.0:_ZN2FX6FXText17onCmdGotoMatchingEPNS_8FXObjectEjPv
libFOX-1.6.so.0:_ZN2FX6FXText17onCmdGotoSelectedEPNS_8FXObjectEjPv
libFOX-1.6.so.0:_ZN2FX6FXText17onCmdInsertStringEPNS_8FXObjectEjPv
libFOX-1.6.so.0:_ZN2FX6FXText17onCmdOverstStringEPNS_8FXObjectEjPv
libFOX-1.6.so.0:_ZN2FX6FXText17onRightBtnReleaseEPNS_8FXObjectEjPv
libFOX-1.6.so.0:_ZN2FX6FXText17onSelectionGainedEPNS_8FXObjectEjPv
libFOX-1.6.so.0:_ZN2FX6FXText17onUpdCursorColumnEPNS_8FXObjectEjPv
libFOX-1.6.so.0:_ZN2FX6FXText17replaceStyledTextEiiPKciih
libFOX-1.6.so.0:_ZN2FX6FXText17replaceStyledTextEiiRKNS_8FXStringEih
libFOX-1.6.so.0:_ZN2FX6FXText17setVisibleColumnsEi
libFOX-1.6.so.0:_ZN2FX6FXText18onClipboardRequestEPNS_8FXObjectEjPv
libFOX-1.6.so.0:_ZN2FX6FXText18onCmdBackspaceWordEPNS_8FXObjectEjPv
libFOX-1.6.so.0:_ZN2FX6FXText18onCmdCursorParHomeEPNS_8FXObjectEjPv
libFOX-1.6.so.0:_ZN2FX6FXText18onCmdCursorWordEndEPNS_8FXObjectEjPv
libFOX-1.6.so.0:_ZN2FX6FXText18onCmdInsertNewlineEPNS_8FXObjectEjPv
libFOX-1.6.so.0:_ZN2FX6FXText18onMiddleBtnReleaseEPNS_8FXObjectEjPv
libFOX-1.6.so.0:_ZN2FX6FXText18onSelectionRequestEPNS_8FXObjectEjPv
libFOX-1.6.so.0:_ZN2FX6FXText18onUpdHaveSelectionEPNS_8FXObjectEjPv
libFOX-1.6.so.0:_ZN2FX6FXText18setActiveBackColorEj
libFOX-1.6.so.0:_ZN2FX6FXText18setHiliteBackColorEj
libFOX-1.6.so.0:_ZN2FX6FXText18setHiliteTextColorEj
libFOX-1.6.so.0:_ZN2FX6FXText19eraseCursorOverhangEv
libFOX-1.6.so.0:_ZN2FX6FXText19makePositionVisibleEi
libFOX-1.6.so.0:_ZN2FX6FXText19onCmdCursorPageDownEPNS_8FXObjectEjPv
libFOX-1.6.so.0:_ZN2FX6FXText19onCmdCursorWordLeftEPNS_8FXObjectEjPv
libFOX-1.6.so.0:_ZN2FX6FXText19onCmdGetStringValueEPNS_8FXObjectEjPv
libFOX-1.6.so.0:_ZN2FX6FXText19onCmdSelectMatchingEPNS_8FXObjectEjPv
libFOX-1.6.so.0:_ZN2FX6FXText19onCmdSetStringValueEPNS_8FXObjectEjPv
libFOX-1.6.so.0:_ZN2FX6FXText19onCmdToggleEditableEPNS_8FXObjectEjPv
libFOX-1.6.so.0:_ZN2FX6FXText19onUpdToggleEditableEPNS_8FXObjectEjPv
libFOX-1.6.so.0:_ZN2FX6FXText20onCmdCursorScreenTopEPNS_8FXObjectEjPv
libFOX-1.6.so.0:_ZN2FX6FXText20onCmdCursorWordRightEPNS_8FXObjectEjPv
libFOX-1.6.so.0:_ZN2FX6FXText20onCmdCursorWordStartEPNS_8FXObjectEjPv
libFOX-1.6.so.0:_ZN2FX6FXText21onCmdToggleOverstrikeEPNS_8FXObjectEjPv
libFOX-1.6.so.0:_ZN2FX6FXText21onUpdToggleOverstrikeEPNS_8FXObjectEjPv
libFOX-1.6.so.0:_ZN2FX6FXText23onCmdCursorScreenBottomEPNS_8FXObjectEjPv
libFOX-1.6.so.0:_ZN2FX6FXText23onCmdCursorScreenCenterEPNS_8FXObjectEjPv
libFOX-1.6.so.0:_ZN2FX6FXText4loadERNS_8FXStreamE
libFOX-1.6.so.0:_ZN2FX6FXText6createEv
libFOX-1.6.so.0:_ZN2FX6FXText6detachEv
libFOX-1.6.so.0:_ZN2FX6FXText6enableEv
libFOX-1.6.so.0:_ZN2FX6FXText6handleEPNS_8FXObjectEjPv
libFOX-1.6.so.0:_ZN2FX6FXText6layoutEv
libFOX-1.6.so.0:_ZN2FX6FXText6recalcEv
libFOX-1.6.so.0:_ZN2FX6FXText7disableEv
libFOX-1.6.so.0:_ZN2FX6FXText7movegapEi
libFOX-1.6.so.0:_ZN2FX6FXText7onBlinkEPNS_8FXObjectEjPv
libFOX-1.6.so.0:_ZN2FX6FXText7onFlashEPNS_8FXObjectEjPv
libFOX-1.6.so.0:_ZN2FX6FXText7onPaintEPNS_8FXObjectEjPv
libFOX-1.6.so.0:_ZN2FX6FXText7replaceEiiPKcii
libFOX-1.6.so.0:_ZN2FX6FXText7setFontEPNS_6FXFontE
libFOX-1.6.so.0:_ZN2FX6FXText7setTextEPKcih
libFOX-1.6.so.0:_ZN2FX6FXText7setTextERKNS_8FXStringEh
libFOX-1.6.so.0:_ZN2FX6FXText7sizegapEi
libFOX-1.6.so.0:_ZN2FX6FXText8findTextERKNS_8FXStringEPiS4_iji
libFOX-1.6.so.0:_ZN2FX6FXText8mutationEiiiii
libFOX-1.6.so.0:_ZN2FX6FXText8onMotionEPNS_8FXObjectEjPv
libFOX-1.6.so.0:_ZN2FX6FXText8setFocusEv
libFOX-1.6.so.0:_ZN2FX6FXText9killFocusEv
libFOX-1.6.so.0:_ZN2FX6FXText9onCmdMarkEPNS_8FXObjectEjPv
libFOX-1.6.so.0:_ZN2FX6FXText9onDNDDropEPNS_8FXObjectEjPv
libFOX-1.6.so.0:_ZN2FX6FXText9onDraggedEPNS_8FXObjectEjPv
libFOX-1.6.so.0:_ZN2FX6FXText9onEndDragEPNS_8FXObjectEjPv
libFOX-1.6.so.0:_ZN2FX6FXText9onFocusInEPNS_8FXObjectEjPv
libFOX-1.6.so.0:_ZN2FX6FXText9recomputeEv
libFOX-1.6.so.0:_ZN2FX6FXText9selectAllEh
libFOX-1.6.so.0:_ZN2FX6FXText9setStyledEh
libFOX-1.6.so.0:_ZN2FX6FXText9shiftTextEiiih
libFOX-1.6.so.0:_ZN2FX6FXTextC1EPNS_11FXCompositeEPNS_8FXObjectEjjiiiiiiii
libFOX-1.6.so.0:_ZN2FX6FXTextC1Ev
libFOX-1.6.so.0:_ZN2FX6FXTextC2EPNS_11FXCompositeEPNS_8FXObjectEjjiiiiiiii
libFOX-1.6.so.0:_ZN2FX6FXTextC2Ev
libFOX-1.6.so.0:_ZN2FX6FXTextD0Ev
libFOX-1.6.so.0:_ZN2FX6FXTextD1Ev
libFOX-1.6.so.0:_ZN2FX6FXTextD2Ev
libFOX-1.6.so.0:_ZN2FX6escapeERKNS_8FXStringE
libFOX-1.6.so.0:_ZN2FX6fxfreeEPPv
libFOX-1.6.so.0:_ZN2FX6ncslenEPKc
libFOX-1.6.so.0:_ZN2FX6ncslenEPKci
libFOX-1.6.so.0:_ZN2FX6normalERKNS_7FXVec3dES2_S2_
libFOX-1.6.so.0:_ZN2FX6normalERKNS_7FXVec3dES2_S2_S2_
libFOX-1.6.so.0:_ZN2FX6normalERKNS_7FXVec3fES2_S2_
libFOX-1.6.so.0:_ZN2FX6normalERKNS_7FXVec3fES2_S2_S2_
libFOX-1.6.so.0:_ZN2FX6wcslenEPKc
libFOX-1.6.so.0:_ZN2FX6wcslenEPKci
libFOX-1.6.so.0:_ZN2FX7FXFrame10setPadLeftEi
libFOX-1.6.so.0:_ZN2FX7FXFrame11manufactureEv
libFOX-1.6.so.0:_ZN2FX7FXFrame11setPadRightEi
libFOX-1.6.so.0:_ZN2FX7FXFrame12setBaseColorEj
libFOX-1.6.so.0:_ZN2FX7FXFrame12setPadBottomEi
libFOX-1.6.so.0:_ZN2FX7FXFrame13setFrameStyleEj
libFOX-1.6.so.0:_ZN2FX7FXFrame14setBorderColorEj
libFOX-1.6.so.0:_ZN2FX7FXFrame14setHiliteColorEj
libFOX-1.6.so.0:_ZN2FX7FXFrame14setShadowColorEj
libFOX-1.6.so.0:_ZN2FX7FXFrame15getDefaultWidthEv
libFOX-1.6.so.0:_ZN2FX7FXFrame16getDefaultHeightEv
libFOX-1.6.so.0:_ZN2FX7FXFrame18drawRidgeRectangleERNS_10FXDCWindowEiiii
libFOX-1.6.so.0:_ZN2FX7FXFrame19drawBorderRectangleERNS_10FXDCWindowEiiii
libFOX-1.6.so.0:_ZN2FX7FXFrame19drawGrooveRectangleERNS_10FXDCWindowEiiii
libFOX-1.6.so.0:_ZN2FX7FXFrame19drawRaisedRectangleERNS_10FXDCWindowEiiii
libFOX-1.6.so.0:_ZN2FX7FXFrame19drawSunkenRectangleERNS_10FXDCWindowEiiii
libFOX-1.6.so.0:_ZN2FX7FXFrame25drawDoubleRaisedRectangleERNS_10FXDCWindowEiiii
libFOX-1.6.so.0:_ZN2FX7FXFrame25drawDoubleSunkenRectangleERNS_10FXDCWindowEiiii
libFOX-1.6.so.0:_ZN2FX7FXFrame4loadERNS_8FXStreamE
libFOX-1.6.so.0:_ZN2FX7FXFrame6handleEPNS_8FXObjectEjPv
libFOX-1.6.so.0:_ZN2FX7FXFrame7onPaintEPNS_8FXObjectEjPv
libFOX-1.6.so.0:_ZN2FX7FXFrame9drawFrameERNS_10FXDCWindowEiiii
libFOX-1.6.so.0:_ZN2FX7FXFrame9setPadTopEi
libFOX-1.6.so.0:_ZN2FX7FXFrameC1EPNS_11FXCompositeEjiiiiiiii
libFOX-1.6.so.0:_ZN2FX7FXFrameC1Ev
libFOX-1.6.so.0:_ZN2FX7FXFrameC2EPNS_11FXCompositeEjiiiiiiii
libFOX-1.6.so.0:_ZN2FX7FXFrameC2Ev
libFOX-1.6.so.0:_ZN2FX7FXImage10loadPixelsERNS_8FXStreamE
libFOX-1.6.so.0:_ZN2FX7FXImage10setOptionsEj
libFOX-1.6.so.0:_ZN2FX7FXImage11manufactureEv
libFOX-1.6.so.0:_ZN2FX7FXImage14render_true_24EPvPh
libFOX-1.6.so.0:_ZN2FX7FXImage14render_true_32EPvPh
libFOX-1.6.so.0:_ZN2FX7FXImage18render_gray_8_fastEPvPh
libFOX-1.6.so.0:_ZN2FX7FXImage18render_gray_N_fastEPvPh
libFOX-1.6.so.0:_ZN2FX7FXImage18render_mono_1_fastEPvPh
libFOX-1.6.so.0:_ZN2FX7FXImage18render_true_8_fastEPvPh
libFOX-1.6.so.0:_ZN2FX7FXImage18render_true_N_fastEPvPh
libFOX-1.6.so.0:_ZN2FX7FXImage19render_index_4_fastEPvPh
libFOX-1.6.so.0:_ZN2FX7FXImage19render_index_8_fastEPvPh
libFOX-1.6.so.0:_ZN2FX7FXImage19render_index_N_fastEPvPh
libFOX-1.6.so.0:_ZN2FX7FXImage19render_true_16_fastEPvPh
libFOX-1.6.so.0:_ZN2FX7FXImage20render_gray_8_ditherEPvPh
libFOX-1.6.so.0:_ZN2FX7FXImage20render_gray_N_ditherEPvPh
libFOX-1.6.so.0:_ZN2FX7FXImage20render_mono_1_ditherEPvPh
libFOX-1.6.so.0:_ZN2FX7FXImage20render_true_8_ditherEPvPh
libFOX-1.6.so.0:_ZN2FX7FXImage20render_true_N_ditherEPvPh
libFOX-1.6.so.0:_ZN2FX7FXImage21render_index_4_ditherEPvPh
libFOX-1.6.so.0:_ZN2FX7FXImage21render_index_8_ditherEPvPh
libFOX-1.6.so.0:_ZN2FX7FXImage21render_index_N_ditherEPvPh
libFOX-1.6.so.0:_ZN2FX7FXImage21render_true_16_ditherEPvPh
libFOX-1.6.so.0:_ZN2FX7FXImage4cropEiiiij
libFOX-1.6.so.0:_ZN2FX7FXImage4fadeEji
libFOX-1.6.so.0:_ZN2FX7FXImage4fillEj
libFOX-1.6.so.0:_ZN2FX7FXImage4loadERNS_8FXStreamE
libFOX-1.6.so.0:_ZN2FX7FXImage5blendEj
libFOX-1.6.so.0:_ZN2FX7FXImage5scaleEiii
libFOX-1.6.so.0:_ZN2FX7FXImage6createEv
libFOX-1.6.so.0:_ZN2FX7FXImage6detachEv
libFOX-1.6.so.0:_ZN2FX7FXImage6handleEPNS_8FXObjectEjPv
libFOX-1.6.so.0:_ZN2FX7FXImage6mirrorEbb
libFOX-1.6.so.0:_ZN2FX7FXImage6renderEv
libFOX-1.6.so.0:_ZN2FX7FXImage6resizeEii
libFOX-1.6.so.0:_ZN2FX7FXImage6rotateEi
libFOX-1.6.so.0:_ZN2FX7FXImage6xshearEij
libFOX-1.6.so.0:_ZN2FX7FXImage6yshearEij
libFOX-1.6.so.0:_ZN2FX7FXImage7destroyEv
libFOX-1.6.so.0:_ZN2FX7FXImage7releaseEv
libFOX-1.6.so.0:_ZN2FX7FXImage7restoreEv
libFOX-1.6.so.0:_ZN2FX7FXImage7setDataEPjj
libFOX-1.6.so.0:_ZN2FX7FXImage7setDataEPjjii
libFOX-1.6.so.0:_ZN2FX7FXImage8gradientEjjjj
libFOX-1.6.so.0:_ZN2FX7FXImage9hgradientEjj
libFOX-1.6.so.0:_ZN2FX7FXImage9vgradientEjj
libFOX-1.6.so.0:_ZN2FX7FXImageC1EPNS_5FXAppEPKjjii
libFOX-1.6.so.0:_ZN2FX7FXImageC1Ev
libFOX-1.6.so.0:_ZN2FX7FXImageC2EPNS_5FXAppEPKjjii
libFOX-1.6.so.0:_ZN2FX7FXImageC2Ev
libFOX-1.6.so.0:_ZN2FX7FXImageD0Ev
libFOX-1.6.so.0:_ZN2FX7FXImageD1Ev
libFOX-1.6.so.0:_ZN2FX7FXImageD2Ev
libFOX-1.6.so.0:_ZN2FX7FXLabel10onQueryTipEPNS_8FXObjectEjPv
libFOX-1.6.so.0:_ZN2FX7FXLabel10setJustifyEj
libFOX-1.6.so.0:_ZN2FX7FXLabel11manufactureEv
libFOX-1.6.so.0:_ZN2FX7FXLabel11onCmdGetTipEPNS_8FXObjectEjPv
libFOX-1.6.so.0:_ZN2FX7FXLabel11onCmdSetTipEPNS_8FXObjectEjPv
libFOX-1.6.so.0:_ZN2FX7FXLabel11onQueryHelpEPNS_8FXObjectEjPv
libFOX-1.6.so.0:_ZN2FX7FXLabel12onCmdGetHelpEPNS_8FXObjectEjPv
libFOX-1.6.so.0:_ZN2FX7FXLabel12onCmdSetHelpEPNS_8FXObjectEjPv
libFOX-1.6.so.0:_ZN2FX7FXLabel12setTextColorEj
libFOX-1.6.so.0:_ZN2FX7FXLabel13onCmdSetValueEPNS_8FXObjectEjPv
libFOX-1.6.so.0:_ZN2FX7FXLabel13onHotKeyPressEPNS_8FXObjectEjPv
libFOX-1.6.so.0:_ZN2FX7FXLabel15getDefaultWidthEv
libFOX-1.6.so.0:_ZN2FX7FXLabel15onHotKeyReleaseEPNS_8FXObjectEjPv
libFOX-1.6.so.0:_ZN2FX7FXLabel15setIconPositionEj
libFOX-1.6.so.0:_ZN2FX7FXLabel16getDefaultHeightEv
libFOX-1.6.so.0:_ZN2FX7FXLabel17onCmdGetIconValueEPNS_8FXObjectEjPv
libFOX-1.6.so.0:_ZN2FX7FXLabel17onCmdSetIconValueEPNS_8FXObjectEjPv
libFOX-1.6.so.0:_ZN2FX7FXLabel19onCmdGetStringValueEPNS_8FXObjectEjPv
libFOX-1.6.so.0:_ZN2FX7FXLabel19onCmdSetStringValueEPNS_8FXObjectEjPv
libFOX-1.6.so.0:_ZN2FX7FXLabel4loadERNS_8FXStreamE
libFOX-1.6.so.0:_ZN2FX7FXLabel6createEv
libFOX-1.6.so.0:_ZN2FX7FXLabel6detachEv
libFOX-1.6.so.0:_ZN2FX7FXLabel6enableEv
libFOX-1.6.so.0:_ZN2FX7FXLabel6handleEPNS_8FXObjectEjPv
libFOX-1.6.so.0:_ZN2FX7FXLabel6just_xERiS1_ii
libFOX-1.6.so.0:_ZN2FX7FXLabel6just_yERiS1_ii
libFOX-1.6.so.0:_ZN2FX7FXLabel7disableEv
libFOX-1.6.so.0:_ZN2FX7FXLabel7onPaintEPNS_8FXObjectEjPv
libFOX-1.6.so.0:_ZN2FX7FXLabel7setFontEPNS_6FXFontE
libFOX-1.6.so.0:_ZN2FX7FXLabel7setIconEPNS_6FXIconE
libFOX-1.6.so.0:_ZN2FX7FXLabel7setTextERKNS_8FXStringE
libFOX-1.6.so.0:_ZN2FX7FXLabel9drawLabelERNS_10FXDCWindowERKNS_8FXStringEiiiii
libFOX-1.6.so.0:_ZN2FX7FXLabelC1EPNS_11FXCompositeERKNS_8FXStringEPNS_6FXIconEjiiiiiiii
libFOX-1.6.so.0:_ZN2FX7FXLabelC1Ev
libFOX-1.6.so.0:_ZN2FX7FXLabelC2EPNS_11FXCompositeERKNS_8FXStringEPNS_6FXIconEjiiiiiiii
libFOX-1.6.so.0:_ZN2FX7FXLabelC2Ev
libFOX-1.6.so.0:_ZN2FX7FXLabelD0Ev
libFOX-1.6.so.0:_ZN2FX7FXLabelD1Ev
libFOX-1.6.so.0:_ZN2FX7FXLabelD2Ev
libFOX-1.6.so.0:_ZN2FX7FXMat3d3eyeEv
libFOX-1.6.so.0:_ZN2FX7FXMat3d3rotEd
libFOX-1.6.so.0:_ZN2FX7FXMat3d3rotEdd
libFOX-1.6.so.0:_ZN2FX7FXMat3d3setERKNS_7FXQuatdE
libFOX-1.6.so.0:_ZN2FX7FXMat3d3setERKNS_7FXVec3dES3_S3_
libFOX-1.6.so.0:_ZN2FX7FXMat3d3setERKS0_
libFOX-1.6.so.0:_ZN2FX7FXMat3d3setEd
libFOX-1.6.so.0:_ZN2FX7FXMat3d3setEddddddddd
libFOX-1.6.so.0:_ZN2FX7FXMat3d5scaleEd
libFOX-1.6.so.0:_ZN2FX7FXMat3d5scaleEdd
libFOX-1.6.so.0:_ZN2FX7FXMat3d5transEdd
libFOX-1.6.so.0:_ZN2FX7FXMat3dC1ERKNS_7FXQuatdE
libFOX-1.6.so.0:_ZN2FX7FXMat3dC1ERKNS_7FXVec3dES3_S3_
libFOX-1.6.so.0:_ZN2FX7FXMat3dC1ERKS0_
libFOX-1.6.so.0:_ZN2FX7FXMat3dC1Ed
libFOX-1.6.so.0:_ZN2FX7FXMat3dC1Eddddddddd
libFOX-1.6.so.0:_ZN2FX7FXMat3dC2ERKNS_7FXQuatdE
libFOX-1.6.so.0:_ZN2FX7FXMat3dC2ERKNS_7FXVec3dES3_S3_
libFOX-1.6.so.0:_ZN2FX7FXMat3dC2ERKS0_
libFOX-1.6.so.0:_ZN2FX7FXMat3dC2Ed
libFOX-1.6.so.0:_ZN2FX7FXMat3dC2Eddddddddd
libFOX-1.6.so.0:_ZN2FX7FXMat3daSERKS0_
libFOX-1.6.so.0:_ZN2FX7FXMat3daSEd
libFOX-1.6.so.0:_ZN2FX7FXMat3ddVEd
libFOX-1.6.so.0:_ZN2FX7FXMat3dmIERKS0_
libFOX-1.6.so.0:_ZN2FX7FXMat3dmLERKS0_
libFOX-1.6.so.0:_ZN2FX7FXMat3dmLEd
libFOX-1.6.so.0:_ZN2FX7FXMat3dpLERKS0_
libFOX-1.6.so.0:_ZN2FX7FXMat3f3eyeEv
libFOX-1.6.so.0:_ZN2FX7FXMat3f3rotEf
libFOX-1.6.so.0:_ZN2FX7FXMat3f3rotEff
libFOX-1.6.so.0:_ZN2FX7FXMat3f3setERKNS_7FXQuatfE
libFOX-1.6.so.0:_ZN2FX7FXMat3f3setERKNS_7FXVec3fES3_S3_
libFOX-1.6.so.0:_ZN2FX7FXMat3f3setERKS0_
libFOX-1.6.so.0:_ZN2FX7FXMat3f3setEf
libFOX-1.6.so.0:_ZN2FX7FXMat3f3setEfffffffff
libFOX-1.6.so.0:_ZN2FX7FXMat3f5scaleEf
libFOX-1.6.so.0:_ZN2FX7FXMat3f5scaleEff
libFOX-1.6.so.0:_ZN2FX7FXMat3f5transEff
libFOX-1.6.so.0:_ZN2FX7FXMat3fC1ERKNS_7FXQuatfE
libFOX-1.6.so.0:_ZN2FX7FXMat3fC1ERKNS_7FXVec3fES3_S3_
libFOX-1.6.so.0:_ZN2FX7FXMat3fC1ERKS0_
libFOX-1.6.so.0:_ZN2FX7FXMat3fC1Ef
libFOX-1.6.so.0:_ZN2FX7FXMat3fC1Efffffffff
libFOX-1.6.so.0:_ZN2FX7FXMat3fC2ERKNS_7FXQuatfE
libFOX-1.6.so.0:_ZN2FX7FXMat3fC2ERKNS_7FXVec3fES3_S3_
libFOX-1.6.so.0:_ZN2FX7FXMat3fC2ERKS0_
libFOX-1.6.so.0:_ZN2FX7FXMat3fC2Ef
libFOX-1.6.so.0:_ZN2FX7FXMat3fC2Efffffffff
libFOX-1.6.so.0:_ZN2FX7FXMat3faSERKS0_
libFOX-1.6.so.0:_ZN2FX7FXMat3faSEf
libFOX-1.6.so.0:_ZN2FX7FXMat3fdVEf
libFOX-1.6.so.0:_ZN2FX7FXMat3fmIERKS0_
libFOX-1.6.so.0:_ZN2FX7FXMat3fmLERKS0_
libFOX-1.6.so.0:_ZN2FX7FXMat3fmLEf
libFOX-1.6.so.0:_ZN2FX7FXMat3fpLERKS0_
libFOX-1.6.so.0:_ZN2FX7FXMat4d3eyeEv
libFOX-1.6.so.0:_ZN2FX7FXMat4d3rotERKNS_7FXQuatdE
libFOX-1.6.so.0:_ZN2FX7FXMat4d3rotERKNS_7FXVec3dEd
libFOX-1.6.so.0:_ZN2FX7FXMat4d3rotERKNS_7FXVec3dEdd
libFOX-1.6.so.0:_ZN2FX7FXMat4d3setERKNS_7FXVec4dES3_S3_S3_
libFOX-1.6.so.0:_ZN2FX7FXMat4d3setERKS0_
libFOX-1.6.so.0:_ZN2FX7FXMat4d3setEd
libFOX-1.6.so.0:_ZN2FX7FXMat4d3setEdddddddddddddddd
libFOX-1.6.so.0:_ZN2FX7FXMat4d4leftEv
libFOX-1.6.so.0:_ZN2FX7FXMat4d4lookERKNS_7FXVec3dES3_S3_
libFOX-1.6.so.0:_ZN2FX7FXMat4d4xrotEd
libFOX-1.6.so.0:_ZN2FX7FXMat4d4xrotEdd
libFOX-1.6.so.0:_ZN2FX7FXMat4d4yrotEd
libFOX-1.6.so.0:_ZN2FX7FXMat4d4yrotEdd
libFOX-1.6.so.0:_ZN2FX7FXMat4d4zrotEd
libFOX-1.6.so.0:_ZN2FX7FXMat4d4zrotEdd
libFOX-1.6.so.0:_ZN2FX7FXMat4d5orthoEdddddd
libFOX-1.6.so.0:_ZN2FX7FXMat4d5scaleERKNS_7FXVec3dE
libFOX-1.6.so.0:_ZN2FX7FXMat4d5scaleEd
libFOX-1.6.so.0:_ZN2FX7FXMat4d5scaleEddd
libFOX-1.6.so.0:_ZN2FX7FXMat4d5transERKNS_7FXVec3dE
libFOX-1.6.so.0:_ZN2FX7FXMat4d5transEddd
libFOX-1.6.so.0:_ZN2FX7FXMat4d7frustumEdddddd
libFOX-1.6.so.0:_ZN2FX7FXMat4dC1ERKNS_7FXVec4dES3_S3_S3_
libFOX-1.6.so.0:_ZN2FX7FXMat4dC1ERKS0_
libFOX-1.6.so.0:_ZN2FX7FXMat4dC1Ed
libFOX-1.6.so.0:_ZN2FX7FXMat4dC1Edddddddddddddddd
libFOX-1.6.so.0:_ZN2FX7FXMat4dC2ERKNS_7FXVec4dES3_S3_S3_
libFOX-1.6.so.0:_ZN2FX7FXMat4dC2ERKS0_
libFOX-1.6.so.0:_ZN2FX7FXMat4dC2Ed
libFOX-1.6.so.0:_ZN2FX7FXMat4dC2Edddddddddddddddd
libFOX-1.6.so.0:_ZN2FX7FXMat4daSERKS0_
libFOX-1.6.so.0:_ZN2FX7FXMat4daSEd
libFOX-1.6.so.0:_ZN2FX7FXMat4ddVEd
libFOX-1.6.so.0:_ZN2FX7FXMat4dmIERKS0_
libFOX-1.6.so.0:_ZN2FX7FXMat4dmLERKS0_
libFOX-1.6.so.0:_ZN2FX7FXMat4dmLEd
libFOX-1.6.so.0:_ZN2FX7FXMat4dpLERKS0_
libFOX-1.6.so.0:_ZN2FX7FXMat4f3eyeEv
libFOX-1.6.so.0:_ZN2FX7FXMat4f3rotERKNS_7FXQuatfE
libFOX-1.6.so.0:_ZN2FX7FXMat4f3rotERKNS_7FXVec3fEf
libFOX-1.6.so.0:_ZN2FX7FXMat4f3rotERKNS_7FXVec3fEff
libFOX-1.6.so.0:_ZN2FX7FXMat4f3setERKNS_7FXVec4fES3_S3_S3_
libFOX-1.6.so.0:_ZN2FX7FXMat4f3setERKS0_
libFOX-1.6.so.0:_ZN2FX7FXMat4f3setEf
libFOX-1.6.so.0:_ZN2FX7FXMat4f3setEffffffffffffffff
libFOX-1.6.so.0:_ZN2FX7FXMat4f4leftEv
libFOX-1.6.so.0:_ZN2FX7FXMat4f4lookERKNS_7FXVec3fES3_S3_
libFOX-1.6.so.0:_ZN2FX7FXMat4f4xrotEf
libFOX-1.6.so.0:_ZN2FX7FXMat4f4xrotEff
libFOX-1.6.so.0:_ZN2FX7FXMat4f4yrotEf
libFOX-1.6.so.0:_ZN2FX7FXMat4f4yrotEff
libFOX-1.6.so.0:_ZN2FX7FXMat4f4zrotEf
libFOX-1.6.so.0:_ZN2FX7FXMat4f4zrotEff
libFOX-1.6.so.0:_ZN2FX7FXMat4f5orthoEffffff
libFOX-1.6.so.0:_ZN2FX7FXMat4f5scaleERKNS_7FXVec3fE
libFOX-1.6.so.0:_ZN2FX7FXMat4f5scaleEf
libFOX-1.6.so.0:_ZN2FX7FXMat4f5scaleEfff
libFOX-1.6.so.0:_ZN2FX7FXMat4f5transERKNS_7FXVec3fE
libFOX-1.6.so.0:_ZN2FX7FXMat4f5transEfff
libFOX-1.6.so.0:_ZN2FX7FXMat4f7frustumEffffff
libFOX-1.6.so.0:_ZN2FX7FXMat4fC1ERKNS_7FXVec4fES3_S3_S3_
libFOX-1.6.so.0:_ZN2FX7FXMat4fC1ERKS0_
libFOX-1.6.so.0:_ZN2FX7FXMat4fC1Ef
libFOX-1.6.so.0:_ZN2FX7FXMat4fC1Effffffffffffffff
libFOX-1.6.so.0:_ZN2FX7FXMat4fC2ERKNS_7FXVec4fES3_S3_S3_
libFOX-1.6.so.0:_ZN2FX7FXMat4fC2ERKS0_
libFOX-1.6.so.0:_ZN2FX7FXMat4fC2Ef
libFOX-1.6.so.0:_ZN2FX7FXMat4fC2Effffffffffffffff
libFOX-1.6.so.0:_ZN2FX7FXMat4faSERKS0_
libFOX-1.6.so.0:_ZN2FX7FXMat4faSEf
libFOX-1.6.so.0:_ZN2FX7FXMat4fdVEf
libFOX-1.6.so.0:_ZN2FX7FXMat4fmIERKS0_
libFOX-1.6.so.0:_ZN2FX7FXMat4fmLERKS0_
libFOX-1.6.so.0:_ZN2FX7FXMat4fmLEf
libFOX-1.6.so.0:_ZN2FX7FXMat4fpLERKS0_
libFOX-1.6.so.0:_ZN2FX7FXMutex4lockEv
libFOX-1.6.so.0:_ZN2FX7FXMutex6lockedEv
libFOX-1.6.so.0:_ZN2FX7FXMutex6unlockEv
libFOX-1.6.so.0:_ZN2FX7FXMutex7trylockEv
libFOX-1.6.so.0:_ZN2FX7FXMutexC1Eh
libFOX-1.6.so.0:_ZN2FX7FXMutexC2Eh
libFOX-1.6.so.0:_ZN2FX7FXMutexD1Ev
libFOX-1.6.so.0:_ZN2FX7FXMutexD2Ev
libFOX-1.6.so.0:_ZN2FX7FXPopup10onKeyPressEPNS_8FXObjectEjPv
libFOX-1.6.so.0:_ZN2FX7FXPopup11manufactureEv
libFOX-1.6.so.0:_ZN2FX7FXPopup11onCmdChoiceEPNS_8FXObjectEjPv
libFOX-1.6.so.0:_ZN2FX7FXPopup11onCmdUnpostEPNS_8FXObjectEjPv
libFOX-1.6.so.0:_ZN2FX7FXPopup11onFocusDownEPNS_8FXObjectEjPv
libFOX-1.6.so.0:_ZN2FX7FXPopup11onFocusLeftEPNS_8FXObjectEjPv
libFOX-1.6.so.0:_ZN2FX7FXPopup11onFocusNextEPNS_8FXObjectEjPv
libFOX-1.6.so.0:_ZN2FX7FXPopup11onFocusPrevEPNS_8FXObjectEjPv
libFOX-1.6.so.0:_ZN2FX7FXPopup11onUngrabbedEPNS_8FXObjectEjPv
libFOX-1.6.so.0:_ZN2FX7FXPopup12onFocusRightEPNS_8FXObjectEjPv
libFOX-1.6.so.0:_ZN2FX7FXPopup12onKeyReleaseEPNS_8FXObjectEjPv
libFOX-1.6.so.0:_ZN2FX7FXPopup12setBaseColorEj
libFOX-1.6.so.0:_ZN2FX7FXPopup13onButtonPressEPNS_8FXObjectEjPv
libFOX-1.6.so.0:_ZN2FX7FXPopup13setFrameStyleEj
libFOX-1.6.so.0:_ZN2FX7FXPopup13setShrinkWrapEh
libFOX-1.6.so.0:_ZN2FX7FXPopup14setBorderColorEj
libFOX-1.6.so.0:_ZN2FX7FXPopup14setHiliteColorEj
libFOX-1.6.so.0:_ZN2FX7FXPopup14setOrientationEj
libFOX-1.6.so.0:_ZN2FX7FXPopup14setShadowColorEj
libFOX-1.6.so.0:_ZN2FX7FXPopup15getDefaultWidthEv
libFOX-1.6.so.0:_ZN2FX7FXPopup15onButtonReleaseEPNS_8FXObjectEjPv
libFOX-1.6.so.0:_ZN2FX7FXPopup16getDefaultHeightEv
libFOX-1.6.so.0:_ZN2FX7FXPopup18drawRidgeRectangleERNS_10FXDCWindowEiiii
libFOX-1.6.so.0:_ZN2FX7FXPopup19drawBorderRectangleERNS_10FXDCWindowEiiii
libFOX-1.6.so.0:_ZN2FX7FXPopup19drawGrooveRectangleERNS_10FXDCWindowEiiii
libFOX-1.6.so.0:_ZN2FX7FXPopup19drawRaisedRectangleERNS_10FXDCWindowEiiii
libFOX-1.6.so.0:_ZN2FX7FXPopup19drawSunkenRectangleERNS_10FXDCWindowEiiii
libFOX-1.6.so.0:_ZN2FX7FXPopup25drawDoubleRaisedRectangleERNS_10FXDCWindowEiiii
libFOX-1.6.so.0:_ZN2FX7FXPopup25drawDoubleSunkenRectangleERNS_10FXDCWindowEiiii
libFOX-1.6.so.0:_ZN2FX7FXPopup4hideEv
libFOX-1.6.so.0:_ZN2FX7FXPopup4showEv
libFOX-1.6.so.0:_ZN2FX7FXPopup5onMapEPNS_8FXObjectEjPv
libFOX-1.6.so.0:_ZN2FX7FXPopup5popupEPNS_8FXWindowEiiii
libFOX-1.6.so.0:_ZN2FX7FXPopup6handleEPNS_8FXObjectEjPv
libFOX-1.6.so.0:_ZN2FX7FXPopup6layoutEv
libFOX-1.6.so.0:_ZN2FX7FXPopup7onEnterEPNS_8FXObjectEjPv
libFOX-1.6.so.0:_ZN2FX7FXPopup7onLeaveEPNS_8FXObjectEjPv
libFOX-1.6.so.0:_ZN2FX7FXPopup7onPaintEPNS_8FXObjectEjPv
libFOX-1.6.so.0:_ZN2FX7FXPopup7popdownEv
libFOX-1.6.so.0:_ZN2FX7FXPopup8onMotionEPNS_8FXObjectEjPv
libFOX-1.6.so.0:_ZN2FX7FXPopup8setFocusEv
libFOX-1.6.so.0:_ZN2FX7FXPopup9drawFrameERNS_10FXDCWindowEiiii
libFOX-1.6.so.0:_ZN2FX7FXPopup9killFocusEv
libFOX-1.6.so.0:_ZN2FX7FXPopup9onFocusUpEPNS_8FXObjectEjPv
libFOX-1.6.so.0:_ZN2FX7FXPopupC1EPNS_8FXWindowEjiiii
libFOX-1.6.so.0:_ZN2FX7FXPopupC1Ev
libFOX-1.6.so.0:_ZN2FX7FXPopupC2EPNS_8FXWindowEjiiii
libFOX-1.6.so.0:_ZN2FX7FXPopupC2Ev
libFOX-1.6.so.0:_ZN2FX7FXPopupD0Ev
libFOX-1.6.so.0:_ZN2FX7FXPopupD1Ev
libFOX-1.6.so.0:_ZN2FX7FXPopupD2Ev
libFOX-1.6.so.0:_ZN2FX7FXQuatd12setAxisAngleERKNS_7FXVec3dEd
libFOX-1.6.so.0:_ZN2FX7FXQuatd15setPitchRollYawEddd
libFOX-1.6.so.0:_ZN2FX7FXQuatd15setPitchYawRollEddd
libFOX-1.6.so.0:_ZN2FX7FXQuatd15setRollPitchYawEddd
libFOX-1.6.so.0:_ZN2FX7FXQuatd15setRollYawPitchEddd
libFOX-1.6.so.0:_ZN2FX7FXQuatd15setYawPitchRollEddd
libFOX-1.6.so.0:_ZN2FX7FXQuatd15setYawRollPitchEddd
libFOX-1.6.so.0:_ZN2FX7FXQuatd3arcERKNS_7FXVec3dES3_
libFOX-1.6.so.0:_ZN2FX7FXQuatd4lerpERKS0_S2_d
libFOX-1.6.so.0:_ZN2FX7FXQuatd6adjustEv
libFOX-1.6.so.0:_ZN2FX7FXQuatd7setAxesERKNS_7FXVec3dES3_S3_
libFOX-1.6.so.0:_ZN2FX7FXQuatdC1ERKNS_7FXMat3dE
libFOX-1.6.so.0:_ZN2FX7FXQuatdC1ERKNS_7FXVec3dES3_
libFOX-1.6.so.0:_ZN2FX7FXQuatdC1ERKNS_7FXVec3dES3_S3_
libFOX-1.6.so.0:_ZN2FX7FXQuatdC1ERKNS_7FXVec3dEd
libFOX-1.6.so.0:_ZN2FX7FXQuatdC1Eddd
libFOX-1.6.so.0:_ZN2FX7FXQuatdC2ERKNS_7FXMat3dE
libFOX-1.6.so.0:_ZN2FX7FXQuatdC2ERKNS_7FXVec3dES3_
libFOX-1.6.so.0:_ZN2FX7FXQuatdC2ERKNS_7FXVec3dES3_S3_
libFOX-1.6.so.0:_ZN2FX7FXQuatdC2ERKNS_7FXVec3dEd
libFOX-1.6.so.0:_ZN2FX7FXQuatdC2Eddd
libFOX-1.6.so.0:_ZN2FX7FXQuatf12setAxisAngleERKNS_7FXVec3fEf
libFOX-1.6.so.0:_ZN2FX7FXQuatf15setPitchRollYawEfff
libFOX-1.6.so.0:_ZN2FX7FXQuatf15setPitchYawRollEfff
libFOX-1.6.so.0:_ZN2FX7FXQuatf15setRollPitchYawEfff
libFOX-1.6.so.0:_ZN2FX7FXQuatf15setRollYawPitchEfff
libFOX-1.6.so.0:_ZN2FX7FXQuatf15setYawPitchRollEfff
libFOX-1.6.so.0:_ZN2FX7FXQuatf15setYawRollPitchEfff
libFOX-1.6.so.0:_ZN2FX7FXQuatf3arcERKNS_7FXVec3fES3_
libFOX-1.6.so.0:_ZN2FX7FXQuatf4lerpERKS0_S2_f
libFOX-1.6.so.0:_ZN2FX7FXQuatf6adjustEv
libFOX-1.6.so.0:_ZN2FX7FXQuatf7setAxesERKNS_7FXVec3fES3_S3_
libFOX-1.6.so.0:_ZN2FX7FXQuatfC1ERKNS_7FXMat3fE
libFOX-1.6.so.0:_ZN2FX7FXQuatfC1ERKNS_7FXVec3fES3_
libFOX-1.6.so.0:_ZN2FX7FXQuatfC1ERKNS_7FXVec3fES3_S3_
libFOX-1.6.so.0:_ZN2FX7FXQuatfC1ERKNS_7FXVec3fEf
libFOX-1.6.so.0:_ZN2FX7FXQuatfC1Efff
libFOX-1.6.so.0:_ZN2FX7FXQuatfC2ERKNS_7FXMat3fE
libFOX-1.6.so.0:_ZN2FX7FXQuatfC2ERKNS_7FXVec3fES3_
libFOX-1.6.so.0:_ZN2FX7FXQuatfC2ERKNS_7FXVec3fES3_S3_
libFOX-1.6.so.0:_ZN2FX7FXQuatfC2ERKNS_7FXVec3fEf
libFOX-1.6.so.0:_ZN2FX7FXQuatfC2Efff
libFOX-1.6.so.0:_ZN2FX7FXRuler10onQueryTipEPNS_8FXObjectEjPv
libFOX-1.6.so.0:_ZN2FX7FXRuler11drawUpArrowERNS_10FXDCWindowEii
libFOX-1.6.so.0:_ZN2FX7FXRuler11manufactureEv
libFOX-1.6.so.0:_ZN2FX7FXRuler11onCmdGetTipEPNS_8FXObjectEjPv
libFOX-1.6.so.0:_ZN2FX7FXRuler11onCmdSetTipEPNS_8FXObjectEjPv
libFOX-1.6.so.0:_ZN2FX7FXRuler11onQueryHelpEPNS_8FXObjectEjPv
libFOX-1.6.so.0:_ZN2FX7FXRuler11setPositionEih
libFOX-1.6.so.0:_ZN2FX7FXRuler12drawUpMarkerERNS_10FXDCWindowEii
libFOX-1.6.so.0:_ZN2FX7FXRuler12onCmdGetHelpEPNS_8FXObjectEjPv
libFOX-1.6.so.0:_ZN2FX7FXRuler12onCmdSetHelpEPNS_8FXObjectEjPv
libFOX-1.6.so.0:_ZN2FX7FXRuler12setTextColorEj
libFOX-1.6.so.0:_ZN2FX7FXRuler12setTinyTicksEih
libFOX-1.6.so.0:_ZN2FX7FXRuler13drawDownArrowERNS_10FXDCWindowEii
libFOX-1.6.so.0:_ZN2FX7FXRuler13drawLeftArrowERNS_10FXDCWindowEii
libFOX-1.6.so.0:_ZN2FX7FXRuler13onCmdSetValueEPNS_8FXObjectEjPv
libFOX-1.6.so.0:_ZN2FX7FXRuler13setMajorTicksEih
libFOX-1.6.so.0:_ZN2FX7FXRuler13setRulerStyleEj
libFOX-1.6.so.0:_ZN2FX7FXRuler14drawDownMarkerERNS_10FXDCWindowEii
libFOX-1.6.so.0:_ZN2FX7FXRuler14drawLeftMarkerERNS_10FXDCWindowEii
libFOX-1.6.so.0:_ZN2FX7FXRuler14drawRightArrowERNS_10FXDCWindowEii
libFOX-1.6.so.0:_ZN2FX7FXRuler14onLeftBtnPressEPNS_8FXObjectEjPv
libFOX-1.6.so.0:_ZN2FX7FXRuler14setContentSizeEih
libFOX-1.6.so.0:_ZN2FX7FXRuler14setEdgeSpacingEih
libFOX-1.6.so.0:_ZN2FX7FXRuler14setIndentFirstEih
libFOX-1.6.so.0:_ZN2FX7FXRuler14setIndentLowerEih
libFOX-1.6.so.0:_ZN2FX7FXRuler14setIndentUpperEih
libFOX-1.6.so.0:_ZN2FX7FXRuler14setMarginLowerEih
libFOX-1.6.so.0:_ZN2FX7FXRuler14setMarginUpperEih
libFOX-1.6.so.0:_ZN2FX7FXRuler14setMediumTicksEih
libFOX-1.6.so.0:_ZN2FX7FXRuler14setNumberTicksEih
libFOX-1.6.so.0:_ZN2FX7FXRuler15drawRightMarkerERNS_10FXDCWindowEii
libFOX-1.6.so.0:_ZN2FX7FXRuler15getDefaultWidthEv
libFOX-1.6.so.0:_ZN2FX7FXRuler15setDocumentSizeEih
libFOX-1.6.so.0:_ZN2FX7FXRuler15setPixelPerTickEdh
libFOX-1.6.so.0:_ZN2FX7FXRuler16getDefaultHeightEv
libFOX-1.6.so.0:_ZN2FX7FXRuler16onCmdGetIntValueEPNS_8FXObjectEjPv
libFOX-1.6.so.0:_ZN2FX7FXRuler16onCmdSetIntValueEPNS_8FXObjectEjPv
libFOX-1.6.so.0:_ZN2FX7FXRuler16onLeftBtnReleaseEPNS_8FXObjectEjPv
libFOX-1.6.so.0:_ZN2FX7FXRuler17setRulerAlignmentEjh
libFOX-1.6.so.0:_ZN2FX7FXRuler4loadERNS_8FXStreamE
libFOX-1.6.so.0:_ZN2FX7FXRuler6createEv
libFOX-1.6.so.0:_ZN2FX7FXRuler6detachEv
libFOX-1.6.so.0:_ZN2FX7FXRuler6handleEPNS_8FXObjectEjPv
libFOX-1.6.so.0:_ZN2FX7FXRuler6layoutEv
libFOX-1.6.so.0:_ZN2FX7FXRuler6pickedEii
libFOX-1.6.so.0:_ZN2FX7FXRuler7onPaintEPNS_8FXObjectEjPv
libFOX-1.6.so.0:_ZN2FX7FXRuler7setFontEPNS_6FXFontEh
libFOX-1.6.so.0:_ZN2FX7FXRuler8onMotionEPNS_8FXObjectEjPv
libFOX-1.6.so.0:_ZN2FX7FXRuler8setValueEi
libFOX-1.6.so.0:_ZN2FX7FXRulerC1EPNS_11FXCompositeEPNS_8FXObjectEjjiiiiiiii
libFOX-1.6.so.0:_ZN2FX7FXRulerC1Ev
libFOX-1.6.so.0:_ZN2FX7FXRulerC2EPNS_11FXCompositeEPNS_8FXObjectEjjiiiiiiii
libFOX-1.6.so.0:_ZN2FX7FXRulerC2Ev
libFOX-1.6.so.0:_ZN2FX7FXRulerD0Ev
libFOX-1.6.so.0:_ZN2FX7FXRulerD1Ev
libFOX-1.6.so.0:_ZN2FX7FXRulerD2Ev
libFOX-1.6.so.0:_ZN2FX7FXShell10onKeyPressEPNS_8FXObjectEjPv
libFOX-1.6.so.0:_ZN2FX7FXShell11manufactureEv
libFOX-1.6.so.0:_ZN2FX7FXShell11onConfigureEPNS_8FXObjectEjPv
libFOX-1.6.so.0:_ZN2FX7FXShell11onFocusNextEPNS_8FXObjectEjPv
libFOX-1.6.so.0:_ZN2FX7FXShell11onFocusPrevEPNS_8FXObjectEjPv
libFOX-1.6.so.0:_ZN2FX7FXShell12onKeyReleaseEPNS_8FXObjectEjPv
libFOX-1.6.so.0:_ZN2FX7FXShell6createEv
libFOX-1.6.so.0:_ZN2FX7FXShell6handleEPNS_8FXObjectEjPv
libFOX-1.6.so.0:_ZN2FX7FXShell6recalcEv
libFOX-1.6.so.0:_ZN2FX7FXShell8onLayoutEPNS_8FXObjectEjPv
libFOX-1.6.so.0:_ZN2FX7FXShell8setFocusEv
libFOX-1.6.so.0:_ZN2FX7FXShell9killFocusEv
libFOX-1.6.so.0:_ZN2FX7FXShellC1EPNS_5FXAppEjiiii
libFOX-1.6.so.0:_ZN2FX7FXShellC1EPNS_8FXWindowEjiiii
libFOX-1.6.so.0:_ZN2FX7FXShellC2EPNS_5FXAppEjiiii
libFOX-1.6.so.0:_ZN2FX7FXShellC2EPNS_8FXWindowEjiiii
libFOX-1.6.so.0:_ZN2FX7FXShellD0Ev
libFOX-1.6.so.0:_ZN2FX7FXShellD1Ev
libFOX-1.6.so.0:_ZN2FX7FXShellD2Ev
libFOX-1.6.so.0:_ZN2FX7FXTable10clearItemsEh
libFOX-1.6.so.0:_ZN2FX7FXTable10createItemERKNS_8FXStringEPNS_6FXIconEPv
libFOX-1.6.so.0:_ZN2FX7FXTable10enableItemEii
libFOX-1.6.so.0:_ZN2FX7FXTable10insertRowsEiih
libFOX-1.6.so.0:_ZN2FX7FXTable10onFocusOutEPNS_8FXObjectEjPv
libFOX-1.6.so.0:_ZN2FX7FXTable10onKeyPressEPNS_8FXObjectEjPv
libFOX-1.6.so.0:_ZN2FX7FXTable10removeItemEiih
libFOX-1.6.so.0:_ZN2FX7FXTable10removeRowsEiih
libFOX-1.6.so.0:_ZN2FX7FXTable10setRowIconEiPNS_6FXIconE
libFOX-1.6.so.0:_ZN2FX7FXTable10setRowTextEiRKNS_8FXStringE
libFOX-1.6.so.0:_ZN2FX7FXTable10startInputEii
libFOX-1.6.so.0:_ZN2FX7FXTable11acceptInputEh
libFOX-1.6.so.0:_ZN2FX7FXTable11cancelInputEv
libFOX-1.6.so.0:_ZN2FX7FXTable11changeFocusEPNS_8FXWindowE
libFOX-1.6.so.0:_ZN2FX7FXTable11disableItemEii
libFOX-1.6.so.0:_ZN2FX7FXTable11extractItemEiih
libFOX-1.6.so.0:_ZN2FX7FXTable11manufactureEv
libFOX-1.6.so.0:_ZN2FX7FXTable11onCmdCutSelEPNS_8FXObjectEjPv
libFOX-1.6.so.0:_ZN2FX7FXTable11onCmdExtendEPNS_8FXObjectEjPv
libFOX-1.6.so.0:_ZN2FX7FXTable11onCmdMoveUpEPNS_8FXObjectEjPv
libFOX-1.6.so.0:_ZN2FX7FXTable11onUngrabbedEPNS_8FXObjectEjPv
libFOX-1.6.so.0:_ZN2FX7FXTable11overlayTextEiiiiPKciS2_S2_h
libFOX-1.6.so.0:_ZN2FX7FXTable11overlayTextEiiiiRKNS_8FXStringEPKcS5_h
libFOX-1.6.so.0:_ZN2FX7FXTable11removeRangeEiiiih
libFOX-1.6.so.0:_ZN2FX7FXTable11selectRangeEiiiih
libFOX-1.6.so.0:_ZN2FX7FXTable11setEditableEh
libFOX-1.6.so.0:_ZN2FX7FXTable11setItemDataEiiPv
libFOX-1.6.so.0:_ZN2FX7FXTable11setItemIconEiiPNS_6FXIconEhh
libFOX-1.6.so.0:_ZN2FX7FXTable11setItemTextEiiRKNS_8FXStringEh
libFOX-1.6.so.0:_ZN2FX7FXTable12drawContentsERNS_4FXDCEiiii
libFOX-1.6.so.0:_ZN2FX7FXTable12moveContentsEii
libFOX-1.6.so.0:_ZN2FX7FXTable12onAutoScrollEPNS_8FXObjectEjPv
libFOX-1.6.so.0:_ZN2FX7FXTable12onCmdCopySelEPNS_8FXObjectEjPv
libFOX-1.6.so.0:_ZN2FX7FXTable12onCmdMoveEndEPNS_8FXObjectEjPv
libFOX-1.6.so.0:_ZN2FX7FXTable12onCmdMoveTopEPNS_8FXObjectEjPv
libFOX-1.6.so.0:_ZN2FX7FXTable12onKeyReleaseEPNS_8FXObjectEjPv
libFOX-1.6.so.0:_ZN2FX7FXTable12selectColumnEih
libFOX-1.6.so.0:_ZN2FX7FXTable12setBaseColorEj
libFOX-1.6.so.0:_ZN2FX7FXTable12setCellColorEiij
libFOX-1.6.so.0:_ZN2FX7FXTable12setGridColorEj
libFOX-1.6.so.0:_ZN2FX7FXTable12setMarginTopEi
libFOX-1.6.so.0:_ZN2FX7FXTable12setRowHeightEii
libFOX-1.6.so.0:_ZN2FX7FXTable12setTableSizeEiih
libFOX-1.6.so.0:_ZN2FX7FXTable12setTextColorEj
libFOX-1.6.so.0:_ZN2FX7FXTable12showHorzGridEh
libFOX-1.6.so.0:_ZN2FX7FXTable12showVertGridEh
libFOX-1.6.so.0:_ZN2FX7FXTable13insertColumnsEiih
libFOX-1.6.so.0:_ZN2FX7FXTable13killSelectionEh
libFOX-1.6.so.0:_ZN2FX7FXTable13onCmdHorzGridEPNS_8FXObjectEjPv
libFOX-1.6.so.0:_ZN2FX7FXTable13onCmdMoveDownEPNS_8FXObjectEjPv
libFOX-1.6.so.0:_ZN2FX7FXTable13onCmdMoveHomeEPNS_8FXObjectEjPv
libFOX-1.6.so.0:_ZN2FX7FXTable13onCmdMoveLeftEPNS_8FXObjectEjPv
libFOX-1.6.so.0:_ZN2FX7FXTable13onCmdPasteSelEPNS_8FXObjectEjPv
libFOX-1.6.so.0:_ZN2FX7FXTable13onCmdVertGridEPNS_8FXObjectEjPv
libFOX-1.6.so.0:_ZN2FX7FXTable13onUpdHorzGridEPNS_8FXObjectEjPv
libFOX-1.6.so.0:_ZN2FX7FXTable13onUpdVertGridEPNS_8FXObjectEjPv
libFOX-1.6.so.0:_ZN2FX7FXTable13removeColumnsEiih
libFOX-1.6.so.0:_ZN2FX7FXTable13setAnchorItemEii
libFOX-1.6.so.0:_ZN2FX7FXTable13setColumnIconEiPNS_6FXIconE
libFOX-1.6.so.0:_ZN2FX7FXTable13setColumnTextEiRKNS_8FXStringE
libFOX-1.6.so.0:_ZN2FX7FXTable13setMarginLeftEi
libFOX-1.6.so.0:_ZN2FX7FXTable13setRowJustifyEij
libFOX-1.6.so.0:_ZN2FX7FXTable13setTableStyleEj
libFOX-1.6.so.0:_ZN2FX7FXTable13spanningRangeERiS1_S1_S1_iiii
libFOX-1.6.so.0:_ZN2FX7FXTable14onCmdDeleteRowEPNS_8FXObjectEjPv
libFOX-1.6.so.0:_ZN2FX7FXTable14onCmdDeleteSelEPNS_8FXObjectEjPv
libFOX-1.6.so.0:_ZN2FX7FXTable14onCmdInsertRowEPNS_8FXObjectEjPv
libFOX-1.6.so.0:_ZN2FX7FXTable14onCmdMoveRightEPNS_8FXObjectEjPv
libFOX-1.6.so.0:_ZN2FX7FXTable14onCmdSelectAllEPNS_8FXObjectEjPv
libFOX-1.6.so.0:_ZN2FX7FXTable14onCmdSelectRowEPNS_8FXObjectEjPv
libFOX-1.6.so.0:_ZN2FX7FXTable14onLeftBtnPressEPNS_8FXObjectEjPv
libFOX-1.6.so.0:_ZN2FX7FXTable14onUpdDeleteRowEPNS_8FXObjectEjPv
libFOX-1.6.so.0:_ZN2FX7FXTable14onUpdInsertRowEPNS_8FXObjectEjPv
libFOX-1.6.so.0:_ZN2FX7FXTable14onUpdSelectAllEPNS_8FXObjectEjPv
libFOX-1.6.so.0:_ZN2FX7FXTable14onUpdSelectRowEPNS_8FXObjectEjPv
libFOX-1.6.so.0:_ZN2FX7FXTable14setBorderColorEj
libFOX-1.6.so.0:_ZN2FX7FXTable14setColumnWidthEii
libFOX-1.6.so.0:_ZN2FX7FXTable14setCurrentItemEiih
libFOX-1.6.so.0:_ZN2FX7FXTable14setHiliteColorEj
libFOX-1.6.so.0:_ZN2FX7FXTable14setItemBordersEiij
libFOX-1.6.so.0:_ZN2FX7FXTable14setItemJustifyEiij
libFOX-1.6.so.0:_ZN2FX7FXTable14setItemStippleEiiNS_16FXStipplePatternE
libFOX-1.6.so.0:_ZN2FX7FXTable14setMarginRightEi
libFOX-1.6.so.0:_ZN2FX7FXTable14setShadowColorEj
libFOX-1.6.so.0:_ZN2FX7FXTable14setVisibleRowsEi
libFOX-1.6.so.0:_ZN2FX7FXTable15extendSelectionEiih
libFOX-1.6.so.0:_ZN2FX7FXTable15getContentWidthEv
libFOX-1.6.so.0:_ZN2FX7FXTable15getDefaultWidthEv
libFOX-1.6.so.0:_ZN2FX7FXTable15onClipboardLostEPNS_8FXObjectEjPv
libFOX-1.6.so.0:_ZN2FX7FXTable15onCmdMoveBottomEPNS_8FXObjectEjPv
libFOX-1.6.so.0:_ZN2FX7FXTable15onCmdMovePageUpEPNS_8FXObjectEjPv
libFOX-1.6.so.0:_ZN2FX7FXTable15onCmdSelectCellEPNS_8FXObjectEjPv
libFOX-1.6.so.0:_ZN2FX7FXTable15onCmdStartInputEPNS_8FXObjectEjPv
libFOX-1.6.so.0:_ZN2FX7FXTable15onDoubleClickedEPNS_8FXObjectEjPv
libFOX-1.6.so.0:_ZN2FX7FXTable15onRightBtnPressEPNS_8FXObjectEjPv
libFOX-1.6.so.0:_ZN2FX7FXTable15onSelectionLostEPNS_8FXObjectEjPv
libFOX-1.6.so.0:_ZN2FX7FXTable15onTripleClickedEPNS_8FXObjectEjPv
libFOX-1.6.so.0:_ZN2FX7FXTable15onUpdSelectCellEPNS_8FXObjectEjPv
libFOX-1.6.so.0:_ZN2FX7FXTable15onUpdStartInputEPNS_8FXObjectEjPv
libFOX-1.6.so.0:_ZN2FX7FXTable15setDefRowHeightEi
libFOX-1.6.so.0:_ZN2FX7FXTable15setMarginBottomEi
libFOX-1.6.so.0:_ZN2FX7FXTable15setSelBackColorEj
libFOX-1.6.so.0:_ZN2FX7FXTable15setSelTextColorEj
libFOX-1.6.so.0:_ZN2FX7FXTable15setStippleColorEj
libFOX-1.6.so.0:_ZN2FX7FXTable16getContentHeightEv
libFOX-1.6.so.0:_ZN2FX7FXTable16getDefaultHeightEv
libFOX-1.6.so.0:_ZN2FX7FXTable16onCmdAcceptInputEPNS_8FXObjectEjPv
libFOX-1.6.so.0:_ZN2FX7FXTable16onCmdCancelInputEPNS_8FXObjectEjPv
libFOX-1.6.so.0:_ZN2FX7FXTable16onCmdDeselectAllEPNS_8FXObjectEjPv
libFOX-1.6.so.0:_ZN2FX7FXTable16onLeftBtnReleaseEPNS_8FXObjectEjPv
libFOX-1.6.so.0:_ZN2FX7FXTable16onUpdAcceptInputEPNS_8FXObjectEjPv
libFOX-1.6.so.0:_ZN2FX7FXTable16onUpdDeselectAllEPNS_8FXObjectEjPv
libFOX-1.6.so.0:_ZN2FX7FXTable16setColumnJustifyEij
libFOX-1.6.so.0:_ZN2FX7FXTable16setRowHeaderFontEPNS_6FXFontE
libFOX-1.6.so.0:_ZN2FX7FXTable16setRowHeaderModeEj
libFOX-1.6.so.0:_ZN2FX7FXTable16updateRowNumbersEii
libFOX-1.6.so.0:_ZN2FX7FXTable17fitRowsToContentsEii
libFOX-1.6.so.0:_ZN2FX7FXTable17getControlForItemEii
libFOX-1.6.so.0:_ZN2FX7FXTable17onClipboardGainedEPNS_8FXObjectEjPv
libFOX-1.6.so.0:_ZN2FX7FXTable17onCmdDeleteColumnEPNS_8FXObjectEjPv
libFOX-1.6.so.0:_ZN2FX7FXTable17onCmdInsertColumnEPNS_8FXObjectEjPv
libFOX-1.6.so.0:_ZN2FX7FXTable17onCmdMovePageDownEPNS_8FXObjectEjPv
libFOX-1.6.so.0:_ZN2FX7FXTable17onCmdSelectColumnEPNS_8FXObjectEjPv
libFOX-1.6.so.0:_ZN2FX7FXTable17onRightBtnReleaseEPNS_8FXObjectEjPv
libFOX-1.6.so.0:_ZN2FX7FXTable17onSelectionGainedEPNS_8FXObjectEjPv
libFOX-1.6.so.0:_ZN2FX7FXTable17onUpdDeleteColumnEPNS_8FXObjectEjPv
libFOX-1.6.so.0:_ZN2FX7FXTable17onUpdInsertColumnEPNS_8FXObjectEjPv
libFOX-1.6.so.0:_ZN2FX7FXTable17onUpdSelectColumnEPNS_8FXObjectEjPv
libFOX-1.6.so.0:_ZN2FX7FXTable17setDefColumnWidthEi
libFOX-1.6.so.0:_ZN2FX7FXTable17setRowHeaderWidthEi
libFOX-1.6.so.0:_ZN2FX7FXTable17setRowRenumberingEh
libFOX-1.6.so.0:_ZN2FX7FXTable17setVisibleColumnsEi
libFOX-1.6.so.0:_ZN2FX7FXTable18onClipboardRequestEPNS_8FXObjectEjPv
libFOX-1.6.so.0:_ZN2FX7FXTable18onSelectionRequestEPNS_8FXObjectEjPv
libFOX-1.6.so.0:_ZN2FX7FXTable18onUpdHaveSelectionEPNS_8FXObjectEjPv
libFOX-1.6.so.0:_ZN2FX7FXTable18setCellBorderColorEj
libFOX-1.6.so.0:_ZN2FX7FXTable18setCellBorderWidthEi
libFOX-1.6.so.0:_ZN2FX7FXTable18setItemFromControlEiiPNS_8FXWindowE
libFOX-1.6.so.0:_ZN2FX7FXTable18setRowIconPositionEij
libFOX-1.6.so.0:_ZN2FX7FXTable19makePositionVisibleEii
libFOX-1.6.so.0:_ZN2FX7FXTable19onCmdSelectRowIndexEPNS_8FXObjectEjPv
libFOX-1.6.so.0:_ZN2FX7FXTable19onCmdToggleEditableEPNS_8FXObjectEjPv
libFOX-1.6.so.0:_ZN2FX7FXTable19onUpdToggleEditableEPNS_8FXObjectEjPv
libFOX-1.6.so.0:_ZN2FX7FXTable19setColumnHeaderFontEPNS_6FXFontE
libFOX-1.6.so.0:_ZN2FX7FXTable19setColumnHeaderModeEj
libFOX-1.6.so.0:_ZN2FX7FXTable19setItemIconPositionEiij
libFOX-1.6.so.0:_ZN2FX7FXTable19updateColumnNumbersEii
libFOX-1.6.so.0:_ZN2FX7FXTable20fitColumnsToContentsEii
libFOX-1.6.so.0:_ZN2FX7FXTable20setColumnRenumberingEh
libFOX-1.6.so.0:_ZN2FX7FXTable21setColumnHeaderHeightEi
libFOX-1.6.so.0:_ZN2FX7FXTable21setColumnIconPositionEij
libFOX-1.6.so.0:_ZN2FX7FXTable22onCmdSelectColumnIndexEPNS_8FXObjectEjPv
libFOX-1.6.so.0:_ZN2FX7FXTable4loadERNS_8FXStreamE
libFOX-1.6.so.0:_ZN2FX7FXTable6createEv
libFOX-1.6.so.0:_ZN2FX7FXTable6detachEv
libFOX-1.6.so.0:_ZN2FX7FXTable6handleEPNS_8FXObjectEjPv
libFOX-1.6.so.0:_ZN2FX7FXTable6layoutEv
libFOX-1.6.so.0:_ZN2FX7FXTable6recalcEv
libFOX-1.6.so.0:_ZN2FX7FXTable7onPaintEPNS_8FXObjectEjPv
libFOX-1.6.so.0:_ZN2FX7FXTable7setFontEPNS_6FXFontE
libFOX-1.6.so.0:_ZN2FX7FXTable7setItemEiiPNS_11FXTableItemEh
libFOX-1.6.so.0:_ZN2FX7FXTable8drawCellERNS_4FXDCEiiii
libFOX-1.6.so.0:_ZN2FX7FXTable8onMotionEPNS_8FXObjectEjPv
libFOX-1.6.so.0:_ZN2FX7FXTable8setFocusEv
libFOX-1.6.so.0:_ZN2FX7FXTable9drawHGridERNS_4FXDCEiiii
libFOX-1.6.so.0:_ZN2FX7FXTable9drawRangeERNS_4FXDCEiiii
libFOX-1.6.so.0:_ZN2FX7FXTable9drawVGridERNS_4FXDCEiiii
libFOX-1.6.so.0:_ZN2FX7FXTable9killFocusEv
libFOX-1.6.so.0:_ZN2FX7FXTable9onClickedEPNS_8FXObjectEjPv
libFOX-1.6.so.0:_ZN2FX7FXTable9onCmdMarkEPNS_8FXObjectEjPv
libFOX-1.6.so.0:_ZN2FX7FXTable9onCommandEPNS_8FXObjectEjPv
libFOX-1.6.so.0:_ZN2FX7FXTable9onFocusInEPNS_8FXObjectEjPv
libFOX-1.6.so.0:_ZN2FX7FXTable9selectRowEih
libFOX-1.6.so.0:_ZN2FX7FXTableC1EPNS_11FXCompositeEPNS_8FXObjectEjjiiiiiiii
libFOX-1.6.so.0:_ZN2FX7FXTableC1Ev
libFOX-1.6.so.0:_ZN2FX7FXTableC2EPNS_11FXCompositeEPNS_8FXObjectEjjiiiiiiii
libFOX-1.6.so.0:_ZN2FX7FXTableC2Ev
libFOX-1.6.so.0:_ZN2FX7FXTableD0Ev
libFOX-1.6.so.0:_ZN2FX7FXTableD1Ev
libFOX-1.6.so.0:_ZN2FX7FXTableD2Ev
libFOX-1.6.so.0:_ZN2FX7FXVec3dC1Ej
libFOX-1.6.so.0:_ZN2FX7FXVec3dC2Ej
libFOX-1.6.so.0:_ZN2FX7FXVec3daSEj
libFOX-1.6.so.0:_ZN2FX7FXVec3fC1Ej
libFOX-1.6.so.0:_ZN2FX7FXVec3fC2Ej
libFOX-1.6.so.0:_ZN2FX7FXVec3faSEj
libFOX-1.6.so.0:_ZN2FX7FXVec4dC1Ej
libFOX-1.6.so.0:_ZN2FX7FXVec4dC2Ej
libFOX-1.6.so.0:_ZN2FX7FXVec4daSEj
libFOX-1.6.so.0:_ZN2FX7FXVec4fC1Ej
libFOX-1.6.so.0:_ZN2FX7FXVec4fC2Ej
libFOX-1.6.so.0:_ZN2FX7FXVec4faSEj
libFOX-1.6.so.0:_ZN2FX7Unicode10digitValueEw
libFOX-1.6.so.0:_ZN2FX7Unicode10isHexDigitEw
libFOX-1.6.so.0:_ZN2FX7Unicode10scriptTypeEw
libFOX-1.6.so.0:_ZN2FX7Unicode11charComposeEww
libFOX-1.6.so.0:_ZN2FX7Unicode11isSymmetricEw
libFOX-1.6.so.0:_ZN2FX7Unicode11joiningTypeEw
libFOX-1.6.so.0:_ZN2FX7Unicode11mirrorImageEw
libFOX-1.6.so.0:_ZN2FX7Unicode12charCategoryEw
libFOX-1.6.so.0:_ZN2FX7Unicode13charCombiningEw
libFOX-1.6.so.0:_ZN2FX7Unicode13charDecomposeEw
libFOX-1.6.so.0:_ZN2FX7Unicode13charDirectionEw
libFOX-1.6.so.0:_ZN2FX7Unicode13decomposeTypeEw
libFOX-1.6.so.0:_ZN2FX7Unicode13lineBreakTypeEw
libFOX-1.6.so.0:_ZN2FX7Unicode14isAlphaNumericEw
libFOX-1.6.so.0:_ZN2FX7Unicode16charNumDecomposeEw
libFOX-1.6.so.0:_ZN2FX7Unicode5isSepEw
libFOX-1.6.so.0:_ZN2FX7Unicode6isMarkEw
libFOX-1.6.so.0:_ZN2FX7Unicode7hasCaseEw
libFOX-1.6.so.0:_ZN2FX7Unicode7isAsciiEw
libFOX-1.6.so.0:_ZN2FX7Unicode7isBlankEw
libFOX-1.6.so.0:_ZN2FX7Unicode7isDigitEw
libFOX-1.6.so.0:_ZN2FX7Unicode7isGraphEw
libFOX-1.6.so.0:_ZN2FX7Unicode7isLowerEw
libFOX-1.6.so.0:_ZN2FX7Unicode7isPrintEw
libFOX-1.6.so.0:_ZN2FX7Unicode7isPunctEw
libFOX-1.6.so.0:_ZN2FX7Unicode7isSpaceEw
libFOX-1.6.so.0:_ZN2FX7Unicode7isTitleEw
libFOX-1.6.so.0:_ZN2FX7Unicode7isUpperEw
libFOX-1.6.so.0:_ZN2FX7Unicode7toLowerEw
libFOX-1.6.so.0:_ZN2FX7Unicode7toTitleEw
libFOX-1.6.so.0:_ZN2FX7Unicode7toUpperEw
libFOX-1.6.so.0:_ZN2FX7Unicode8isLetterEw
libFOX-1.6.so.0:_ZN2FX7Unicode8isSymbolEw
libFOX-1.6.so.0:_ZN2FX7Unicode9isControlEw
libFOX-1.6.so.0:_ZN2FX7compareEPKcRKNS_8FXStringE
libFOX-1.6.so.0:_ZN2FX7compareEPKcRKNS_8FXStringEi
libFOX-1.6.so.0:_ZN2FX7compareEPKcS1_
libFOX-1.6.so.0:_ZN2FX7compareEPKcS1_i
libFOX-1.6.so.0:_ZN2FX7compareERKNS_8FXStringEPKc
libFOX-1.6.so.0:_ZN2FX7compareERKNS_8FXStringEPKci
libFOX-1.6.so.0:_ZN2FX7compareERKNS_8FXStringES2_
libFOX-1.6.so.0:_ZN2FX7compareERKNS_8FXStringES2_i
libFOX-1.6.so.0:_ZN2FX7composeERKNS_8FXStringEj
libFOX-1.6.so.0:_ZN2FX7fxerrorEPKcz
libFOX-1.6.so.0:_ZN2FX7fxsleepEj
libFOX-1.6.so.0:_ZN2FX7fxtoDOSERPcRi
libFOX-1.6.so.0:_ZN2FX7fxtraceEjPKcz
libFOX-1.6.so.0:_ZN2FX7nc2utfsEPcPKt
libFOX-1.6.so.0:_ZN2FX7nc2utfsEPcPKti
libFOX-1.6.so.0:_ZN2FX7overlapERKNS_8FXRangedERKNS_9FXSpheredE
libFOX-1.6.so.0:_ZN2FX7overlapERKNS_8FXRangedES2_
libFOX-1.6.so.0:_ZN2FX7overlapERKNS_8FXRangefERKNS_9FXSpherefE
libFOX-1.6.so.0:_ZN2FX7overlapERKNS_8FXRangefES2_
libFOX-1.6.so.0:_ZN2FX7overlapERKNS_9FXExtentdES2_
libFOX-1.6.so.0:_ZN2FX7overlapERKNS_9FXExtentfES2_
libFOX-1.6.so.0:_ZN2FX7overlapERKNS_9FXSpheredERKNS_8FXRangedE
libFOX-1.6.so.0:_ZN2FX7overlapERKNS_9FXSpheredES2_
libFOX-1.6.so.0:_ZN2FX7overlapERKNS_9FXSpherefERKNS_8FXRangefE
libFOX-1.6.so.0:_ZN2FX7overlapERKNS_9FXSpherefES2_
libFOX-1.6.so.0:_ZN2FX7toAsciiERKNS_8FXStringE
libFOX-1.6.so.0:_ZN2FX7utf2ncsEPtPKc
libFOX-1.6.so.0:_ZN2FX7utf2ncsEPtPKci
libFOX-1.6.so.0:_ZN2FX7utf2wcsEPwPKc
libFOX-1.6.so.0:_ZN2FX7utf2wcsEPwPKci
libFOX-1.6.so.0:_ZN2FX7utfslenEPKt
libFOX-1.6.so.0:_ZN2FX7utfslenEPKti
libFOX-1.6.so.0:_ZN2FX7utfslenEPKw
libFOX-1.6.so.0:_ZN2FX7utfslenEPKwi
libFOX-1.6.so.0:_ZN2FX7wc2utfsEPcPKw
libFOX-1.6.so.0:_ZN2FX7wc2utfsEPcPKwi
libFOX-1.6.so.0:_ZN2FX8FXBitmap10loadPixelsERNS_8FXStreamE
libFOX-1.6.so.0:_ZN2FX8FXBitmap10setOptionsEj
libFOX-1.6.so.0:_ZN2FX8FXBitmap11manufactureEv
libFOX-1.6.so.0:_ZN2FX8FXBitmap4cropEiiiih
libFOX-1.6.so.0:_ZN2FX8FXBitmap4fillEh
libFOX-1.6.so.0:_ZN2FX8FXBitmap4loadERNS_8FXStreamE
libFOX-1.6.so.0:_ZN2FX8FXBitmap5scaleEii
libFOX-1.6.so.0:_ZN2FX8FXBitmap6createEv
libFOX-1.6.so.0:_ZN2FX8FXBitmap6detachEv
libFOX-1.6.so.0:_ZN2FX8FXBitmap6handleEPNS_8FXObjectEjPv
libFOX-1.6.so.0:_ZN2FX8FXBitmap6mirrorEhh
libFOX-1.6.so.0:_ZN2FX8FXBitmap6renderEv
libFOX-1.6.so.0:_ZN2FX8FXBitmap6resizeEii
libFOX-1.6.so.0:_ZN2FX8FXBitmap6rotateEi
libFOX-1.6.so.0:_ZN2FX8FXBitmap7destroyEv
libFOX-1.6.so.0:_ZN2FX8FXBitmap7releaseEv
libFOX-1.6.so.0:_ZN2FX8FXBitmap7restoreEv
libFOX-1.6.so.0:_ZN2FX8FXBitmap7setDataEPhj
libFOX-1.6.so.0:_ZN2FX8FXBitmap7setDataEPhjii
libFOX-1.6.so.0:_ZN2FX8FXBitmapC1EPNS_5FXAppEPKvjii
libFOX-1.6.so.0:_ZN2FX8FXBitmapC1Ev
libFOX-1.6.so.0:_ZN2FX8FXBitmapC2EPNS_5FXAppEPKvjii
libFOX-1.6.so.0:_ZN2FX8FXBitmapC2Ev
libFOX-1.6.so.0:_ZN2FX8FXBitmapD0Ev
libFOX-1.6.so.0:_ZN2FX8FXBitmapD1Ev
libFOX-1.6.so.0:_ZN2FX8FXBitmapD2Ev
libFOX-1.6.so.0:_ZN2FX8FXButton10onFocusOutEPNS_8FXObjectEjPv
libFOX-1.6.so.0:_ZN2FX8FXButton10onKeyPressEPNS_8FXObjectEjPv
libFOX-1.6.so.0:_ZN2FX8FXButton10setDefaultEh
libFOX-1.6.so.0:_ZN2FX8FXButton11manufactureEv
libFOX-1.6.so.0:_ZN2FX8FXButton11onUngrabbedEPNS_8FXObjectEjPv
libFOX-1.6.so.0:_ZN2FX8FXButton12onKeyReleaseEPNS_8FXObjectEjPv
libFOX-1.6.so.0:_ZN2FX8FXButton13onCmdSetValueEPNS_8FXObjectEjPv
libFOX-1.6.so.0:_ZN2FX8FXButton13onHotKeyPressEPNS_8FXObjectEjPv
libFOX-1.6.so.0:_ZN2FX8FXButton14onLeftBtnPressEPNS_8FXObjectEjPv
libFOX-1.6.so.0:_ZN2FX8FXButton14setButtonStyleEj
libFOX-1.6.so.0:_ZN2FX8FXButton15onHotKeyReleaseEPNS_8FXObjectEjPv
libFOX-1.6.so.0:_ZN2FX8FXButton16onCmdGetIntValueEPNS_8FXObjectEjPv
libFOX-1.6.so.0:_ZN2FX8FXButton16onCmdSetIntValueEPNS_8FXObjectEjPv
libFOX-1.6.so.0:_ZN2FX8FXButton16onLeftBtnReleaseEPNS_8FXObjectEjPv
libFOX-1.6.so.0:_ZN2FX8FXButton6handleEPNS_8FXObjectEjPv
libFOX-1.6.so.0:_ZN2FX8FXButton7onCheckEPNS_8FXObjectEjPv
libFOX-1.6.so.0:_ZN2FX8FXButton7onEnterEPNS_8FXObjectEjPv
libFOX-1.6.so.0:_ZN2FX8FXButton7onLeaveEPNS_8FXObjectEjPv
libFOX-1.6.so.0:_ZN2FX8FXButton7onPaintEPNS_8FXObjectEjPv
libFOX-1.6.so.0:_ZN2FX8FXButton8onUpdateEPNS_8FXObjectEjPv
libFOX-1.6.so.0:_ZN2FX8FXButton8setFocusEv
libFOX-1.6.so.0:_ZN2FX8FXButton8setStateEj
libFOX-1.6.so.0:_ZN2FX8FXButton9killFocusEv
libFOX-1.6.so.0:_ZN2FX8FXButton9onFocusInEPNS_8FXObjectEjPv
libFOX-1.6.so.0:_ZN2FX8FXButton9onUncheckEPNS_8FXObjectEjPv
libFOX-1.6.so.0:_ZN2FX8FXButtonC1EPNS_11FXCompositeERKNS_8FXStringEPNS_6FXIconEPNS_8FXObjectEjjiiiiiiii
libFOX-1.6.so.0:_ZN2FX8FXButtonC1Ev
libFOX-1.6.so.0:_ZN2FX8FXButtonC2EPNS_11FXCompositeERKNS_8FXStringEPNS_6FXIconEPNS_8FXObjectEjjiiiiiiii
libFOX-1.6.so.0:_ZN2FX8FXButtonC2Ev
libFOX-1.6.so.0:_ZN2FX8FXCanvas11manufactureEv
libFOX-1.6.so.0:_ZN2FX8FXCanvas6handleEPNS_8FXObjectEjPv
libFOX-1.6.so.0:_ZN2FX8FXCanvas7onPaintEPNS_8FXObjectEjPv
libFOX-1.6.so.0:_ZN2FX8FXCanvasC1EPNS_11FXCompositeEPNS_8FXObjectEjjiiii
libFOX-1.6.so.0:_ZN2FX8FXCanvasC1Ev
libFOX-1.6.so.0:_ZN2FX8FXCanvasC2EPNS_11FXCompositeEPNS_8FXObjectEjjiiii
libFOX-1.6.so.0:_ZN2FX8FXCanvasC2Ev
libFOX-1.6.so.0:_ZN2FX8FXCursor10loadPixelsERNS_8FXStreamE
libFOX-1.6.so.0:_ZN2FX8FXCursor11manufactureEv
libFOX-1.6.so.0:_ZN2FX8FXCursor4loadERNS_8FXStreamE
libFOX-1.6.so.0:_ZN2FX8FXCursor6createEv
libFOX-1.6.so.0:_ZN2FX8FXCursor6detachEv
libFOX-1.6.so.0:_ZN2FX8FXCursor6handleEPNS_8FXObjectEjPv
libFOX-1.6.so.0:_ZN2FX8FXCursor7destroyEv
libFOX-1.6.so.0:_ZN2FX8FXCursor7releaseEv
libFOX-1.6.so.0:_ZN2FX8FXCursorC1EPNS_5FXAppENS_13FXStockCursorE
libFOX-1.6.so.0:_ZN2FX8FXCursorC1EPNS_5FXAppEPKhS4_iiii
libFOX-1.6.so.0:_ZN2FX8FXCursorC1EPNS_5FXAppEPKjiiii
libFOX-1.6.so.0:_ZN2FX8FXCursorC1Ev
libFOX-1.6.so.0:_ZN2FX8FXCursorC2EPNS_5FXAppENS_13FXStockCursorE
libFOX-1.6.so.0:_ZN2FX8FXCursorC2EPNS_5FXAppEPKhS4_iiii
libFOX-1.6.so.0:_ZN2FX8FXCursorC2EPNS_5FXAppEPKjiiii
libFOX-1.6.so.0:_ZN2FX8FXCursorC2Ev
libFOX-1.6.so.0:_ZN2FX8FXCursorD0Ev
libFOX-1.6.so.0:_ZN2FX8FXCursorD1Ev
libFOX-1.6.so.0:_ZN2FX8FXCursorD2Ev
libFOX-1.6.so.0:_ZN2FX8FXDirBox11manufactureEv
libFOX-1.6.so.0:_ZN2FX8FXDirBox12setDirectoryERKNS_8FXStringE
libFOX-1.6.so.0:_ZN2FX8FXDirBox13onCmdSetValueEPNS_8FXObjectEjPv
libFOX-1.6.so.0:_ZN2FX8FXDirBox13onTreeChangedEPNS_8FXObjectEjPv
libFOX-1.6.so.0:_ZN2FX8FXDirBox13onTreeClickedEPNS_8FXObjectEjPv
libFOX-1.6.so.0:_ZN2FX8FXDirBox15getPathnameItemERKNS_8FXStringE
libFOX-1.6.so.0:_ZN2FX8FXDirBox15setAssociationsEPNS_10FXFileDictE
libFOX-1.6.so.0:_ZN2FX8FXDirBox19onCmdGetStringValueEPNS_8FXObjectEjPv
libFOX-1.6.so.0:_ZN2FX8FXDirBox19onCmdSetStringValueEPNS_8FXObjectEjPv
libFOX-1.6.so.0:_ZN2FX8FXDirBox4loadERNS_8FXStreamE
libFOX-1.6.so.0:_ZN2FX8FXDirBox6createEv
libFOX-1.6.so.0:_ZN2FX8FXDirBox6detachEv
libFOX-1.6.so.0:_ZN2FX8FXDirBox6handleEPNS_8FXObjectEjPv
libFOX-1.6.so.0:_ZN2FX8FXDirBox7destroyEv
libFOX-1.6.so.0:_ZN2FX8FXDirBoxC1EPNS_11FXCompositeEPNS_8FXObjectEjjiiiiiiii
libFOX-1.6.so.0:_ZN2FX8FXDirBoxC2EPNS_11FXCompositeEPNS_8FXObjectEjjiiiiiiii
libFOX-1.6.so.0:_ZN2FX8FXDirBoxD0Ev
libFOX-1.6.so.0:_ZN2FX8FXDirBoxD1Ev
libFOX-1.6.so.0:_ZN2FX8FXDirBoxD2Ev
libFOX-1.6.so.0:_ZN2FX8FXGLCone11manufactureEv
libFOX-1.6.so.0:_ZN2FX8FXGLCone4copyEv
libFOX-1.6.so.0:_ZN2FX8FXGLCone4loadERNS_8FXStreamE
libFOX-1.6.so.0:_ZN2FX8FXGLCone6handleEPNS_8FXObjectEjPv
libFOX-1.6.so.0:_ZN2FX8FXGLCone9drawshapeEPNS_10FXGLViewerE
libFOX-1.6.so.0:_ZN2FX8FXGLConeC1ERKS0_
libFOX-1.6.so.0:_ZN2FX8FXGLConeC1Efffff
libFOX-1.6.so.0:_ZN2FX8FXGLConeC1EfffffRKNS_10FXMaterialE
libFOX-1.6.so.0:_ZN2FX8FXGLConeC1Ev
libFOX-1.6.so.0:_ZN2FX8FXGLConeC2ERKS0_
libFOX-1.6.so.0:_ZN2FX8FXGLConeC2Efffff
libFOX-1.6.so.0:_ZN2FX8FXGLConeC2EfffffRKNS_10FXMaterialE
libFOX-1.6.so.0:_ZN2FX8FXGLConeC2Ev
libFOX-1.6.so.0:_ZN2FX8FXGLConeD0Ev
libFOX-1.6.so.0:_ZN2FX8FXGLConeD1Ev
libFOX-1.6.so.0:_ZN2FX8FXGLConeD2Ev
libFOX-1.6.so.0:_ZN2FX8FXGLCube11manufactureEv
libFOX-1.6.so.0:_ZN2FX8FXGLCube4copyEv
libFOX-1.6.so.0:_ZN2FX8FXGLCube4loadERNS_8FXStreamE
libFOX-1.6.so.0:_ZN2FX8FXGLCube6handleEPNS_8FXObjectEjPv
libFOX-1.6.so.0:_ZN2FX8FXGLCube9drawshapeEPNS_10FXGLViewerE
libFOX-1.6.so.0:_ZN2FX8FXGLCubeC1ERKS0_
libFOX-1.6.so.0:_ZN2FX8FXGLCubeC1Effffff
libFOX-1.6.so.0:_ZN2FX8FXGLCubeC1EffffffRKNS_10FXMaterialE
libFOX-1.6.so.0:_ZN2FX8FXGLCubeC1Ev
libFOX-1.6.so.0:_ZN2FX8FXGLCubeC2ERKS0_
libFOX-1.6.so.0:_ZN2FX8FXGLCubeC2Effffff
libFOX-1.6.so.0:_ZN2FX8FXGLCubeC2EffffffRKNS_10FXMaterialE
libFOX-1.6.so.0:_ZN2FX8FXGLCubeC2Ev
libFOX-1.6.so.0:_ZN2FX8FXGLCubeD0Ev
libFOX-1.6.so.0:_ZN2FX8FXGLCubeD1Ev
libFOX-1.6.so.0:_ZN2FX8FXGLCubeD2Ev
libFOX-1.6.so.0:_ZN2FX8FXGLLine11manufactureEv
libFOX-1.6.so.0:_ZN2FX8FXGLLine3hitEPNS_10FXGLViewerE
libFOX-1.6.so.0:_ZN2FX8FXGLLine4copyEv
libFOX-1.6.so.0:_ZN2FX8FXGLLine4drawEPNS_10FXGLViewerE
libFOX-1.6.so.0:_ZN2FX8FXGLLine4loadERNS_8FXStreamE
libFOX-1.6.so.0:_ZN2FX8FXGLLine6boundsERNS_8FXRangefE
libFOX-1.6.so.0:_ZN2FX8FXGLLine6handleEPNS_8FXObjectEjPv
libFOX-1.6.so.0:_ZN2FX8FXGLLineC1ERKS0_
libFOX-1.6.so.0:_ZN2FX8FXGLLineC1Effffff
libFOX-1.6.so.0:_ZN2FX8FXGLLineC1Ev
libFOX-1.6.so.0:_ZN2FX8FXGLLineC2ERKS0_
libFOX-1.6.so.0:_ZN2FX8FXGLLineC2Effffff
libFOX-1.6.so.0:_ZN2FX8FXGLLineC2Ev
libFOX-1.6.so.0:_ZN2FX8FXHeader10appendItemEPNS_12FXHeaderItemEh
libFOX-1.6.so.0:_ZN2FX8FXHeader10appendItemERKNS_8FXStringEPNS_6FXIconEiPvh
libFOX-1.6.so.0:_ZN2FX8FXHeader10clearItemsEh
libFOX-1.6.so.0:_ZN2FX8FXHeader10createItemERKNS_8FXStringEPNS_6FXIconEiPv
libFOX-1.6.so.0:_ZN2FX8FXHeader10insertItemEiPNS_12FXHeaderItemEh
libFOX-1.6.so.0:_ZN2FX8FXHeader10insertItemEiRKNS_8FXStringEPNS_6FXIconEiPvh
libFOX-1.6.so.0:_ZN2FX8FXHeader10onQueryTipEPNS_8FXObjectEjPv
libFOX-1.6.so.0:_ZN2FX8FXHeader10onTipTimerEPNS_8FXObjectEjPv
libFOX-1.6.so.0:_ZN2FX8FXHeader10removeItemEih
libFOX-1.6.so.0:_ZN2FX8FXHeader11extractItemEih
libFOX-1.6.so.0:_ZN2FX8FXHeader11manufactureEv
libFOX-1.6.so.0:_ZN2FX8FXHeader11onQueryHelpEPNS_8FXObjectEjPv
libFOX-1.6.so.0:_ZN2FX8FXHeader11onUngrabbedEPNS_8FXObjectEjPv
libFOX-1.6.so.0:_ZN2FX8FXHeader11prependItemEPNS_12FXHeaderItemEh
libFOX-1.6.so.0:_ZN2FX8FXHeader11prependItemERKNS_8FXStringEPNS_6FXIconEiPvh
libFOX-1.6.so.0:_ZN2FX8FXHeader11setArrowDirEih
libFOX-1.6.so.0:_ZN2FX8FXHeader11setHelpTextERKNS_8FXStringE
libFOX-1.6.so.0:_ZN2FX8FXHeader11setItemDataEiPv
libFOX-1.6.so.0:_ZN2FX8FXHeader11setItemIconEiPNS_6FXIconE
libFOX-1.6.so.0:_ZN2FX8FXHeader11setItemSizeEii
libFOX-1.6.so.0:_ZN2FX8FXHeader11setItemTextEiRKNS_8FXStringE
libFOX-1.6.so.0:_ZN2FX8FXHeader11setPositionEi
libFOX-1.6.so.0:_ZN2FX8FXHeader12setTextColorEj
libFOX-1.6.so.0:_ZN2FX8FXHeader14onLeftBtnPressEPNS_8FXObjectEjPv
libFOX-1.6.so.0:_ZN2FX8FXHeader14setHeaderStyleEj
libFOX-1.6.so.0:_ZN2FX8FXHeader14setItemJustifyEij
libFOX-1.6.so.0:_ZN2FX8FXHeader14setItemPressedEih
libFOX-1.6.so.0:_ZN2FX8FXHeader15getDefaultWidthEv
libFOX-1.6.so.0:_ZN2FX8FXHeader15makeItemVisibleEi
libFOX-1.6.so.0:_ZN2FX8FXHeader16getDefaultHeightEv
libFOX-1.6.so.0:_ZN2FX8FXHeader16onLeftBtnReleaseEPNS_8FXObjectEjPv
libFOX-1.6.so.0:_ZN2FX8FXHeader19setItemIconPositionEij
libFOX-1.6.so.0:_ZN2FX8FXHeader4loadERNS_8FXStreamE
libFOX-1.6.so.0:_ZN2FX8FXHeader6createEv
libFOX-1.6.so.0:_ZN2FX8FXHeader6detachEv
libFOX-1.6.so.0:_ZN2FX8FXHeader6handleEPNS_8FXObjectEjPv
libFOX-1.6.so.0:_ZN2FX8FXHeader6layoutEv
libFOX-1.6.so.0:_ZN2FX8FXHeader7onPaintEPNS_8FXObjectEjPv
libFOX-1.6.so.0:_ZN2FX8FXHeader7setFontEPNS_6FXFontE
libFOX-1.6.so.0:_ZN2FX8FXHeader7setItemEiPNS_12FXHeaderItemEh
libFOX-1.6.so.0:_ZN2FX8FXHeader7setItemEiRKNS_8FXStringEPNS_6FXIconEiPvh
libFOX-1.6.so.0:_ZN2FX8FXHeader8onMotionEPNS_8FXObjectEjPv
libFOX-1.6.so.0:_ZN2FX8FXHeader9drawSplitEi
libFOX-1.6.so.0:_ZN2FX8FXHeader9fillItemsEPPKcPNS_6FXIconEiPvh
libFOX-1.6.so.0:_ZN2FX8FXHeader9fillItemsERKNS_8FXStringEPNS_6FXIconEiPvh
libFOX-1.6.so.0:_ZN2FX8FXHeaderC1EPNS_11FXCompositeEPNS_8FXObjectEjjiiiiiiii
libFOX-1.6.so.0:_ZN2FX8FXHeaderC1Ev
libFOX-1.6.so.0:_ZN2FX8FXHeaderC2EPNS_11FXCompositeEPNS_8FXObjectEjjiiiiiiii
libFOX-1.6.so.0:_ZN2FX8FXHeaderC2Ev
libFOX-1.6.so.0:_ZN2FX8FXHeaderD0Ev
libFOX-1.6.so.0:_ZN2FX8FXHeaderD1Ev
libFOX-1.6.so.0:_ZN2FX8FXHeaderD2Ev
libFOX-1.6.so.0:_ZN2FX8FXIntValERKNS_8FXStringEi
libFOX-1.6.so.0:_ZN2FX8FXMatrix10setNumRowsEi
libFOX-1.6.so.0:_ZN2FX8FXMatrix11manufactureEv
libFOX-1.6.so.0:_ZN2FX8FXMatrix11onFocusDownEPNS_8FXObjectEjPv
libFOX-1.6.so.0:_ZN2FX8FXMatrix11onFocusLeftEPNS_8FXObjectEjPv
libFOX-1.6.so.0:_ZN2FX8FXMatrix12onFocusRightEPNS_8FXObjectEjPv
libFOX-1.6.so.0:_ZN2FX8FXMatrix13setNumColumnsEi
libFOX-1.6.so.0:_ZN2FX8FXMatrix14setMatrixStyleEj
libFOX-1.6.so.0:_ZN2FX8FXMatrix15getDefaultWidthEv
libFOX-1.6.so.0:_ZN2FX8FXMatrix16getDefaultHeightEv
libFOX-1.6.so.0:_ZN2FX8FXMatrix6handleEPNS_8FXObjectEjPv
libFOX-1.6.so.0:_ZN2FX8FXMatrix6layoutEv
libFOX-1.6.so.0:_ZN2FX8FXMatrix9onFocusUpEPNS_8FXObjectEjPv
libFOX-1.6.so.0:_ZN2FX8FXMatrixC1EPNS_11FXCompositeEijiiiiiiiiii
libFOX-1.6.so.0:_ZN2FX8FXMatrixC2EPNS_11FXCompositeEijiiiiiiiiii
libFOX-1.6.so.0:_ZN2FX8FXMemMap4syncEv
libFOX-1.6.so.0:_ZN2FX8FXMemMap5unmapEv
libFOX-1.6.so.0:_ZN2FX8FXMemMap7mapFileERKNS_8FXStringElljj
libFOX-1.6.so.0:_ZN2FX8FXMemMapC1Ev
libFOX-1.6.so.0:_ZN2FX8FXMemMapC2Ev
libFOX-1.6.so.0:_ZN2FX8FXMemMapD1Ev
libFOX-1.6.so.0:_ZN2FX8FXMemMapD2Ev
libFOX-1.6.so.0:_ZN2FX8FXObject11manufactureEv
libFOX-1.6.so.0:_ZN2FX8FXObject4loadERNS_8FXStreamE
libFOX-1.6.so.0:_ZN2FX8FXObject6handleEPS0_jPv
libFOX-1.6.so.0:_ZN2FX8FXObject9onDefaultEPS0_jPv
libFOX-1.6.so.0:_ZN2FX8FXObject9tryHandleEPS0_jPv
libFOX-1.6.so.0:_ZN2FX8FXObjectD0Ev
libFOX-1.6.so.0:_ZN2FX8FXObjectD1Ev
libFOX-1.6.so.0:_ZN2FX8FXObjectD2Ev
libFOX-1.6.so.0:_ZN2FX8FXOption10onKeyPressEPNS_8FXObjectEjPv
libFOX-1.6.so.0:_ZN2FX8FXOption11manufactureEv
libFOX-1.6.so.0:_ZN2FX8FXOption12onKeyReleaseEPNS_8FXObjectEjPv
libFOX-1.6.so.0:_ZN2FX8FXOption13onHotKeyPressEPNS_8FXObjectEjPv
libFOX-1.6.so.0:_ZN2FX8FXOption14onLeftBtnPressEPNS_8FXObjectEjPv
libFOX-1.6.so.0:_ZN2FX8FXOption15getDefaultWidthEv
libFOX-1.6.so.0:_ZN2FX8FXOption15onHotKeyReleaseEPNS_8FXObjectEjPv
libFOX-1.6.so.0:_ZN2FX8FXOption15setSelBackColorEj
libFOX-1.6.so.0:_ZN2FX8FXOption15setSelTextColorEj
libFOX-1.6.so.0:_ZN2FX8FXOption16getDefaultHeightEv
libFOX-1.6.so.0:_ZN2FX8FXOption16onLeftBtnReleaseEPNS_8FXObjectEjPv
libFOX-1.6.so.0:_ZN2FX8FXOption6handleEPNS_8FXObjectEjPv
libFOX-1.6.so.0:_ZN2FX8FXOption7onEnterEPNS_8FXObjectEjPv
libFOX-1.6.so.0:_ZN2FX8FXOption7onLeaveEPNS_8FXObjectEjPv
libFOX-1.6.so.0:_ZN2FX8FXOption7onPaintEPNS_8FXObjectEjPv
libFOX-1.6.so.0:_ZN2FX8FXOption8setFocusEv
libFOX-1.6.so.0:_ZN2FX8FXOption9killFocusEv
libFOX-1.6.so.0:_ZN2FX8FXOptionC1EPNS_11FXCompositeERKNS_8FXStringEPNS_6FXIconEPNS_8FXObjectEjjiiiiiiii
libFOX-1.6.so.0:_ZN2FX8FXOptionC1Ev
libFOX-1.6.so.0:_ZN2FX8FXOptionC2EPNS_11FXCompositeERKNS_8FXStringEPNS_6FXIconEPNS_8FXObjectEjjiiiiiiii
libFOX-1.6.so.0:_ZN2FX8FXOptionC2Ev
libFOX-1.6.so.0:_ZN2FX8FXOptionD0Ev
libFOX-1.6.so.0:_ZN2FX8FXOptionD1Ev
libFOX-1.6.so.0:_ZN2FX8FXOptionD2Ev
libFOX-1.6.so.0:_ZN2FX8FXPacker10setPadLeftEi
libFOX-1.6.so.0:_ZN2FX8FXPacker11manufactureEv
libFOX-1.6.so.0:_ZN2FX8FXPacker11onFocusDownEPNS_8FXObjectEjPv
libFOX-1.6.so.0:_ZN2FX8FXPacker11onFocusLeftEPNS_8FXObjectEjPv
libFOX-1.6.so.0:_ZN2FX8FXPacker11setHSpacingEi
libFOX-1.6.so.0:_ZN2FX8FXPacker11setPadRightEi
libFOX-1.6.so.0:_ZN2FX8FXPacker11setVSpacingEi
libFOX-1.6.so.0:_ZN2FX8FXPacker12onFocusRightEPNS_8FXObjectEjPv
libFOX-1.6.so.0:_ZN2FX8FXPacker12setBaseColorEj
libFOX-1.6.so.0:_ZN2FX8FXPacker12setPadBottomEi
libFOX-1.6.so.0:_ZN2FX8FXPacker13setFrameStyleEj
libFOX-1.6.so.0:_ZN2FX8FXPacker14setBorderColorEj
libFOX-1.6.so.0:_ZN2FX8FXPacker14setHiliteColorEj
libFOX-1.6.so.0:_ZN2FX8FXPacker14setShadowColorEj
libFOX-1.6.so.0:_ZN2FX8FXPacker15getDefaultWidthEv
libFOX-1.6.so.0:_ZN2FX8FXPacker15setPackingHintsEj
libFOX-1.6.so.0:_ZN2FX8FXPacker16getDefaultHeightEv
libFOX-1.6.so.0:_ZN2FX8FXPacker18drawRidgeRectangleERNS_10FXDCWindowEiiii
libFOX-1.6.so.0:_ZN2FX8FXPacker19drawBorderRectangleERNS_10FXDCWindowEiiii
libFOX-1.6.so.0:_ZN2FX8FXPacker19drawGrooveRectangleERNS_10FXDCWindowEiiii
libFOX-1.6.so.0:_ZN2FX8FXPacker19drawRaisedRectangleERNS_10FXDCWindowEiiii
libFOX-1.6.so.0:_ZN2FX8FXPacker19drawSunkenRectangleERNS_10FXDCWindowEiiii
libFOX-1.6.so.0:_ZN2FX8FXPacker25drawDoubleRaisedRectangleERNS_10FXDCWindowEiiii
libFOX-1.6.so.0:_ZN2FX8FXPacker25drawDoubleSunkenRectangleERNS_10FXDCWindowEiiii
libFOX-1.6.so.0:_ZN2FX8FXPacker4loadERNS_8FXStreamE
libFOX-1.6.so.0:_ZN2FX8FXPacker6handleEPNS_8FXObjectEjPv
libFOX-1.6.so.0:_ZN2FX8FXPacker6layoutEv
libFOX-1.6.so.0:_ZN2FX8FXPacker7onPaintEPNS_8FXObjectEjPv
libFOX-1.6.so.0:_ZN2FX8FXPacker9drawFrameERNS_10FXDCWindowEiiii
libFOX-1.6.so.0:_ZN2FX8FXPacker9onFocusUpEPNS_8FXObjectEjPv
libFOX-1.6.so.0:_ZN2FX8FXPacker9setPadTopEi
libFOX-1.6.so.0:_ZN2FX8FXPackerC1EPNS_11FXCompositeEjiiiiiiiiii
libFOX-1.6.so.0:_ZN2FX8FXPackerC1Ev
libFOX-1.6.so.0:_ZN2FX8FXPackerC2EPNS_11FXCompositeEjiiiiiiiiii
libFOX-1.6.so.0:_ZN2FX8FXPackerC2Ev
libFOX-1.6.so.0:_ZN2FX8FXPicker11manufactureEv
libFOX-1.6.so.0:_ZN2FX8FXPicker14onLeftBtnPressEPNS_8FXObjectEjPv
libFOX-1.6.so.0:_ZN2FX8FXPicker16onLeftBtnReleaseEPNS_8FXObjectEjPv
libFOX-1.6.so.0:_ZN2FX8FXPicker6handleEPNS_8FXObjectEjPv
libFOX-1.6.so.0:_ZN2FX8FXPicker7onEnterEPNS_8FXObjectEjPv
libFOX-1.6.so.0:_ZN2FX8FXPicker7onLeaveEPNS_8FXObjectEjPv
libFOX-1.6.so.0:_ZN2FX8FXPicker8onMotionEPNS_8FXObjectEjPv
libFOX-1.6.so.0:_ZN2FX8FXPickerC1EPNS_11FXCompositeERKNS_8FXStringEPNS_6FXIconEPNS_8FXObjectEjjiiiiiiii
libFOX-1.6.so.0:_ZN2FX8FXPickerC2EPNS_11FXCompositeERKNS_8FXStringEPNS_6FXIconEPNS_8FXObjectEjjiiiiiiii
libFOX-1.6.so.0:_ZN2FX8FXRanged7includeERKNS_7FXVec3dE
libFOX-1.6.so.0:_ZN2FX8FXRanged7includeERKNS_9FXSpheredE
libFOX-1.6.so.0:_ZN2FX8FXRanged7includeERKS0_
libFOX-1.6.so.0:_ZN2FX8FXRanged7includeEddd
libFOX-1.6.so.0:_ZN2FX8FXRanged9intersectERKNS_7FXVec3dES3_
libFOX-1.6.so.0:_ZN2FX8FXRangedC1ERKNS_9FXSpheredE
libFOX-1.6.so.0:_ZN2FX8FXRangedC2ERKNS_9FXSpheredE
libFOX-1.6.so.0:_ZN2FX8FXRangef7includeERKNS_7FXVec3fE
libFOX-1.6.so.0:_ZN2FX8FXRangef7includeERKNS_9FXSpherefE
libFOX-1.6.so.0:_ZN2FX8FXRangef7includeERKS0_
libFOX-1.6.so.0:_ZN2FX8FXRangef7includeEfff
libFOX-1.6.so.0:_ZN2FX8FXRangef9intersectERKNS_7FXVec3fES3_
libFOX-1.6.so.0:_ZN2FX8FXRangefC1ERKNS_9FXSpherefE
libFOX-1.6.so.0:_ZN2FX8FXRangefC2ERKNS_9FXSpherefE
libFOX-1.6.so.0:_ZN2FX8FXRegion5resetEv
libFOX-1.6.so.0:_ZN2FX8FXRegion6offsetEii
libFOX-1.6.so.0:_ZN2FX8FXRegionC1EPKNS_7FXPointEjb
libFOX-1.6.so.0:_ZN2FX8FXRegionC1ERKNS_11FXRectangleE
libFOX-1.6.so.0:_ZN2FX8FXRegionC1ERKS0_
libFOX-1.6.so.0:_ZN2FX8FXRegionC1Eiiii
libFOX-1.6.so.0:_ZN2FX8FXRegionC1Ev
libFOX-1.6.so.0:_ZN2FX8FXRegionC2EPKNS_7FXPointEjb
libFOX-1.6.so.0:_ZN2FX8FXRegionC2ERKNS_11FXRectangleE
libFOX-1.6.so.0:_ZN2FX8FXRegionC2ERKS0_
libFOX-1.6.so.0:_ZN2FX8FXRegionC2Eiiii
libFOX-1.6.so.0:_ZN2FX8FXRegionC2Ev
libFOX-1.6.so.0:_ZN2FX8FXRegionD1Ev
libFOX-1.6.so.0:_ZN2FX8FXRegionD2Ev
libFOX-1.6.so.0:_ZN2FX8FXRegionaSERKS0_
libFOX-1.6.so.0:_ZN2FX8FXRegioneOERKS0_
libFOX-1.6.so.0:_ZN2FX8FXRegionmIERKS0_
libFOX-1.6.so.0:_ZN2FX8FXRegionmLERKS0_
libFOX-1.6.so.0:_ZN2FX8FXRegionpLERKS0_
libFOX-1.6.so.0:_ZN2FX8FXSlider10onKeyPressEPNS_8FXObjectEjPv
libFOX-1.6.so.0:_ZN2FX8FXSlider10onQueryTipEPNS_8FXObjectEjPv
libFOX-1.6.so.0:_ZN2FX8FXSlider11manufactureEv
libFOX-1.6.so.0:_ZN2FX8FXSlider11onAutoSlideEPNS_8FXObjectEjPv
libFOX-1.6.so.0:_ZN2FX8FXSlider11onCmdGetTipEPNS_8FXObjectEjPv
libFOX-1.6.so.0:_ZN2FX8FXSlider11onCmdSetTipEPNS_8FXObjectEjPv
libFOX-1.6.so.0:_ZN2FX8FXSlider11onQueryHelpEPNS_8FXObjectEjPv
libFOX-1.6.so.0:_ZN2FX8FXSlider11onUngrabbedEPNS_8FXObjectEjPv
libFOX-1.6.so.0:_ZN2FX8FXSlider11setHeadSizeEi
libFOX-1.6.so.0:_ZN2FX8FXSlider11setSlotSizeEi
libFOX-1.6.so.0:_ZN2FX8FXSlider12onCmdGetHelpEPNS_8FXObjectEjPv
libFOX-1.6.so.0:_ZN2FX8FXSlider12onCmdSetHelpEPNS_8FXObjectEjPv
libFOX-1.6.so.0:_ZN2FX8FXSlider12onKeyReleaseEPNS_8FXObjectEjPv
libFOX-1.6.so.0:_ZN2FX8FXSlider12onMouseWheelEPNS_8FXObjectEjPv
libFOX-1.6.so.0:_ZN2FX8FXSlider12setIncrementEi
libFOX-1.6.so.0:_ZN2FX8FXSlider12setSlotColorEj
libFOX-1.6.so.0:_ZN2FX8FXSlider12setTickDeltaEi
libFOX-1.6.so.0:_ZN2FX8FXSlider13drawHorzTicksERNS_10FXDCWindowEiiii
libFOX-1.6.so.0:_ZN2FX8FXSlider13drawVertTicksERNS_10FXDCWindowEiiii
libFOX-1.6.so.0:_ZN2FX8FXSlider13onCmdSetValueEPNS_8FXObjectEjPv
libFOX-1.6.so.0:_ZN2FX8FXSlider14drawSliderHeadERNS_10FXDCWindowEiiii
libFOX-1.6.so.0:_ZN2FX8FXSlider14onLeftBtnPressEPNS_8FXObjectEjPv
libFOX-1.6.so.0:_ZN2FX8FXSlider14setSliderStyleEj
libFOX-1.6.so.0:_ZN2FX8FXSlider15getDefaultWidthEv
libFOX-1.6.so.0:_ZN2FX8FXSlider16getDefaultHeightEv
libFOX-1.6.so.0:_ZN2FX8FXSlider16onCmdGetIntRangeEPNS_8FXObjectEjPv
libFOX-1.6.so.0:_ZN2FX8FXSlider16onCmdGetIntValueEPNS_8FXObjectEjPv
libFOX-1.6.so.0:_ZN2FX8FXSlider16onCmdSetIntRangeEPNS_8FXObjectEjPv
libFOX-1.6.so.0:_ZN2FX8FXSlider16onCmdSetIntValueEPNS_8FXObjectEjPv
libFOX-1.6.so.0:_ZN2FX8FXSlider16onLeftBtnReleaseEPNS_8FXObjectEjPv
libFOX-1.6.so.0:_ZN2FX8FXSlider16onMiddleBtnPressEPNS_8FXObjectEjPv
libFOX-1.6.so.0:_ZN2FX8FXSlider17onCmdGetRealRangeEPNS_8FXObjectEjPv
libFOX-1.6.so.0:_ZN2FX8FXSlider17onCmdGetRealValueEPNS_8FXObjectEjPv
libFOX-1.6.so.0:_ZN2FX8FXSlider17onCmdSetRealRangeEPNS_8FXObjectEjPv
libFOX-1.6.so.0:_ZN2FX8FXSlider17onCmdSetRealValueEPNS_8FXObjectEjPv
libFOX-1.6.so.0:_ZN2FX8FXSlider18onMiddleBtnReleaseEPNS_8FXObjectEjPv
libFOX-1.6.so.0:_ZN2FX8FXSlider4loadERNS_8FXStreamE
libFOX-1.6.so.0:_ZN2FX8FXSlider6enableEv
libFOX-1.6.so.0:_ZN2FX8FXSlider6handleEPNS_8FXObjectEjPv
libFOX-1.6.so.0:_ZN2FX8FXSlider6layoutEv
libFOX-1.6.so.0:_ZN2FX8FXSlider7disableEv
libFOX-1.6.so.0:_ZN2FX8FXSlider7onPaintEPNS_8FXObjectEjPv
libFOX-1.6.so.0:_ZN2FX8FXSlider8onMotionEPNS_8FXObjectEjPv
libFOX-1.6.so.0:_ZN2FX8FXSlider8setRangeEiih
libFOX-1.6.so.0:_ZN2FX8FXSlider8setValueEih
libFOX-1.6.so.0:_ZN2FX8FXSliderC1EPNS_11FXCompositeEPNS_8FXObjectEjjiiiiiiii
libFOX-1.6.so.0:_ZN2FX8FXSliderC1Ev
libFOX-1.6.so.0:_ZN2FX8FXSliderC2EPNS_11FXCompositeEPNS_8FXObjectEjjiiiiiiii
libFOX-1.6.so.0:_ZN2FX8FXSliderC2Ev
libFOX-1.6.so.0:_ZN2FX8FXSliderD0Ev
libFOX-1.6.so.0:_ZN2FX8FXSliderD1Ev
libFOX-1.6.so.0:_ZN2FX8FXSliderD2Ev
libFOX-1.6.so.0:_ZN2FX8FXSocket10writeBlockEPKvl
libFOX-1.6.so.0:_ZN2FX8FXSocket4openEij
libFOX-1.6.so.0:_ZN2FX8FXSocket5closeEv
libFOX-1.6.so.0:_ZN2FX8FXSocket9readBlockEPvl
libFOX-1.6.so.0:_ZN2FX8FXSocketC1Eij
libFOX-1.6.so.0:_ZN2FX8FXSocketC2Eij
libFOX-1.6.so.0:_ZN2FX8FXSocketD0Ev
libFOX-1.6.so.0:_ZN2FX8FXSocketD1Ev
libFOX-1.6.so.0:_ZN2FX8FXSocketD2Ev
libFOX-1.6.so.0:_ZN2FX8FXSpring11manufactureEv
libFOX-1.6.so.0:_ZN2FX8FXSpring15getDefaultWidthEv
libFOX-1.6.so.0:_ZN2FX8FXSpring16getDefaultHeightEv
libFOX-1.6.so.0:_ZN2FX8FXSpring16setRelativeWidthEi
libFOX-1.6.so.0:_ZN2FX8FXSpring17setRelativeHeightEi
libFOX-1.6.so.0:_ZN2FX8FXSpring4loadERNS_8FXStreamE
libFOX-1.6.so.0:_ZN2FX8FXSpring6handleEPNS_8FXObjectEjPv
libFOX-1.6.so.0:_ZN2FX8FXSpringC1EPNS_11FXCompositeEjiiiiiiiiiiii
libFOX-1.6.so.0:_ZN2FX8FXSpringC2EPNS_11FXCompositeEjiiiiiiiiiiii
libFOX-1.6.so.0:_ZN2FX8FXStream10loadObjectERPNS_8FXObjectE
libFOX-1.6.so.0:_ZN2FX8FXStream10readBufferEm
libFOX-1.6.so.0:_ZN2FX8FXStream10saveObjectEPKNS_8FXObjectE
libFOX-1.6.so.0:_ZN2FX8FXStream11writeBufferEm
libFOX-1.6.so.0:_ZN2FX8FXStream12setBigEndianEb
libFOX-1.6.so.0:_ZN2FX8FXStream4loadEPdm
libFOX-1.6.so.0:_ZN2FX8FXStream4loadEPhm
libFOX-1.6.so.0:_ZN2FX8FXStream4loadEPjm
libFOX-1.6.so.0:_ZN2FX8FXStream4loadEPtm
libFOX-1.6.so.0:_ZN2FX8FXStream4openENS_17FXStreamDirectionEmPh
libFOX-1.6.so.0:_ZN2FX8FXStream4saveEPKdm
libFOX-1.6.so.0:_ZN2FX8FXStream4saveEPKhm
libFOX-1.6.so.0:_ZN2FX8FXStream4saveEPKjm
libFOX-1.6.so.0:_ZN2FX8FXStream4saveEPKtm
libFOX-1.6.so.0:_ZN2FX8FXStream5closeEv
libFOX-1.6.so.0:_ZN2FX8FXStream5flushEv
libFOX-1.6.so.0:_ZN2FX8FXStream8positionElNS_8FXWhenceE
libFOX-1.6.so.0:_ZN2FX8FXStream8setErrorENS_14FXStreamStatusE
libFOX-1.6.so.0:_ZN2FX8FXStream8setSpaceEm
libFOX-1.6.so.0:_ZN2FX8FXStream9addObjectEPKNS_8FXObjectE
libFOX-1.6.so.0:_ZN2FX8FXStreamC1EPKNS_8FXObjectE
libFOX-1.6.so.0:_ZN2FX8FXStreamC2EPKNS_8FXObjectE
libFOX-1.6.so.0:_ZN2FX8FXStreamD0Ev
libFOX-1.6.so.0:_ZN2FX8FXStreamD1Ev
libFOX-1.6.so.0:_ZN2FX8FXStreamD2Ev
libFOX-1.6.so.0:_ZN2FX8FXStreamlsERKd
libFOX-1.6.so.0:_ZN2FX8FXStreamlsERKh
libFOX-1.6.so.0:_ZN2FX8FXStreamlsERKj
libFOX-1.6.so.0:_ZN2FX8FXStreamlsERKt
libFOX-1.6.so.0:_ZN2FX8FXStreamrsERd
libFOX-1.6.so.0:_ZN2FX8FXStreamrsERh
libFOX-1.6.so.0:_ZN2FX8FXStreamrsERj
libFOX-1.6.so.0:_ZN2FX8FXStreamrsERt
libFOX-1.6.so.0:_ZN2FX8FXString10substituteEPKcS2_b
libFOX-1.6.so.0:_ZN2FX8FXString10substituteEPKciS2_ib
libFOX-1.6.so.0:_ZN2FX8FXString10substituteERKS0_S2_b
libFOX-1.6.so.0:_ZN2FX8FXString10substituteEccb
libFOX-1.6.so.0:_ZN2FX8FXString4moveEiii
libFOX-1.6.so.0:_ZN2FX8FXString4trimEv
libFOX-1.6.so.0:_ZN2FX8FXString5adoptERS0_
libFOX-1.6.so.0:_ZN2FX8FXString5clearEv
libFOX-1.6.so.0:_ZN2FX8FXString5eraseEi
libFOX-1.6.so.0:_ZN2FX8FXString5eraseEii
libFOX-1.6.so.0:_ZN2FX8FXString5lowerEv
libFOX-1.6.so.0:_ZN2FX8FXString5truncEi
libFOX-1.6.so.0:_ZN2FX8FXString5upperEv
libFOX-1.6.so.0:_ZN2FX8FXString6appendEPKc
libFOX-1.6.so.0:_ZN2FX8FXString6appendEPKci
libFOX-1.6.so.0:_ZN2FX8FXString6appendEPKt
libFOX-1.6.so.0:_ZN2FX8FXString6appendEPKti
libFOX-1.6.so.0:_ZN2FX8FXString6appendEPKw
libFOX-1.6.so.0:_ZN2FX8FXString6appendEPKwi
libFOX-1.6.so.0:_ZN2FX8FXString6appendERKS0_
libFOX-1.6.so.0:_ZN2FX8FXString6appendEc
libFOX-1.6.so.0:_ZN2FX8FXString6appendEci
libFOX-1.6.so.0:_ZN2FX8FXString6assignEPKc
libFOX-1.6.so.0:_ZN2FX8FXString6assignEPKci
libFOX-1.6.so.0:_ZN2FX8FXString6assignEPKt
libFOX-1.6.so.0:_ZN2FX8FXString6assignEPKti
libFOX-1.6.so.0:_ZN2FX8FXString6assignEPKw
libFOX-1.6.so.0:_ZN2FX8FXString6assignEPKwi
libFOX-1.6.so.0:_ZN2FX8FXString6assignERKS0_
libFOX-1.6.so.0:_ZN2FX8FXString6assignEc
libFOX-1.6.so.0:_ZN2FX8FXString6assignEci
libFOX-1.6.so.0:_ZN2FX8FXString6formatEPKcz
libFOX-1.6.so.0:_ZN2FX8FXString6insertEiPKc
libFOX-1.6.so.0:_ZN2FX8FXString6insertEiPKci
libFOX-1.6.so.0:_ZN2FX8FXString6insertEiPKt
libFOX-1.6.so.0:_ZN2FX8FXString6insertEiPKti
libFOX-1.6.so.0:_ZN2FX8FXString6insertEiPKw
libFOX-1.6.so.0:_ZN2FX8FXString6insertEiPKwi
libFOX-1.6.so.0:_ZN2FX8FXString6insertEiRKS0_
libFOX-1.6.so.0:_ZN2FX8FXString6insertEic
libFOX-1.6.so.0:_ZN2FX8FXString6insertEici
libFOX-1.6.so.0:_ZN2FX8FXString6lengthEi
libFOX-1.6.so.0:_ZN2FX8FXString7prependEPKc
libFOX-1.6.so.0:_ZN2FX8FXString7prependEPKci
libFOX-1.6.so.0:_ZN2FX8FXString7prependEPKt
libFOX-1.6.so.0:_ZN2FX8FXString7prependEPKti
libFOX-1.6.so.0:_ZN2FX8FXString7prependEPKw
libFOX-1.6.so.0:_ZN2FX8FXString7prependEPKwi
libFOX-1.6.so.0:_ZN2FX8FXString7prependERKS0_
libFOX-1.6.so.0:_ZN2FX8FXString7prependEc
libFOX-1.6.so.0:_ZN2FX8FXString7prependEci
libFOX-1.6.so.0:_ZN2FX8FXString7replaceEic
libFOX-1.6.so.0:_ZN2FX8FXString7replaceEiiPKc
libFOX-1.6.so.0:_ZN2FX8FXString7replaceEiiPKci
libFOX-1.6.so.0:_ZN2FX8FXString7replaceEiiPKt
libFOX-1.6.so.0:_ZN2FX8FXString7replaceEiiPKti
libFOX-1.6.so.0:_ZN2FX8FXString7replaceEiiPKw
libFOX-1.6.so.0:_ZN2FX8FXString7replaceEiiPKwi
libFOX-1.6.so.0:_ZN2FX8FXString7replaceEiiRKS0_
libFOX-1.6.so.0:_ZN2FX8FXString7replaceEiici
libFOX-1.6.so.0:_ZN2FX8FXString7trimEndEv
libFOX-1.6.so.0:_ZN2FX8FXString7vformatEPKcP13__va_list_tag
libFOX-1.6.so.0:_ZN2FX8FXString8simplifyEv
libFOX-1.6.so.0:_ZN2FX8FXString9trimBeginEv
libFOX-1.6.so.0:_ZN2FX8FXStringC1EPKc
libFOX-1.6.so.0:_ZN2FX8FXStringC1EPKci
libFOX-1.6.so.0:_ZN2FX8FXStringC1EPKt
libFOX-1.6.so.0:_ZN2FX8FXStringC1EPKti
libFOX-1.6.so.0:_ZN2FX8FXStringC1EPKw
libFOX-1.6.so.0:_ZN2FX8FXStringC1EPKwi
libFOX-1.6.so.0:_ZN2FX8FXStringC1ERKS0_
libFOX-1.6.so.0:_ZN2FX8FXStringC1Eci
libFOX-1.6.so.0:_ZN2FX8FXStringC1Ev
libFOX-1.6.so.0:_ZN2FX8FXStringC2EPKc
libFOX-1.6.so.0:_ZN2FX8FXStringC2EPKci
libFOX-1.6.so.0:_ZN2FX8FXStringC2EPKt
libFOX-1.6.so.0:_ZN2FX8FXStringC2EPKti
libFOX-1.6.so.0:_ZN2FX8FXStringC2EPKw
libFOX-1.6.so.0:_ZN2FX8FXStringC2EPKwi
libFOX-1.6.so.0:_ZN2FX8FXStringC2ERKS0_
libFOX-1.6.so.0:_ZN2FX8FXStringC2Eci
libFOX-1.6.so.0:_ZN2FX8FXStringC2Ev
libFOX-1.6.so.0:_ZN2FX8FXStringD1Ev
libFOX-1.6.so.0:_ZN2FX8FXStringD2Ev
libFOX-1.6.so.0:_ZN2FX8FXStringaSEPKc
libFOX-1.6.so.0:_ZN2FX8FXStringaSEPKt
libFOX-1.6.so.0:_ZN2FX8FXStringaSEPKw
libFOX-1.6.so.0:_ZN2FX8FXStringaSERKS0_
libFOX-1.6.so.0:_ZN2FX8FXStringpLEPKc
libFOX-1.6.so.0:_ZN2FX8FXStringpLEPKt
libFOX-1.6.so.0:_ZN2FX8FXStringpLEPKw
libFOX-1.6.so.0:_ZN2FX8FXStringpLERKS0_
libFOX-1.6.so.0:_ZN2FX8FXStringpLEc
libFOX-1.6.so.0:_ZN2FX8FXSystem10modeStringEj
libFOX-1.6.so.0:_ZN2FX8FXSystem11getExecPathEv
libFOX-1.6.so.0:_ZN2FX8FXSystem14getEnvironmentERKNS_8FXStringE
libFOX-1.6.so.0:_ZN2FX8FXSystem14setEnvironmentERKNS_8FXStringES3_
libFOX-1.6.so.0:_ZN2FX8FXSystem15currentUserNameEv
libFOX-1.6.so.0:_ZN2FX8FXSystem15getCurrentDriveEv
libFOX-1.6.so.0:_ZN2FX8FXSystem15setCurrentDriveERKNS_8FXStringE
libFOX-1.6.so.0:_ZN2FX8FXSystem16currentGroupNameEv
libFOX-1.6.so.0:_ZN2FX8FXSystem16getHomeDirectoryEv
libFOX-1.6.so.0:_ZN2FX8FXSystem16getTempDirectoryEv
libFOX-1.6.so.0:_ZN2FX8FXSystem16getUserDirectoryERKNS_8FXStringE
libFOX-1.6.so.0:_ZN2FX8FXSystem19getCurrentDirectoryEv
libFOX-1.6.so.0:_ZN2FX8FXSystem19setCurrentDirectoryERKNS_8FXStringE
libFOX-1.6.so.0:_ZN2FX8FXSystem3nowEv
libFOX-1.6.so.0:_ZN2FX8FXSystem4timeEPKcl
libFOX-1.6.so.0:_ZN2FX8FXSystem4timeEl
libFOX-1.6.so.0:_ZN2FX8FXSystem4userEv
libFOX-1.6.so.0:_ZN2FX8FXSystem5groupEv
libFOX-1.6.so.0:_ZN2FX8FXSystem7dllNameERKNS_8FXStringE
libFOX-1.6.so.0:_ZN2FX8FXSystem8userNameEj
libFOX-1.6.so.0:_ZN2FX8FXSystem9groupNameEj
libFOX-1.6.so.0:_ZN2FX8FXTabBar10setCurrentEih
libFOX-1.6.so.0:_ZN2FX8FXTabBar11manufactureEv
libFOX-1.6.so.0:_ZN2FX8FXTabBar11onFocusDownEPNS_8FXObjectEjPv
libFOX-1.6.so.0:_ZN2FX8FXTabBar11onFocusLeftEPNS_8FXObjectEjPv
libFOX-1.6.so.0:_ZN2FX8FXTabBar11onFocusNextEPNS_8FXObjectEjPv
libFOX-1.6.so.0:_ZN2FX8FXTabBar11onFocusPrevEPNS_8FXObjectEjPv
libFOX-1.6.so.0:_ZN2FX8FXTabBar11setTabStyleEj
libFOX-1.6.so.0:_ZN2FX8FXTabBar12onFocusRightEPNS_8FXObjectEjPv
libFOX-1.6.so.0:_ZN2FX8FXTabBar13onCmdOpenItemEPNS_8FXObjectEjPv
libFOX-1.6.so.0:_ZN2FX8FXTabBar13onCmdSetValueEPNS_8FXObjectEjPv
libFOX-1.6.so.0:_ZN2FX8FXTabBar15getDefaultWidthEv
libFOX-1.6.so.0:_ZN2FX8FXTabBar16getDefaultHeightEv
libFOX-1.6.so.0:_ZN2FX8FXTabBar16onCmdGetIntValueEPNS_8FXObjectEjPv
libFOX-1.6.so.0:_ZN2FX8FXTabBar16onCmdSetIntValueEPNS_8FXObjectEjPv
libFOX-1.6.so.0:_ZN2FX8FXTabBar4loadERNS_8FXStreamE
libFOX-1.6.so.0:_ZN2FX8FXTabBar6handleEPNS_8FXObjectEjPv
libFOX-1.6.so.0:_ZN2FX8FXTabBar6layoutEv
libFOX-1.6.so.0:_ZN2FX8FXTabBar7onPaintEPNS_8FXObjectEjPv
libFOX-1.6.so.0:_ZN2FX8FXTabBar9onCmdOpenEPNS_8FXObjectEjPv
libFOX-1.6.so.0:_ZN2FX8FXTabBar9onFocusUpEPNS_8FXObjectEjPv
libFOX-1.6.so.0:_ZN2FX8FXTabBar9onUpdOpenEPNS_8FXObjectEjPv
libFOX-1.6.so.0:_ZN2FX8FXTabBarC1EPNS_11FXCompositeEPNS_8FXObjectEjjiiiiiiii
libFOX-1.6.so.0:_ZN2FX8FXTabBarC2EPNS_11FXCompositeEPNS_8FXObjectEjjiiiiiiii
libFOX-1.6.so.0:_ZN2FX8FXThread4exitEi
libFOX-1.6.so.0:_ZN2FX8FXThread4joinERi
libFOX-1.6.so.0:_ZN2FX8FXThread4joinEv
libFOX-1.6.so.0:_ZN2FX8FXThread4selfEv
libFOX-1.6.so.0:_ZN2FX8FXThread4timeEv
libFOX-1.6.so.0:_ZN2FX8FXThread5sleepEl
libFOX-1.6.so.0:_ZN2FX8FXThread5startEm
libFOX-1.6.so.0:_ZN2FX8FXThread5yieldEv
libFOX-1.6.so.0:_ZN2FX8FXThread6cancelEv
libFOX-1.6.so.0:_ZN2FX8FXThread6detachEv
libFOX-1.6.so.0:_ZN2FX8FXThread6wakeatEl
libFOX-1.6.so.0:_ZN2FX8FXThread7currentEv
libFOX-1.6.so.0:_ZN2FX8FXThread7executeEPv
libFOX-1.6.so.0:_ZN2FX8FXThread8priorityEi
libFOX-1.6.so.0:_ZN2FX8FXThread8priorityEv
libFOX-1.6.so.0:_ZN2FX8FXThreadC1Ev
libFOX-1.6.so.0:_ZN2FX8FXThreadC2Ev
libFOX-1.6.so.0:_ZN2FX8FXThreadD0Ev
libFOX-1.6.so.0:_ZN2FX8FXThreadD1Ev
libFOX-1.6.so.0:_ZN2FX8FXThreadD2Ev
libFOX-1.6.so.0:_ZN2FX8FXVisual11manufactureEv
libFOX-1.6.so.0:_ZN2FX8FXVisual12setMaxColorsEj
libFOX-1.6.so.0:_ZN2FX8FXVisual13setupcolormapEv
libFOX-1.6.so.0:_ZN2FX8FXVisual14setupgrayscaleEv
libFOX-1.6.so.0:_ZN2FX8FXVisual14setuptruecolorEv
libFOX-1.6.so.0:_ZN2FX8FXVisual15setuppixmapmonoEv
libFOX-1.6.so.0:_ZN2FX8FXVisual15setupstaticgrayEv
libFOX-1.6.so.0:_ZN2FX8FXVisual16setupdirectcolorEv
libFOX-1.6.so.0:_ZN2FX8FXVisual16setuppseudocolorEv
libFOX-1.6.so.0:_ZN2FX8FXVisual16setupstaticcolorEv
libFOX-1.6.so.0:_ZN2FX8FXVisual4loadERNS_8FXStreamE
libFOX-1.6.so.0:_ZN2FX8FXVisual6createEv
libFOX-1.6.so.0:_ZN2FX8FXVisual6detachEv
libFOX-1.6.so.0:_ZN2FX8FXVisual6handleEPNS_8FXObjectEjPv
libFOX-1.6.so.0:_ZN2FX8FXVisual7destroyEv
libFOX-1.6.so.0:_ZN2FX8FXVisual7setupgcEh
libFOX-1.6.so.0:_ZN2FX8FXVisual8getColorEm
libFOX-1.6.so.0:_ZN2FX8FXVisual8getPixelEj
libFOX-1.6.so.0:_ZN2FX8FXVisualC1EPNS_5FXAppEjj
libFOX-1.6.so.0:_ZN2FX8FXVisualC1Ev
libFOX-1.6.so.0:_ZN2FX8FXVisualC2EPNS_5FXAppEjj
libFOX-1.6.so.0:_ZN2FX8FXVisualC2Ev
libFOX-1.6.so.0:_ZN2FX8FXVisualD0Ev
libFOX-1.6.so.0:_ZN2FX8FXVisualD1Ev
libFOX-1.6.so.0:_ZN2FX8FXVisualD2Ev
libFOX-1.6.so.0:_ZN2FX8FXWindow10clearShapeEv
libFOX-1.6.so.0:_ZN2FX8FXWindow10dropEnableEv
libFOX-1.6.so.0:_ZN2FX8FXWindow10handleDragEiiNS_12FXDragActionE
libFOX-1.6.so.0:_ZN2FX8FXWindow10onCmdLowerEPNS_8FXObjectEjPv
libFOX-1.6.so.0:_ZN2FX8FXWindow10onCmdRaiseEPNS_8FXObjectEjPv
libFOX-1.6.so.0:_ZN2FX8FXWindow10onDNDEnterEPNS_8FXObjectEjPv
libFOX-1.6.so.0:_ZN2FX8FXWindow10onDNDLeaveEPNS_8FXObjectEjPv
libFOX-1.6.so.0:_ZN2FX8FXWindow10onFocusOutEPNS_8FXObjectEjPv
libFOX-1.6.so.0:_ZN2FX8FXWindow10onKeyPressEPNS_8FXObjectEjPv
libFOX-1.6.so.0:_ZN2FX8FXWindow10onQueryTipEPNS_8FXObjectEjPv
libFOX-1.6.so.0:_ZN2FX8FXWindow10setDefaultEh
libFOX-1.6.so.0:_ZN2FX8FXWindow10setInitialEb
libFOX-1.6.so.0:_ZN2FX8FXWindow11changeFocusEPS0_
libFOX-1.6.so.0:_ZN2FX8FXWindow11dropDisableEv
libFOX-1.6.so.0:_ZN2FX8FXWindow11findDefaultEPS0_
libFOX-1.6.so.0:_ZN2FX8FXWindow11findInitialEPS0_
libFOX-1.6.so.0:_ZN2FX8FXWindow11manufactureEv
libFOX-1.6.so.0:_ZN2FX8FXWindow11onBeginDragEPNS_8FXObjectEjPv
libFOX-1.6.so.0:_ZN2FX8FXWindow11onCmdDeleteEPNS_8FXObjectEjPv
libFOX-1.6.so.0:_ZN2FX8FXWindow11onCmdEnableEPNS_8FXObjectEjPv
libFOX-1.6.so.0:_ZN2FX8FXWindow11onCmdUpdateEPNS_8FXObjectEjPv
libFOX-1.6.so.0:_ZN2FX8FXWindow11onConfigureEPNS_8FXObjectEjPv
libFOX-1.6.so.0:_ZN2FX8FXWindow11onDNDMotionEPNS_8FXObjectEjPv
libFOX-1.6.so.0:_ZN2FX8FXWindow11onFocusSelfEPNS_8FXObjectEjPv
libFOX-1.6.so.0:_ZN2FX8FXWindow11onQueryHelpEPNS_8FXObjectEjPv
libFOX-1.6.so.0:_ZN2FX8FXWindow11onUngrabbedEPNS_8FXObjectEjPv
libFOX-1.6.so.0:_ZN2FX8FXWindow12forceRefreshEv
libFOX-1.6.so.0:_ZN2FX8FXWindow12grabKeyboardEv
libFOX-1.6.so.0:_ZN2FX8FXWindow12onCmdDisableEPNS_8FXObjectEjPv
libFOX-1.6.so.0:_ZN2FX8FXWindow12onDNDRequestEPNS_8FXObjectEjPv
libFOX-1.6.so.0:_ZN2FX8FXWindow12onKeyReleaseEPNS_8FXObjectEjPv
libFOX-1.6.so.0:_ZN2FX8FXWindow12onMouseWheelEPNS_8FXObjectEjPv
libFOX-1.6.so.0:_ZN2FX8FXWindow12setBackColorEj
libFOX-1.6.so.0:_ZN2FX8FXWindow13setDragCursorEPNS_8FXCursorE
libFOX-1.6.so.0:_ZN2FX8FXWindow14commonAncestorEPS0_S1_
libFOX-1.6.so.0:_ZN2FX8FXWindow14onLeftBtnPressEPNS_8FXObjectEjPv
libFOX-1.6.so.0:_ZN2FX8FXWindow14setLayoutHintsEj
libFOX-1.6.so.0:_ZN2FX8FXWindow14ungrabKeyboardEv
libFOX-1.6.so.0:_ZN2FX8FXWindow15getDefaultWidthEv
libFOX-1.6.so.0:_ZN2FX8FXWindow15onClipboardLostEPNS_8FXObjectEjPv
libFOX-1.6.so.0:_ZN2FX8FXWindow15onRightBtnPressEPNS_8FXObjectEjPv
libFOX-1.6.so.0:_ZN2FX8FXWindow15onSelectionLostEPNS_8FXObjectEjPv
libFOX-1.6.so.0:_ZN2FX8FXWindow16acquireClipboardEPKmj
libFOX-1.6.so.0:_ZN2FX8FXWindow16acquireSelectionEPKmj
libFOX-1.6.so.0:_ZN2FX8FXWindow16getDefaultHeightEv
libFOX-1.6.so.0:_ZN2FX8FXWindow16onCmdToggleShownEPNS_8FXObjectEjPv
libFOX-1.6.so.0:_ZN2FX8FXWindow16onLeftBtnReleaseEPNS_8FXObjectEjPv
libFOX-1.6.so.0:_ZN2FX8FXWindow16onMiddleBtnPressEPNS_8FXObjectEjPv
libFOX-1.6.so.0:_ZN2FX8FXWindow16onUpdToggleShownEPNS_8FXObjectEjPv
libFOX-1.6.so.0:_ZN2FX8FXWindow16releaseClipboardEv
libFOX-1.6.so.0:_ZN2FX8FXWindow16releaseSelectionEv
libFOX-1.6.so.0:_ZN2FX8FXWindow16setDefaultCursorEPNS_8FXCursorE
libFOX-1.6.so.0:_ZN2FX8FXWindow17getHeightForWidthEi
libFOX-1.6.so.0:_ZN2FX8FXWindow17getWidthForHeightEi
libFOX-1.6.so.0:_ZN2FX8FXWindow17onClipboardGainedEPNS_8FXObjectEjPv
libFOX-1.6.so.0:_ZN2FX8FXWindow17onRightBtnReleaseEPNS_8FXObjectEjPv
libFOX-1.6.so.0:_ZN2FX8FXWindow17onSelectionGainedEPNS_8FXObjectEjPv
libFOX-1.6.so.0:_ZN2FX8FXWindow17setCursorPositionEii
libFOX-1.6.so.0:_ZN2FX8FXWindow18addColormapWindowsEv
libFOX-1.6.so.0:_ZN2FX8FXWindow18onClipboardRequestEPNS_8FXObjectEjPv
libFOX-1.6.so.0:_ZN2FX8FXWindow18onCmdToggleEnabledEPNS_8FXObjectEjPv
libFOX-1.6.so.0:_ZN2FX8FXWindow18onMiddleBtnReleaseEPNS_8FXObjectEjPv
libFOX-1.6.so.0:_ZN2FX8FXWindow18onSelectionRequestEPNS_8FXObjectEjPv
libFOX-1.6.so.0:_ZN2FX8FXWindow18onUpdToggleEnabledEPNS_8FXObjectEjPv
libFOX-1.6.so.0:_ZN2FX8FXWindow18remColormapWindowsEv
libFOX-1.6.so.0:_ZN2FX8FXWindow20createComposeContextEv
libFOX-1.6.so.0:_ZN2FX8FXWindow21destroyComposeContextEv
libFOX-1.6.so.0:_ZN2FX8FXWindow4grabEv
libFOX-1.6.so.0:_ZN2FX8FXWindow4hideEv
libFOX-1.6.so.0:_ZN2FX8FXWindow4loadERNS_8FXStreamE
libFOX-1.6.so.0:_ZN2FX8FXWindow4moveEii
libFOX-1.6.so.0:_ZN2FX8FXWindow4setXEi
libFOX-1.6.so.0:_ZN2FX8FXWindow4setYEi
libFOX-1.6.so.0:_ZN2FX8FXWindow4showEv
libFOX-1.6.so.0:_ZN2FX8FXWindow5afterEPKS0_S2_
libFOX-1.6.so.0:_ZN2FX8FXWindow5lowerEv
libFOX-1.6.so.0:_ZN2FX8FXWindow5onMapEPNS_8FXObjectEjPv
libFOX-1.6.so.0:_ZN2FX8FXWindow5raiseEv
libFOX-1.6.so.0:_ZN2FX8FXWindow6attachEm
libFOX-1.6.so.0:_ZN2FX8FXWindow6beforeEPKS0_S2_
libFOX-1.6.so.0:_ZN2FX8FXWindow6createEv
libFOX-1.6.so.0:_ZN2FX8FXWindow6detachEv
libFOX-1.6.so.0:_ZN2FX8FXWindow6enableEv
libFOX-1.6.so.0:_ZN2FX8FXWindow6handleEPNS_8FXObjectEjPv
libFOX-1.6.so.0:_ZN2FX8FXWindow6layoutEv
libFOX-1.6.so.0:_ZN2FX8FXWindow6recalcEv
libFOX-1.6.so.0:_ZN2FX8FXWindow6resizeEii
libFOX-1.6.so.0:_ZN2FX8FXWindow6ungrabEv
libFOX-1.6.so.0:_ZN2FX8FXWindow7destroyEv
libFOX-1.6.so.0:_ZN2FX8FXWindow7disableEv
libFOX-1.6.so.0:_ZN2FX8FXWindow7endDragEb
libFOX-1.6.so.0:_ZN2FX8FXWindow7onEnterEPNS_8FXObjectEjPv
libFOX-1.6.so.0:_ZN2FX8FXWindow7onLeaveEPNS_8FXObjectEjPv
libFOX-1.6.so.0:_ZN2FX8FXWindow7onPaintEPNS_8FXObjectEjPv
libFOX-1.6.so.0:_ZN2FX8FXWindow7onUnmapEPNS_8FXObjectEjPv
libFOX-1.6.so.0:_ZN2FX8FXWindow8onMotionEPNS_8FXObjectEjPv
libFOX-1.6.so.0:_ZN2FX8FXWindow8onUpdYesEPNS_8FXObjectEjPv
libFOX-1.6.so.0:_ZN2FX8FXWindow8onUpdateEPNS_8FXObjectEjPv
libFOX-1.6.so.0:_ZN2FX8FXWindow8positionEiiii
libFOX-1.6.so.0:_ZN2FX8FXWindow8reparentEPS0_S1_
libFOX-1.6.so.0:_ZN2FX8FXWindow8setFocusEv
libFOX-1.6.so.0:_ZN2FX8FXWindow8setShapeEPNS_6FXIconE
libFOX-1.6.so.0:_ZN2FX8FXWindow8setShapeEPNS_8FXBitmapE
libFOX-1.6.so.0:_ZN2FX8FXWindow8setShapeERKNS_8FXRegionE
libFOX-1.6.so.0:_ZN2FX8FXWindow8setWidthEi
libFOX-1.6.so.0:_ZN2FX8FXWindow9addHotKeyEj
libFOX-1.6.so.0:_ZN2FX8FXWindow9beginDragEPKmj
libFOX-1.6.so.0:_ZN2FX8FXWindow9killFocusEv
libFOX-1.6.so.0:_ZN2FX8FXWindow9onCmdHideEPNS_8FXObjectEjPv
libFOX-1.6.so.0:_ZN2FX8FXWindow9onCmdShowEPNS_8FXObjectEjPv
libFOX-1.6.so.0:_ZN2FX8FXWindow9onDNDDropEPNS_8FXObjectEjPv
libFOX-1.6.so.0:_ZN2FX8FXWindow9onDestroyEPNS_8FXObjectEjPv
libFOX-1.6.so.0:_ZN2FX8FXWindow9onDraggedEPNS_8FXObjectEjPv
libFOX-1.6.so.0:_ZN2FX8FXWindow9onEndDragEPNS_8FXObjectEjPv
libFOX-1.6.so.0:_ZN2FX8FXWindow9onFocusInEPNS_8FXObjectEjPv
libFOX-1.6.so.0:_ZN2FX8FXWindow9remHotKeyEj
libFOX-1.6.so.0:_ZN2FX8FXWindow9setHeightEi
libFOX-1.6.so.0:_ZN2FX8FXWindowC1EPNS_11FXCompositeEjiiii
libFOX-1.6.so.0:_ZN2FX8FXWindowC1EPNS_5FXAppEPNS_8FXVisualE
libFOX-1.6.so.0:_ZN2FX8FXWindowC1EPNS_5FXAppEPS0_jiiii
libFOX-1.6.so.0:_ZN2FX8FXWindowC1Ev
libFOX-1.6.so.0:_ZN2FX8FXWindowC2EPNS_11FXCompositeEjiiii
libFOX-1.6.so.0:_ZN2FX8FXWindowC2EPNS_5FXAppEPNS_8FXVisualE
libFOX-1.6.so.0:_ZN2FX8FXWindowC2EPNS_5FXAppEPS0_jiiii
libFOX-1.6.so.0:_ZN2FX8FXWindowC2Ev
libFOX-1.6.so.0:_ZN2FX8FXWindowD0Ev
libFOX-1.6.so.0:_ZN2FX8FXWindowD1Ev
libFOX-1.6.so.0:_ZN2FX8FXWindowD2Ev
libFOX-1.6.so.0:_ZN2FX8FXWizard11manufactureEv
libFOX-1.6.so.0:_ZN2FX8FXWizard11onUpdFinishEPNS_8FXObjectEjPv
libFOX-1.6.so.0:_ZN2FX8FXWizard15setCurrentPanelEi
libFOX-1.6.so.0:_ZN2FX8FXWizard4loadERNS_8FXStreamE
libFOX-1.6.so.0:_ZN2FX8FXWizard6handleEPNS_8FXObjectEjPv
libFOX-1.6.so.0:_ZN2FX8FXWizard8setImageEPNS_7FXImageE
libFOX-1.6.so.0:_ZN2FX8FXWizard9constructEv
libFOX-1.6.so.0:_ZN2FX8FXWizard9onCmdBackEPNS_8FXObjectEjPv
libFOX-1.6.so.0:_ZN2FX8FXWizard9onCmdNextEPNS_8FXObjectEjPv
libFOX-1.6.so.0:_ZN2FX8FXWizard9onUpdBackEPNS_8FXObjectEjPv
libFOX-1.6.so.0:_ZN2FX8FXWizard9onUpdNextEPNS_8FXObjectEjPv
libFOX-1.6.so.0:_ZN2FX8FXWizardC1EPNS_5FXAppERKNS_8FXStringEPNS_7FXImageEjiiiiiiiiii
libFOX-1.6.so.0:_ZN2FX8FXWizardC1EPNS_8FXWindowERKNS_8FXStringEPNS_7FXImageEjiiiiiiiiii
libFOX-1.6.so.0:_ZN2FX8FXWizardC2EPNS_5FXAppERKNS_8FXStringEPNS_7FXImageEjiiiiiiiiii
libFOX-1.6.so.0:_ZN2FX8FXWizardC2EPNS_8FXWindowERKNS_8FXStringEPNS_7FXImageEjiiiiiiiiii
libFOX-1.6.so.0:_ZN2FX8FXWizardD0Ev
libFOX-1.6.so.0:_ZN2FX8FXWizardD1Ev
libFOX-1.6.so.0:_ZN2FX8FXWizardD2Ev
libFOX-1.6.so.0:_ZN2FX8fxassertEPKcS1_j
libFOX-1.6.so.0:_ZN2FX8fxcallocEPPvm
libFOX-1.6.so.0:_ZN2FX8fxgetpidEv
libFOX-1.6.so.0:_ZN2FX8fxmallocEPPvm
libFOX-1.6.so.0:_ZN2FX8fxmemdupEPPvPKvm
libFOX-1.6.so.0:_ZN2FX8fxrandomERj
libFOX-1.6.so.0:_ZN2FX8fxresizeEPPvm
libFOX-1.6.so.0:_ZN2FX8fxsavePSERNS_8FXStreamEPKjiiiiib
libFOX-1.6.so.0:_ZN2FX8fxstrdupEPKc
libFOX-1.6.so.0:_ZN2FX8unescapeERKNS_8FXStringE
libFOX-1.6.so.0:_ZN2FX9FXBMPIcon10loadPixelsERNS_8FXStreamE
libFOX-1.6.so.0:_ZN2FX9FXBMPIcon11manufactureEv
libFOX-1.6.so.0:_ZN2FX9FXBMPIcon6handleEPNS_8FXObjectEjPv
libFOX-1.6.so.0:_ZN2FX9FXBMPIconC1EPNS_5FXAppEPKvjjii
libFOX-1.6.so.0:_ZN2FX9FXBMPIconC2EPNS_5FXAppEPKvjjii
libFOX-1.6.so.0:_ZN2FX9FXBMPIconD0Ev
libFOX-1.6.so.0:_ZN2FX9FXBMPIconD1Ev
libFOX-1.6.so.0:_ZN2FX9FXBMPIconD2Ev
libFOX-1.6.so.0:_ZN2FX9FXCommand6handleEPNS_8FXObjectEjPv
libFOX-1.6.so.0:_ZN2FX9FXCommand9mergeWithEPS0_
libFOX-1.6.so.0:_ZN2FX9FXDCPrint10beginPrintERNS_9FXPrinterE
libFOX-1.6.so.0:_ZN2FX9FXDCPrint10drawBitmapEPKNS_8FXBitmapEii
libFOX-1.6.so.0:_ZN2FX9FXDCPrint10drawPointsEPKNS_7FXPointEj
libFOX-1.6.so.0:_ZN2FX9FXDCPrint10fillChordsEPKNS_5FXArcEj
libFOX-1.6.so.0:_ZN2FX9FXDCPrint10setLineCapENS_10FXCapStyleE
libFOX-1.6.so.0:_ZN2FX9FXDCPrint10setStippleENS_16FXStipplePatternEii
libFOX-1.6.so.0:_ZN2FX9FXDCPrint10setStippleEPNS_8FXBitmapEii
libFOX-1.6.so.0:_ZN2FX9FXDCPrint11drawEllipseEiiii
libFOX-1.6.so.0:_ZN2FX9FXDCPrint11drawHashBoxEiiiii
libFOX-1.6.so.0:_ZN2FX9FXDCPrint11fillEllipseEiiii
libFOX-1.6.so.0:_ZN2FX9FXDCPrint11fillPolygonEPKNS_7FXPointEj
libFOX-1.6.so.0:_ZN2FX9FXDCPrint11setClipMaskEPNS_8FXBitmapEii
libFOX-1.6.so.0:_ZN2FX9FXDCPrint11setFillRuleENS_10FXFillRuleE
libFOX-1.6.so.0:_ZN2FX9FXDCPrint11setFunctionENS_10FXFunctionE
libFOX-1.6.so.0:_ZN2FX9FXDCPrint11setLineJoinENS_11FXJoinStyleE
libFOX-1.6.so.0:_ZN2FX9FXDCPrint12clipChildrenEh
libFOX-1.6.so.0:_ZN2FX9FXDCPrint12drawLinesRelEPKNS_7FXPointEj
libFOX-1.6.so.0:_ZN2FX9FXDCPrint12setFillStyleENS_11FXFillStyleE
libFOX-1.6.so.0:_ZN2FX9FXDCPrint12setLineStyleENS_11FXLineStyleE
libFOX-1.6.so.0:_ZN2FX9FXDCPrint12setLineWidthEj
libFOX-1.6.so.0:_ZN2FX9FXDCPrint13clearClipMaskEv
libFOX-1.6.so.0:_ZN2FX9FXDCPrint13drawImageTextEiiPKcj
libFOX-1.6.so.0:_ZN2FX9FXDCPrint13drawImageTextEiiRKNS_8FXStringE
libFOX-1.6.so.0:_ZN2FX9FXDCPrint13drawPointsRelEPKNS_7FXPointEj
libFOX-1.6.so.0:_ZN2FX9FXDCPrint13drawRectangleEiiii
libFOX-1.6.so.0:_ZN2FX9FXDCPrint13fillRectangleEiiii
libFOX-1.6.so.0:_ZN2FX9FXDCPrint13setBackgroundEj
libFOX-1.6.so.0:_ZN2FX9FXDCPrint13setForegroundEj
libFOX-1.6.so.0:_ZN2FX9FXDCPrint14drawIconShadedEPKNS_6FXIconEii
libFOX-1.6.so.0:_ZN2FX9FXDCPrint14drawIconSunkenEPKNS_6FXIconEii
libFOX-1.6.so.0:_ZN2FX9FXDCPrint14drawRectanglesEPKNS_11FXRectangleEj
libFOX-1.6.so.0:_ZN2FX9FXDCPrint14fillPolygonRelEPKNS_7FXPointEj
libFOX-1.6.so.0:_ZN2FX9FXDCPrint14fillRectanglesEPKNS_11FXRectangleEj
libFOX-1.6.so.0:_ZN2FX9FXDCPrint15setContentRangeEiiii
libFOX-1.6.so.0:_ZN2FX9FXDCPrint16drawLineSegmentsEPKNS_9FXSegmentEj
libFOX-1.6.so.0:_ZN2FX9FXDCPrint16setClipRectangleERKNS_11FXRectangleE
libFOX-1.6.so.0:_ZN2FX9FXDCPrint16setClipRectangleEiiii
libFOX-1.6.so.0:_ZN2FX9FXDCPrint18clearClipRectangleEv
libFOX-1.6.so.0:_ZN2FX9FXDCPrint18drawRoundRectangleEiiiiii
libFOX-1.6.so.0:_ZN2FX9FXDCPrint18fillComplexPolygonEPKNS_7FXPointEj
libFOX-1.6.so.0:_ZN2FX9FXDCPrint18fillConcavePolygonEPKNS_7FXPointEj
libFOX-1.6.so.0:_ZN2FX9FXDCPrint18fillRoundRectangleEiiiiii
libFOX-1.6.so.0:_ZN2FX9FXDCPrint21fillComplexPolygonRelEPKNS_7FXPointEj
libFOX-1.6.so.0:_ZN2FX9FXDCPrint21fillConcavePolygonRelEPKNS_7FXPointEj
libFOX-1.6.so.0:_ZN2FX9FXDCPrint3tfmERfS1_ff
libFOX-1.6.so.0:_ZN2FX9FXDCPrint4bboxEff
libFOX-1.6.so.0:_ZN2FX9FXDCPrint4outfEPKcz
libFOX-1.6.so.0:_ZN2FX9FXDCPrint6outhexEj
libFOX-1.6.so.0:_ZN2FX9FXDCPrint7drawArcEiiiiii
libFOX-1.6.so.0:_ZN2FX9FXDCPrint7endPageEv
libFOX-1.6.so.0:_ZN2FX9FXDCPrint7fillArcEiiiiii
libFOX-1.6.so.0:_ZN2FX9FXDCPrint7setFontEPNS_6FXFontE
libFOX-1.6.so.0:_ZN2FX9FXDCPrint7setTileEPNS_7FXImageEii
libFOX-1.6.so.0:_ZN2FX9FXDCPrint8drawArcsEPKNS_5FXArcEj
libFOX-1.6.so.0:_ZN2FX9FXDCPrint8drawAreaEPKNS_10FXDrawableEiiiiii
libFOX-1.6.so.0:_ZN2FX9FXDCPrint8drawAreaEPKNS_10FXDrawableEiiiiiiii
libFOX-1.6.so.0:_ZN2FX9FXDCPrint8drawIconEPKNS_6FXIconEii
libFOX-1.6.so.0:_ZN2FX9FXDCPrint8drawLineEiiii
libFOX-1.6.so.0:_ZN2FX9FXDCPrint8drawTextEiiPKcj
libFOX-1.6.so.0:_ZN2FX9FXDCPrint8drawTextEiiRKNS_8FXStringE
libFOX-1.6.so.0:_ZN2FX9FXDCPrint8endPrintEv
libFOX-1.6.so.0:_ZN2FX9FXDCPrint8fillArcsEPKNS_5FXArcEj
libFOX-1.6.so.0:_ZN2FX9FXDCPrint9beginPageEj
libFOX-1.6.so.0:_ZN2FX9FXDCPrint9drawImageEPKNS_7FXImageEii
libFOX-1.6.so.0:_ZN2FX9FXDCPrint9drawLinesEPKNS_7FXPointEj
libFOX-1.6.so.0:_ZN2FX9FXDCPrint9drawPointEii
libFOX-1.6.so.0:_ZN2FX9FXDCPrint9fillChordEiiiiii
libFOX-1.6.so.0:_ZN2FX9FXDCPrint9setDashesEjPKcj
libFOX-1.6.so.0:_ZN2FX9FXDCPrintC1EPNS_5FXAppE
libFOX-1.6.so.0:_ZN2FX9FXDCPrintC2EPNS_5FXAppE
libFOX-1.6.so.0:_ZN2FX9FXDCPrintD0Ev
libFOX-1.6.so.0:_ZN2FX9FXDCPrintD1Ev
libFOX-1.6.so.0:_ZN2FX9FXDCPrintD2Ev
libFOX-1.6.so.0:_ZN2FX9FXDirItem11manufactureEv
libFOX-1.6.so.0:_ZN2FX9FXDirItem6handleEPNS_8FXObjectEjPv
libFOX-1.6.so.0:_ZN2FX9FXDirList10createItemERKNS_8FXStringEPNS_6FXIconES5_Pv
libFOX-1.6.so.0:_ZN2FX9FXDirList10descendingEPKNS_10FXTreeItemES3_
libFOX-1.6.so.0:_ZN2FX9FXDirList10expandTreeEPNS_10FXTreeItemEh
libFOX-1.6.so.0:_ZN2FX9FXDirList10onDNDEnterEPNS_8FXObjectEjPv
libFOX-1.6.so.0:_ZN2FX9FXDirList10onDNDLeaveEPNS_8FXObjectEjPv
libFOX-1.6.so.0:_ZN2FX9FXDirList10setPatternERKNS_8FXStringE
libFOX-1.6.so.0:_ZN2FX9FXDirList11manufactureEv
libFOX-1.6.so.0:_ZN2FX9FXDirList11onBeginDragEPNS_8FXObjectEjPv
libFOX-1.6.so.0:_ZN2FX9FXDirList11onDNDMotionEPNS_8FXObjectEjPv
libFOX-1.6.so.0:_ZN2FX9FXDirList12collapseTreeEPNS_10FXTreeItemEh
libFOX-1.6.so.0:_ZN2FX9FXDirList12onCmdRefreshEPNS_8FXObjectEjPv
libFOX-1.6.so.0:_ZN2FX9FXDirList12onDNDRequestEPNS_8FXObjectEjPv
libFOX-1.6.so.0:_ZN2FX9FXDirList12setDirectoryERKNS_8FXStringEh
libFOX-1.6.so.0:_ZN2FX9FXDirList12setMatchModeEj
libFOX-1.6.so.0:_ZN2FX9FXDirList13ascendingCaseEPKNS_10FXTreeItemES3_
libFOX-1.6.so.0:_ZN2FX9FXDirList13listRootItemsEv
libFOX-1.6.so.0:_ZN2FX9FXDirList13onCmdSetValueEPNS_8FXObjectEjPv
libFOX-1.6.so.0:_ZN2FX9FXDirList13onCmdSortCaseEPNS_8FXObjectEjPv
libFOX-1.6.so.0:_ZN2FX9FXDirList13onUpdSortCaseEPNS_8FXObjectEjPv
libFOX-1.6.so.0:_ZN2FX9FXDirList14descendingCaseEPKNS_10FXTreeItemES3_
libFOX-1.6.so.0:_ZN2FX9FXDirList14listChildItemsEPNS_9FXDirItemE
libFOX-1.6.so.0:_ZN2FX9FXDirList14onCmdHideFilesEPNS_8FXObjectEjPv
libFOX-1.6.so.0:_ZN2FX9FXDirList14onCmdShowFilesEPNS_8FXObjectEjPv
libFOX-1.6.so.0:_ZN2FX9FXDirList14onRefreshTimerEPNS_8FXObjectEjPv
libFOX-1.6.so.0:_ZN2FX9FXDirList14onUpdHideFilesEPNS_8FXObjectEjPv
libFOX-1.6.so.0:_ZN2FX9FXDirList14onUpdShowFilesEPNS_8FXObjectEjPv
libFOX-1.6.so.0:_ZN2FX9FXDirList14setCurrentFileERKNS_8FXStringEh
libFOX-1.6.so.0:_ZN2FX9FXDirList15getPathnameItemERKNS_8FXStringE
libFOX-1.6.so.0:_ZN2FX9FXDirList15onCmdHideHiddenEPNS_8FXObjectEjPv
libFOX-1.6.so.0:_ZN2FX9FXDirList15onCmdSetPatternEPNS_8FXObjectEjPv
libFOX-1.6.so.0:_ZN2FX9FXDirList15onCmdShowHiddenEPNS_8FXObjectEjPv
libFOX-1.6.so.0:_ZN2FX9FXDirList15onUpdHideHiddenEPNS_8FXObjectEjPv
libFOX-1.6.so.0:_ZN2FX9FXDirList15onUpdSetPatternEPNS_8FXObjectEjPv
libFOX-1.6.so.0:_ZN2FX9FXDirList15onUpdShowHiddenEPNS_8FXObjectEjPv
libFOX-1.6.so.0:_ZN2FX9FXDirList15setAssociationsEPNS_10FXFileDictE
libFOX-1.6.so.0:_ZN2FX9FXDirList15showHiddenFilesEh
libFOX-1.6.so.0:_ZN2FX9FXDirList16onCmdSortReverseEPNS_8FXObjectEjPv
libFOX-1.6.so.0:_ZN2FX9FXDirList16onCmdToggleFilesEPNS_8FXObjectEjPv
libFOX-1.6.so.0:_ZN2FX9FXDirList16onUpdSortReverseEPNS_8FXObjectEjPv
libFOX-1.6.so.0:_ZN2FX9FXDirList16onUpdToggleFilesEPNS_8FXObjectEjPv
libFOX-1.6.so.0:_ZN2FX9FXDirList17onCmdToggleHiddenEPNS_8FXObjectEjPv
libFOX-1.6.so.0:_ZN2FX9FXDirList17onUpdToggleHiddenEPNS_8FXObjectEjPv
libFOX-1.6.so.0:_ZN2FX9FXDirList19onCmdGetStringValueEPNS_8FXObjectEjPv
libFOX-1.6.so.0:_ZN2FX9FXDirList19onCmdSetStringValueEPNS_8FXObjectEjPv
libFOX-1.6.so.0:_ZN2FX9FXDirList4loadERNS_8FXStreamE
libFOX-1.6.so.0:_ZN2FX9FXDirList4scanEh
libFOX-1.6.so.0:_ZN2FX9FXDirList6createEv
libFOX-1.6.so.0:_ZN2FX9FXDirList6detachEv
libFOX-1.6.so.0:_ZN2FX9FXDirList6handleEPNS_8FXObjectEjPv
libFOX-1.6.so.0:_ZN2FX9FXDirList7destroyEv
libFOX-1.6.so.0:_ZN2FX9FXDirList9ascendingEPKNS_10FXTreeItemES3_
libFOX-1.6.so.0:_ZN2FX9FXDirList9onDNDDropEPNS_8FXObjectEjPv
libFOX-1.6.so.0:_ZN2FX9FXDirList9onDraggedEPNS_8FXObjectEjPv
libFOX-1.6.so.0:_ZN2FX9FXDirList9onEndDragEPNS_8FXObjectEjPv
libFOX-1.6.so.0:_ZN2FX9FXDirList9showFilesEh
libFOX-1.6.so.0:_ZN2FX9FXDirListC1EPNS_11FXCompositeEPNS_8FXObjectEjjiiii
libFOX-1.6.so.0:_ZN2FX9FXDirListC1Ev
libFOX-1.6.so.0:_ZN2FX9FXDirListC2EPNS_11FXCompositeEPNS_8FXObjectEjjiiii
libFOX-1.6.so.0:_ZN2FX9FXDirListC2Ev
libFOX-1.6.so.0:_ZN2FX9FXDirListD0Ev
libFOX-1.6.so.0:_ZN2FX9FXDirListD1Ev
libFOX-1.6.so.0:_ZN2FX9FXDirListD2Ev
libFOX-1.6.so.0:_ZN2FX9FXDockBar10insideDockEPNS_10FXDockSiteEii
libFOX-1.6.so.0:_ZN2FX9FXDockBar10setDryDockEPNS_11FXCompositeE
libFOX-1.6.so.0:_ZN2FX9FXDockBar10setWetDockEPNS_11FXCompositeE
libFOX-1.6.so.0:_ZN2FX9FXDockBar11manufactureEv
libFOX-1.6.so.0:_ZN2FX9FXDockBar11onCmdUndockEPNS_8FXObjectEjPv
libFOX-1.6.so.0:_ZN2FX9FXDockBar11onDockTimerEPNS_8FXObjectEjPv
libFOX-1.6.so.0:_ZN2FX9FXDockBar11onPopupMenuEPNS_8FXObjectEjPv
libFOX-1.6.so.0:_ZN2FX9FXDockBar11onUpdUndockEPNS_8FXObjectEjPv
libFOX-1.6.so.0:_ZN2FX9FXDockBar12findDockNearEii
libFOX-1.6.so.0:_ZN2FX9FXDockBar12onCmdDockTopEPNS_8FXObjectEjPv
libFOX-1.6.so.0:_ZN2FX9FXDockBar12onUpdDockTopEPNS_8FXObjectEjPv
libFOX-1.6.so.0:_ZN2FX9FXDockBar13onCmdDockLeftEPNS_8FXObjectEjPv
libFOX-1.6.so.0:_ZN2FX9FXDockBar13onDraggedGripEPNS_8FXObjectEjPv
libFOX-1.6.so.0:_ZN2FX9FXDockBar13onEndDragGripEPNS_8FXObjectEjPv
libFOX-1.6.so.0:_ZN2FX9FXDockBar13onUpdDockFlipEPNS_8FXObjectEjPv
libFOX-1.6.so.0:_ZN2FX9FXDockBar13onUpdDockLeftEPNS_8FXObjectEjPv
libFOX-1.6.so.0:_ZN2FX9FXDockBar14findDockAtSideEj
libFOX-1.6.so.0:_ZN2FX9FXDockBar14onCmdDockRightEPNS_8FXObjectEjPv
libFOX-1.6.so.0:_ZN2FX9FXDockBar14onUpdDockRightEPNS_8FXObjectEjPv
libFOX-1.6.so.0:_ZN2FX9FXDockBar15onBeginDragGripEPNS_8FXObjectEjPv
libFOX-1.6.so.0:_ZN2FX9FXDockBar15onCmdDockBottomEPNS_8FXObjectEjPv
libFOX-1.6.so.0:_ZN2FX9FXDockBar15onUpdDockBottomEPNS_8FXObjectEjPv
libFOX-1.6.so.0:_ZN2FX9FXDockBar4dockEPNS_10FXDockSiteEPNS_8FXWindowEh
libFOX-1.6.so.0:_ZN2FX9FXDockBar4dockEPNS_10FXDockSiteEiih
libFOX-1.6.so.0:_ZN2FX9FXDockBar4loadERNS_8FXStreamE
libFOX-1.6.so.0:_ZN2FX9FXDockBar6handleEPNS_8FXObjectEjPv
libFOX-1.6.so.0:_ZN2FX9FXDockBar6undockEiih
libFOX-1.6.so.0:_ZN2FX9FXDockBarC1EPNS_11FXCompositeES2_jiiiiiiiiii
libFOX-1.6.so.0:_ZN2FX9FXDockBarC1EPNS_11FXCompositeEjiiiiiiiiii
libFOX-1.6.so.0:_ZN2FX9FXDockBarC1Ev
libFOX-1.6.so.0:_ZN2FX9FXDockBarC2EPNS_11FXCompositeES2_jiiiiiiiiii
libFOX-1.6.so.0:_ZN2FX9FXDockBarC2EPNS_11FXCompositeEjiiiiiiiiii
libFOX-1.6.so.0:_ZN2FX9FXDockBarC2Ev
libFOX-1.6.so.0:_ZN2FX9FXDockBarD0Ev
libFOX-1.6.so.0:_ZN2FX9FXDockBarD1Ev
libFOX-1.6.so.0:_ZN2FX9FXDockBarD2Ev
libFOX-1.6.so.0:_ZN2FX9FXExtentd7includeERKNS_7FXVec2dE
libFOX-1.6.so.0:_ZN2FX9FXExtentd7includeERKS0_
libFOX-1.6.so.0:_ZN2FX9FXExtentd7includeEdd
libFOX-1.6.so.0:_ZN2FX9FXExtentf7includeERKNS_7FXVec2fE
libFOX-1.6.so.0:_ZN2FX9FXExtentf7includeERKS0_
libFOX-1.6.so.0:_ZN2FX9FXExtentf7includeEff
libFOX-1.6.so.0:_ZN2FX9FXGIFIcon10loadPixelsERNS_8FXStreamE
libFOX-1.6.so.0:_ZN2FX9FXGIFIcon11manufactureEv
libFOX-1.6.so.0:_ZN2FX9FXGIFIcon6handleEPNS_8FXObjectEjPv
libFOX-1.6.so.0:_ZN2FX9FXGIFIconC1EPNS_5FXAppEPKvjjii
libFOX-1.6.so.0:_ZN2FX9FXGIFIconC2EPNS_5FXAppEPKvjjii
libFOX-1.6.so.0:_ZN2FX9FXGIFIconD0Ev
libFOX-1.6.so.0:_ZN2FX9FXGIFIconD1Ev
libFOX-1.6.so.0:_ZN2FX9FXGIFIconD2Ev
libFOX-1.6.so.0:_ZN2FX9FXGLGroup11manufactureEv
libFOX-1.6.so.0:_ZN2FX9FXGLGroup3hitEPNS_10FXGLViewerE
libFOX-1.6.so.0:_ZN2FX9FXGLGroup4copyEv
libFOX-1.6.so.0:_ZN2FX9FXGLGroup4dragEPNS_10FXGLViewerEiiii
libFOX-1.6.so.0:_ZN2FX9FXGLGroup4drawEPNS_10FXGLViewerE
libFOX-1.6.so.0:_ZN2FX9FXGLGroup4loadERNS_8FXStreamE
libFOX-1.6.so.0:_ZN2FX9FXGLGroup6boundsERNS_8FXRangefE
libFOX-1.6.so.0:_ZN2FX9FXGLGroup6handleEPNS_8FXObjectEjPv
libFOX-1.6.so.0:_ZN2FX9FXGLGroup8identifyEPj
libFOX-1.6.so.0:_ZN2FX9FXGLGroupD0Ev
libFOX-1.6.so.0:_ZN2FX9FXGLGroupD1Ev
libFOX-1.6.so.0:_ZN2FX9FXGLGroupD2Ev
libFOX-1.6.so.0:_ZN2FX9FXGLPoint11manufactureEv
libFOX-1.6.so.0:_ZN2FX9FXGLPoint3hitEPNS_10FXGLViewerE
libFOX-1.6.so.0:_ZN2FX9FXGLPoint4copyEv
libFOX-1.6.so.0:_ZN2FX9FXGLPoint4drawEPNS_10FXGLViewerE
libFOX-1.6.so.0:_ZN2FX9FXGLPoint4loadERNS_8FXStreamE
libFOX-1.6.so.0:_ZN2FX9FXGLPoint6boundsERNS_8FXRangefE
libFOX-1.6.so.0:_ZN2FX9FXGLPoint6handleEPNS_8FXObjectEjPv
libFOX-1.6.so.0:_ZN2FX9FXGLPointC1ERKS0_
libFOX-1.6.so.0:_ZN2FX9FXGLPointC1Efff
libFOX-1.6.so.0:_ZN2FX9FXGLPointC1Ev
libFOX-1.6.so.0:_ZN2FX9FXGLPointC2ERKS0_
libFOX-1.6.so.0:_ZN2FX9FXGLPointC2Efff
libFOX-1.6.so.0:_ZN2FX9FXGLPointC2Ev
libFOX-1.6.so.0:_ZN2FX9FXGLShape10onQueryTipEPNS_8FXObjectEjPv
libFOX-1.6.so.0:_ZN2FX9FXGLShape11drawhandlesEv
libFOX-1.6.so.0:_ZN2FX9FXGLShape11onDNDMotionEPNS_8FXObjectEjPv
libFOX-1.6.so.0:_ZN2FX9FXGLShape11setMaterialEiRKNS_10FXMaterialE
libFOX-1.6.so.0:_ZN2FX9FXGLShape12onCmdShadeOnEPNS_8FXObjectEjPv
libFOX-1.6.so.0:_ZN2FX9FXGLShape12onUpdShadeOnEPNS_8FXObjectEjPv
libFOX-1.6.so.0:_ZN2FX9FXGLShape13onCmdShadeOffEPNS_8FXObjectEjPv
libFOX-1.6.so.0:_ZN2FX9FXGLShape13onUpdShadeOffEPNS_8FXObjectEjPv
libFOX-1.6.so.0:_ZN2FX9FXGLShape16onCmdShadeSmoothEPNS_8FXObjectEjPv
libFOX-1.6.so.0:_ZN2FX9FXGLShape16onUpdShadeSmoothEPNS_8FXObjectEjPv
libFOX-1.6.so.0:_ZN2FX9FXGLShape17onCmdBackMaterialEPNS_8FXObjectEjPv
libFOX-1.6.so.0:_ZN2FX9FXGLShape17onCmdDrawingStyleEPNS_8FXObjectEjPv
libFOX-1.6.so.0:_ZN2FX9FXGLShape17onUpdBackMaterialEPNS_8FXObjectEjPv
libFOX-1.6.so.0:_ZN2FX9FXGLShape17onUpdDrawingStyleEPNS_8FXObjectEjPv
libFOX-1.6.so.0:_ZN2FX9FXGLShape18onCmdFrontMaterialEPNS_8FXObjectEjPv
libFOX-1.6.so.0:_ZN2FX9FXGLShape18onUpdFrontMaterialEPNS_8FXObjectEjPv
libFOX-1.6.so.0:_ZN2FX9FXGLShape3hitEPNS_10FXGLViewerE
libFOX-1.6.so.0:_ZN2FX9FXGLShape4copyEv
libFOX-1.6.so.0:_ZN2FX9FXGLShape4dragEPNS_10FXGLViewerEiiii
libFOX-1.6.so.0:_ZN2FX9FXGLShape4drawEPNS_10FXGLViewerE
libFOX-1.6.so.0:_ZN2FX9FXGLShape4loadERNS_8FXStreamE
libFOX-1.6.so.0:_ZN2FX9FXGLShape6boundsERNS_8FXRangefE
libFOX-1.6.so.0:_ZN2FX9FXGLShape6handleEPNS_8FXObjectEjPv
libFOX-1.6.so.0:_ZN2FX9FXGLShape7drawboxEv
libFOX-1.6.so.0:_ZN2FX9FXGLShape9onDNDDropEPNS_8FXObjectEjPv
libFOX-1.6.so.0:_ZN2FX9FXGLShapeC1ERKS0_
libFOX-1.6.so.0:_ZN2FX9FXGLShapeC1Efffj
libFOX-1.6.so.0:_ZN2FX9FXGLShapeC1EfffjRKNS_10FXMaterialES3_
libFOX-1.6.so.0:_ZN2FX9FXGLShapeC1Ev
libFOX-1.6.so.0:_ZN2FX9FXGLShapeC2ERKS0_
libFOX-1.6.so.0:_ZN2FX9FXGLShapeC2Efffj
libFOX-1.6.so.0:_ZN2FX9FXGLShapeC2EfffjRKNS_10FXMaterialES3_
libFOX-1.6.so.0:_ZN2FX9FXGLShapeC2Ev
libFOX-1.6.so.0:_ZN2FX9FXICOIcon10loadPixelsERNS_8FXStreamE
libFOX-1.6.so.0:_ZN2FX9FXICOIcon11manufactureEv
libFOX-1.6.so.0:_ZN2FX9FXICOIcon6handleEPNS_8FXObjectEjPv
libFOX-1.6.so.0:_ZN2FX9FXICOIconC1EPNS_5FXAppEPKvjjii
libFOX-1.6.so.0:_ZN2FX9FXICOIconC2EPNS_5FXAppEPKvjjii
libFOX-1.6.so.0:_ZN2FX9FXICOIconD0Ev
libFOX-1.6.so.0:_ZN2FX9FXICOIconD1Ev
libFOX-1.6.so.0:_ZN2FX9FXICOIconD2Ev
libFOX-1.6.so.0:_ZN2FX9FXIFFIcon10loadPixelsERNS_8FXStreamE
libFOX-1.6.so.0:_ZN2FX9FXIFFIcon11manufactureEv
libFOX-1.6.so.0:_ZN2FX9FXIFFIcon6handleEPNS_8FXObjectEjPv
libFOX-1.6.so.0:_ZN2FX9FXIFFIconC1EPNS_5FXAppEPKvjjii
libFOX-1.6.so.0:_ZN2FX9FXIFFIconC2EPNS_5FXAppEPKvjjii
libFOX-1.6.so.0:_ZN2FX9FXIFFIconD0Ev
libFOX-1.6.so.0:_ZN2FX9FXIFFIconD1Ev
libFOX-1.6.so.0:_ZN2FX9FXIFFIconD2Ev
libFOX-1.6.so.0:_ZN2FX9FXJPGIcon10loadPixelsERNS_8FXStreamE
libFOX-1.6.so.0:_ZN2FX9FXJPGIcon11manufactureEv
libFOX-1.6.so.0:_ZN2FX9FXJPGIcon6handleEPNS_8FXObjectEjPv
libFOX-1.6.so.0:_ZN2FX9FXJPGIconC1EPNS_5FXAppEPKvjjiii
libFOX-1.6.so.0:_ZN2FX9FXJPGIconC2EPNS_5FXAppEPKvjjiii
libFOX-1.6.so.0:_ZN2FX9FXJPGIconD0Ev
libFOX-1.6.so.0:_ZN2FX9FXJPGIconD1Ev
libFOX-1.6.so.0:_ZN2FX9FXJPGIconD2Ev
libFOX-1.6.so.0:_ZN2FX9FXListBox10appendItemERKNS_8FXStringEPNS_6FXIconEPv
libFOX-1.6.so.0:_ZN2FX9FXListBox10clearItemsEv
libFOX-1.6.so.0:_ZN2FX9FXListBox10insertItemEiRKNS_8FXStringEPNS_6FXIconEPv
libFOX-1.6.so.0:_ZN2FX9FXListBox10removeItemEi
libFOX-1.6.so.0:_ZN2FX9FXListBox10setTipTextERKNS_8FXStringE
libFOX-1.6.so.0:_ZN2FX9FXListBox11extractItemEi
libFOX-1.6.so.0:_ZN2FX9FXListBox11manufactureEv
libFOX-1.6.so.0:_ZN2FX9FXListBox11onFocusDownEPNS_8FXObjectEjPv
libFOX-1.6.so.0:_ZN2FX9FXListBox11onFocusSelfEPNS_8FXObjectEjPv
libFOX-1.6.so.0:_ZN2FX9FXListBox11prependItemERKNS_8FXStringEPNS_6FXIconEPv
libFOX-1.6.so.0:_ZN2FX9FXListBox11setHelpTextERKNS_8FXStringE
libFOX-1.6.so.0:_ZN2FX9FXListBox11setItemIconEiPNS_6FXIconEh
libFOX-1.6.so.0:_ZN2FX9FXListBox11setItemTextEiRKNS_8FXStringE
libFOX-1.6.so.0:_ZN2FX9FXListBox11setSortFuncEPFiPKNS_10FXListItemES3_E
libFOX-1.6.so.0:_ZN2FX9FXListBox12onListUpdateEPNS_8FXObjectEjPv
libFOX-1.6.so.0:_ZN2FX9FXListBox12onMouseWheelEPNS_8FXObjectEjPv
libFOX-1.6.so.0:_ZN2FX9FXListBox12setBackColorEj
libFOX-1.6.so.0:_ZN2FX9FXListBox12setTextColorEj
libFOX-1.6.so.0:_ZN2FX9FXListBox13onCmdSetValueEPNS_8FXObjectEjPv
libFOX-1.6.so.0:_ZN2FX9FXListBox13onFieldButtonEPNS_8FXObjectEjPv
libFOX-1.6.so.0:_ZN2FX9FXListBox13onListChangedEPNS_8FXObjectEjPv
libFOX-1.6.so.0:_ZN2FX9FXListBox13onListClickedEPNS_8FXObjectEjPv
libFOX-1.6.so.0:_ZN2FX9FXListBox13setNumVisibleEi
libFOX-1.6.so.0:_ZN2FX9FXListBox14setCurrentItemEih
libFOX-1.6.so.0:_ZN2FX9FXListBox15getDefaultWidthEv
libFOX-1.6.so.0:_ZN2FX9FXListBox15setSelBackColorEj
libFOX-1.6.so.0:_ZN2FX9FXListBox15setSelTextColorEj
libFOX-1.6.so.0:_ZN2FX9FXListBox16getDefaultHeightEv
libFOX-1.6.so.0:_ZN2FX9FXListBox16onCmdGetIntValueEPNS_8FXObjectEjPv
libFOX-1.6.so.0:_ZN2FX9FXListBox16onCmdSetIntValueEPNS_8FXObjectEjPv
libFOX-1.6.so.0:_ZN2FX9FXListBox4loadERNS_8FXStreamE
libFOX-1.6.so.0:_ZN2FX9FXListBox6createEv
libFOX-1.6.so.0:_ZN2FX9FXListBox6detachEv
libFOX-1.6.so.0:_ZN2FX9FXListBox6enableEv
libFOX-1.6.so.0:_ZN2FX9FXListBox6handleEPNS_8FXObjectEjPv
libFOX-1.6.so.0:_ZN2FX9FXListBox6layoutEv
libFOX-1.6.so.0:_ZN2FX9FXListBox7destroyEv
libFOX-1.6.so.0:_ZN2FX9FXListBox7disableEv
libFOX-1.6.so.0:_ZN2FX9FXListBox7setFontEPNS_6FXFontE
libFOX-1.6.so.0:_ZN2FX9FXListBox7setItemEiRKNS_8FXStringEPNS_6FXIconEPv
libFOX-1.6.so.0:_ZN2FX9FXListBox8moveItemEii
libFOX-1.6.so.0:_ZN2FX9FXListBox9fillItemsEPPKcPNS_6FXIconEPv
libFOX-1.6.so.0:_ZN2FX9FXListBox9fillItemsERKNS_8FXStringEPNS_6FXIconEPv
libFOX-1.6.so.0:_ZN2FX9FXListBox9onFocusUpEPNS_8FXObjectEjPv
libFOX-1.6.so.0:_ZN2FX9FXListBox9sortItemsEv
libFOX-1.6.so.0:_ZN2FX9FXListBoxC1EPNS_11FXCompositeEPNS_8FXObjectEjjiiiiiiii
libFOX-1.6.so.0:_ZN2FX9FXListBoxC2EPNS_11FXCompositeEPNS_8FXObjectEjjiiiiiiii
libFOX-1.6.so.0:_ZN2FX9FXListBoxD0Ev
libFOX-1.6.so.0:_ZN2FX9FXListBoxD1Ev
libFOX-1.6.so.0:_ZN2FX9FXListBoxD2Ev
libFOX-1.6.so.0:_ZN2FX9FXLongValERKNS_8FXStringEi
libFOX-1.6.so.0:_ZN2FX9FXMDIMenu11manufactureEv
libFOX-1.6.so.0:_ZN2FX9FXMDIMenu6handleEPNS_8FXObjectEjPv
libFOX-1.6.so.0:_ZN2FX9FXMDIMenuC1EPNS_8FXWindowEPNS_8FXObjectE
libFOX-1.6.so.0:_ZN2FX9FXMDIMenuC2EPNS_8FXWindowEPNS_8FXObjectE
libFOX-1.6.so.0:_ZN2FX9FXMDIMenuD0Ev
libFOX-1.6.so.0:_ZN2FX9FXMDIMenuD1Ev
libFOX-1.6.so.0:_ZN2FX9FXMDIMenuD2Ev
libFOX-1.6.so.0:_ZN2FX9FXMenuBar11manufactureEv
libFOX-1.6.so.0:_ZN2FX9FXMenuBar11onCmdUnpostEPNS_8FXObjectEjPv
libFOX-1.6.so.0:_ZN2FX9FXMenuBar11onFocusLeftEPNS_8FXObjectEjPv
libFOX-1.6.so.0:_ZN2FX9FXMenuBar12onFocusRightEPNS_8FXObjectEjPv
libFOX-1.6.so.0:_ZN2FX9FXMenuBar13onButtonPressEPNS_8FXObjectEjPv
libFOX-1.6.so.0:_ZN2FX9FXMenuBar15onButtonReleaseEPNS_8FXObjectEjPv
libFOX-1.6.so.0:_ZN2FX9FXMenuBar6handleEPNS_8FXObjectEjPv
libFOX-1.6.so.0:_ZN2FX9FXMenuBar7onEnterEPNS_8FXObjectEjPv
libFOX-1.6.so.0:_ZN2FX9FXMenuBar7onLeaveEPNS_8FXObjectEjPv
libFOX-1.6.so.0:_ZN2FX9FXMenuBar8onMotionEPNS_8FXObjectEjPv
libFOX-1.6.so.0:_ZN2FX9FXMenuBarC1EPNS_11FXCompositeES2_jiiiiiiiiii
libFOX-1.6.so.0:_ZN2FX9FXMenuBarC1EPNS_11FXCompositeEjiiiiiiiiii
libFOX-1.6.so.0:_ZN2FX9FXMenuBarC2EPNS_11FXCompositeES2_jiiiiiiiiii
libFOX-1.6.so.0:_ZN2FX9FXMenuBarC2EPNS_11FXCompositeEjiiiiiiiiii
libFOX-1.6.so.0:_ZN2FX9FXPCXIcon10loadPixelsERNS_8FXStreamE
libFOX-1.6.so.0:_ZN2FX9FXPCXIcon11manufactureEv
libFOX-1.6.so.0:_ZN2FX9FXPCXIcon6handleEPNS_8FXObjectEjPv
libFOX-1.6.so.0:_ZN2FX9FXPCXIconC1EPNS_5FXAppEPKvjjii
libFOX-1.6.so.0:_ZN2FX9FXPCXIconC2EPNS_5FXAppEPKvjjii
libFOX-1.6.so.0:_ZN2FX9FXPCXIconD0Ev
libFOX-1.6.so.0:_ZN2FX9FXPCXIconD1Ev
libFOX-1.6.so.0:_ZN2FX9FXPCXIconD2Ev
libFOX-1.6.so.0:_ZN2FX9FXPNGIcon10loadPixelsERNS_8FXStreamE
libFOX-1.6.so.0:_ZN2FX9FXPNGIcon11manufactureEv
libFOX-1.6.so.0:_ZN2FX9FXPNGIcon6handleEPNS_8FXObjectEjPv
libFOX-1.6.so.0:_ZN2FX9FXPNGIconC1EPNS_5FXAppEPKvjjii
libFOX-1.6.so.0:_ZN2FX9FXPNGIconC2EPNS_5FXAppEPKvjjii
libFOX-1.6.so.0:_ZN2FX9FXPNGIconD0Ev
libFOX-1.6.so.0:_ZN2FX9FXPNGIconD1Ev
libFOX-1.6.so.0:_ZN2FX9FXPNGIconD2Ev
libFOX-1.6.so.0:_ZN2FX9FXPPMIcon10loadPixelsERNS_8FXStreamE
libFOX-1.6.so.0:_ZN2FX9FXPPMIcon11manufactureEv
libFOX-1.6.so.0:_ZN2FX9FXPPMIcon6handleEPNS_8FXObjectEjPv
libFOX-1.6.so.0:_ZN2FX9FXPPMIconC1EPNS_5FXAppEPKvjjii
libFOX-1.6.so.0:_ZN2FX9FXPPMIconC2EPNS_5FXAppEPKvjjii
libFOX-1.6.so.0:_ZN2FX9FXPPMIconD0Ev
libFOX-1.6.so.0:_ZN2FX9FXPPMIconD1Ev
libFOX-1.6.so.0:_ZN2FX9FXPPMIconD2Ev
libFOX-1.6.so.0:_ZN2FX9FXRASIcon10loadPixelsERNS_8FXStreamE
libFOX-1.6.so.0:_ZN2FX9FXRASIcon11manufactureEv
libFOX-1.6.so.0:_ZN2FX9FXRASIcon6handleEPNS_8FXObjectEjPv
libFOX-1.6.so.0:_ZN2FX9FXRASIconC1EPNS_5FXAppEPKvjjii
libFOX-1.6.so.0:_ZN2FX9FXRASIconC2EPNS_5FXAppEPKvjjii
libFOX-1.6.so.0:_ZN2FX9FXRASIconD0Ev
libFOX-1.6.so.0:_ZN2FX9FXRASIconD1Ev
libFOX-1.6.so.0:_ZN2FX9FXRASIconD2Ev
libFOX-1.6.so.0:_ZN2FX9FXRGBIcon10loadPixelsERNS_8FXStreamE
libFOX-1.6.so.0:_ZN2FX9FXRGBIcon11manufactureEv
libFOX-1.6.so.0:_ZN2FX9FXRGBIcon6handleEPNS_8FXObjectEjPv
libFOX-1.6.so.0:_ZN2FX9FXRGBIconC1EPNS_5FXAppEPKvjjii
libFOX-1.6.so.0:_ZN2FX9FXRGBIconC2EPNS_5FXAppEPKvjjii
libFOX-1.6.so.0:_ZN2FX9FXRGBIconD0Ev
libFOX-1.6.so.0:_ZN2FX9FXRGBIconD1Ev
libFOX-1.6.so.0:_ZN2FX9FXRGBIconD2Ev
libFOX-1.6.so.0:_ZN2FX9FXShutter10onOpenItemEPNS_8FXObjectEjPv
libFOX-1.6.so.0:_ZN2FX9FXShutter10setCurrentEi
libFOX-1.6.so.0:_ZN2FX9FXShutter11manufactureEv
libFOX-1.6.so.0:_ZN2FX9FXShutter11onFocusDownEPNS_8FXObjectEjPv
libFOX-1.6.so.0:_ZN2FX9FXShutter13onCmdSetValueEPNS_8FXObjectEjPv
libFOX-1.6.so.0:_ZN2FX9FXShutter16onCmdGetIntValueEPNS_8FXObjectEjPv
libFOX-1.6.so.0:_ZN2FX9FXShutter16onCmdSetIntValueEPNS_8FXObjectEjPv
libFOX-1.6.so.0:_ZN2FX9FXShutter6handleEPNS_8FXObjectEjPv
libFOX-1.6.so.0:_ZN2FX9FXShutter6layoutEv
libFOX-1.6.so.0:_ZN2FX9FXShutter9onCmdOpenEPNS_8FXObjectEjPv
libFOX-1.6.so.0:_ZN2FX9FXShutter9onFocusUpEPNS_8FXObjectEjPv
libFOX-1.6.so.0:_ZN2FX9FXShutter9onTimeoutEPNS_8FXObjectEjPv
libFOX-1.6.so.0:_ZN2FX9FXShutter9onUpdOpenEPNS_8FXObjectEjPv
libFOX-1.6.so.0:_ZN2FX9FXShutterC1EPNS_11FXCompositeEPNS_8FXObjectEjjiiiiiiiiii
libFOX-1.6.so.0:_ZN2FX9FXShutterC2EPNS_11FXCompositeEPNS_8FXObjectEjjiiiiiiiiii
libFOX-1.6.so.0:_ZN2FX9FXShutterD0Ev
libFOX-1.6.so.0:_ZN2FX9FXShutterD1Ev
libFOX-1.6.so.0:_ZN2FX9FXShutterD2Ev
libFOX-1.6.so.0:_ZN2FX9FXSphered15includeInRadiusERKNS_7FXVec3dE
libFOX-1.6.so.0:_ZN2FX9FXSphered15includeInRadiusERKNS_8FXRangedE
libFOX-1.6.so.0:_ZN2FX9FXSphered15includeInRadiusERKS0_
libFOX-1.6.so.0:_ZN2FX9FXSphered15includeInRadiusEddd
libFOX-1.6.so.0:_ZN2FX9FXSphered7includeERKNS_7FXVec3dE
libFOX-1.6.so.0:_ZN2FX9FXSphered7includeERKNS_8FXRangedE
libFOX-1.6.so.0:_ZN2FX9FXSphered7includeERKS0_
libFOX-1.6.so.0:_ZN2FX9FXSphered7includeEddd
libFOX-1.6.so.0:_ZN2FX9FXSpheredC1ERKNS_8FXRangedE
libFOX-1.6.so.0:_ZN2FX9FXSpheredC2ERKNS_8FXRangedE
libFOX-1.6.so.0:_ZN2FX9FXSpheref15includeInRadiusERKNS_7FXVec3fE
libFOX-1.6.so.0:_ZN2FX9FXSpheref15includeInRadiusERKNS_8FXRangefE
libFOX-1.6.so.0:_ZN2FX9FXSpheref15includeInRadiusERKS0_
libFOX-1.6.so.0:_ZN2FX9FXSpheref15includeInRadiusEfff
libFOX-1.6.so.0:_ZN2FX9FXSpheref7includeERKNS_7FXVec3fE
libFOX-1.6.so.0:_ZN2FX9FXSpheref7includeERKNS_8FXRangefE
libFOX-1.6.so.0:_ZN2FX9FXSpheref7includeERKS0_
libFOX-1.6.so.0:_ZN2FX9FXSpheref7includeEfff
libFOX-1.6.so.0:_ZN2FX9FXSpherefC1ERKNS_8FXRangefE
libFOX-1.6.so.0:_ZN2FX9FXSpherefC2ERKNS_8FXRangefE
libFOX-1.6.so.0:_ZN2FX9FXSpinner10onChgEntryEPNS_8FXObjectEjPv
libFOX-1.6.so.0:_ZN2FX9FXSpinner10onCmdEntryEPNS_8FXObjectEjPv
libFOX-1.6.so.0:_ZN2FX9FXSpinner10onKeyPressEPNS_8FXObjectEjPv
libFOX-1.6.so.0:_ZN2FX9FXSpinner10setTipTextERKNS_8FXStringE
libFOX-1.6.so.0:_ZN2FX9FXSpinner11manufactureEv
libFOX-1.6.so.0:_ZN2FX9FXSpinner11onFocusSelfEPNS_8FXObjectEjPv
libFOX-1.6.so.0:_ZN2FX9FXSpinner11setEditableEh
libFOX-1.6.so.0:_ZN2FX9FXSpinner11setHelpTextERKNS_8FXStringE
libFOX-1.6.so.0:_ZN2FX9FXSpinner12onKeyReleaseEPNS_8FXObjectEjPv
libFOX-1.6.so.0:_ZN2FX9FXSpinner12onWheelEntryEPNS_8FXObjectEjPv
libFOX-1.6.so.0:_ZN2FX9FXSpinner12setIncrementEi
libFOX-1.6.so.0:_ZN2FX9FXSpinner12setTextColorEj
libFOX-1.6.so.0:_ZN2FX9FXSpinner13onCmdSetValueEPNS_8FXObjectEjPv
libFOX-1.6.so.0:_ZN2FX9FXSpinner13setNumColumnsEi
libFOX-1.6.so.0:_ZN2FX9FXSpinner14onCmdDecrementEPNS_8FXObjectEjPv
libFOX-1.6.so.0:_ZN2FX9FXSpinner14onCmdIncrementEPNS_8FXObjectEjPv
libFOX-1.6.so.0:_ZN2FX9FXSpinner14onUpdDecrementEPNS_8FXObjectEjPv
libFOX-1.6.so.0:_ZN2FX9FXSpinner14onUpdIncrementEPNS_8FXObjectEjPv
libFOX-1.6.so.0:_ZN2FX9FXSpinner14setCursorColorEj
libFOX-1.6.so.0:_ZN2FX9FXSpinner14setTextVisibleEh
libFOX-1.6.so.0:_ZN2FX9FXSpinner15getDefaultWidthEv
libFOX-1.6.so.0:_ZN2FX9FXSpinner15setSelBackColorEj
libFOX-1.6.so.0:_ZN2FX9FXSpinner15setSelTextColorEj
libFOX-1.6.so.0:_ZN2FX9FXSpinner15setSpinnerStyleEj
libFOX-1.6.so.0:_ZN2FX9FXSpinner15setUpArrowColorEj
libFOX-1.6.so.0:_ZN2FX9FXSpinner16getDefaultHeightEv
libFOX-1.6.so.0:_ZN2FX9FXSpinner16onCmdGetIntRangeEPNS_8FXObjectEjPv
libFOX-1.6.so.0:_ZN2FX9FXSpinner16onCmdGetIntValueEPNS_8FXObjectEjPv
libFOX-1.6.so.0:_ZN2FX9FXSpinner16onCmdSetIntRangeEPNS_8FXObjectEjPv
libFOX-1.6.so.0:_ZN2FX9FXSpinner16onCmdSetIntValueEPNS_8FXObjectEjPv
libFOX-1.6.so.0:_ZN2FX9FXSpinner17decrementByAmountEih
libFOX-1.6.so.0:_ZN2FX9FXSpinner17incrementByAmountEih
libFOX-1.6.so.0:_ZN2FX9FXSpinner17setDownArrowColorEj
libFOX-1.6.so.0:_ZN2FX9FXSpinner4loadERNS_8FXStreamE
libFOX-1.6.so.0:_ZN2FX9FXSpinner6enableEv
libFOX-1.6.so.0:_ZN2FX9FXSpinner6handleEPNS_8FXObjectEjPv
libFOX-1.6.so.0:_ZN2FX9FXSpinner6layoutEv
libFOX-1.6.so.0:_ZN2FX9FXSpinner7disableEv
libFOX-1.6.so.0:_ZN2FX9FXSpinner7setFontEPNS_6FXFontE
libFOX-1.6.so.0:_ZN2FX9FXSpinner8setRangeEiih
libFOX-1.6.so.0:_ZN2FX9FXSpinner8setValueEih
libFOX-1.6.so.0:_ZN2FX9FXSpinner9decrementEh
libFOX-1.6.so.0:_ZN2FX9FXSpinner9incrementEh
libFOX-1.6.so.0:_ZN2FX9FXSpinner9setCyclicEh
libFOX-1.6.so.0:_ZN2FX9FXSpinnerC1EPNS_11FXCompositeEiPNS_8FXObjectEjjiiiiiiii
libFOX-1.6.so.0:_ZN2FX9FXSpinnerC1Ev
libFOX-1.6.so.0:_ZN2FX9FXSpinnerC2EPNS_11FXCompositeEiPNS_8FXObjectEjjiiiiiiii
libFOX-1.6.so.0:_ZN2FX9FXSpinnerC2Ev
libFOX-1.6.so.0:_ZN2FX9FXSpinnerD0Ev
libFOX-1.6.so.0:_ZN2FX9FXSpinnerD1Ev
libFOX-1.6.so.0:_ZN2FX9FXSpinnerD2Ev
libFOX-1.6.so.0:_ZN2FX9FXTGAIcon10loadPixelsERNS_8FXStreamE
libFOX-1.6.so.0:_ZN2FX9FXTGAIcon11manufactureEv
libFOX-1.6.so.0:_ZN2FX9FXTGAIcon6handleEPNS_8FXObjectEjPv
libFOX-1.6.so.0:_ZN2FX9FXTGAIconC1EPNS_5FXAppEPKvjjii
libFOX-1.6.so.0:_ZN2FX9FXTGAIconC2EPNS_5FXAppEPKvjjii
libFOX-1.6.so.0:_ZN2FX9FXTGAIconD0Ev
libFOX-1.6.so.0:_ZN2FX9FXTGAIconD1Ev
libFOX-1.6.so.0:_ZN2FX9FXTGAIconD2Ev
libFOX-1.6.so.0:_ZN2FX9FXTIFIcon10loadPixelsERNS_8FXStreamE
libFOX-1.6.so.0:_ZN2FX9FXTIFIcon11manufactureEv
libFOX-1.6.so.0:_ZN2FX9FXTIFIcon6handleEPNS_8FXObjectEjPv
libFOX-1.6.so.0:_ZN2FX9FXTIFIconC1EPNS_5FXAppEPKvjjii
libFOX-1.6.so.0:_ZN2FX9FXTIFIconC2EPNS_5FXAppEPKvjjii
libFOX-1.6.so.0:_ZN2FX9FXTIFIconD0Ev
libFOX-1.6.so.0:_ZN2FX9FXTIFIconD1Ev
libFOX-1.6.so.0:_ZN2FX9FXTIFIconD2Ev
libFOX-1.6.so.0:_ZN2FX9FXTabBook11manufactureEv
libFOX-1.6.so.0:_ZN2FX9FXTabBook11onFocusDownEPNS_8FXObjectEjPv
libFOX-1.6.so.0:_ZN2FX9FXTabBook11onFocusLeftEPNS_8FXObjectEjPv
libFOX-1.6.so.0:_ZN2FX9FXTabBook11onFocusNextEPNS_8FXObjectEjPv
libFOX-1.6.so.0:_ZN2FX9FXTabBook11onFocusPrevEPNS_8FXObjectEjPv
libFOX-1.6.so.0:_ZN2FX9FXTabBook12onFocusRightEPNS_8FXObjectEjPv
libFOX-1.6.so.0:_ZN2FX9FXTabBook13onCmdOpenItemEPNS_8FXObjectEjPv
libFOX-1.6.so.0:_ZN2FX9FXTabBook15getDefaultWidthEv
libFOX-1.6.so.0:_ZN2FX9FXTabBook16getDefaultHeightEv
libFOX-1.6.so.0:_ZN2FX9FXTabBook6handleEPNS_8FXObjectEjPv
libFOX-1.6.so.0:_ZN2FX9FXTabBook6layoutEv
libFOX-1.6.so.0:_ZN2FX9FXTabBook7onPaintEPNS_8FXObjectEjPv
libFOX-1.6.so.0:_ZN2FX9FXTabBook9onFocusUpEPNS_8FXObjectEjPv
libFOX-1.6.so.0:_ZN2FX9FXTabBookC1EPNS_11FXCompositeEPNS_8FXObjectEjjiiiiiiii
libFOX-1.6.so.0:_ZN2FX9FXTabBookC2EPNS_11FXCompositeEPNS_8FXObjectEjjiiiiiiii
libFOX-1.6.so.0:_ZN2FX9FXTabItem10onFocusOutEPNS_8FXObjectEjPv
libFOX-1.6.so.0:_ZN2FX9FXTabItem10onKeyPressEPNS_8FXObjectEjPv
libFOX-1.6.so.0:_ZN2FX9FXTabItem11manufactureEv
libFOX-1.6.so.0:_ZN2FX9FXTabItem11onUngrabbedEPNS_8FXObjectEjPv
libFOX-1.6.so.0:_ZN2FX9FXTabItem12onKeyReleaseEPNS_8FXObjectEjPv
libFOX-1.6.so.0:_ZN2FX9FXTabItem13onHotKeyPressEPNS_8FXObjectEjPv
libFOX-1.6.so.0:_ZN2FX9FXTabItem14onLeftBtnPressEPNS_8FXObjectEjPv
libFOX-1.6.so.0:_ZN2FX9FXTabItem15onHotKeyReleaseEPNS_8FXObjectEjPv
libFOX-1.6.so.0:_ZN2FX9FXTabItem16onLeftBtnReleaseEPNS_8FXObjectEjPv
libFOX-1.6.so.0:_ZN2FX9FXTabItem17setTabOrientationEj
libFOX-1.6.so.0:_ZN2FX9FXTabItem6handleEPNS_8FXObjectEjPv
libFOX-1.6.so.0:_ZN2FX9FXTabItem7onPaintEPNS_8FXObjectEjPv
libFOX-1.6.so.0:_ZN2FX9FXTabItem9onFocusInEPNS_8FXObjectEjPv
libFOX-1.6.so.0:_ZN2FX9FXTabItemC1EPNS_8FXTabBarERKNS_8FXStringEPNS_6FXIconEjiiiiiiii
libFOX-1.6.so.0:_ZN2FX9FXTabItemC2EPNS_8FXTabBarERKNS_8FXStringEPNS_6FXIconEjiiiiiiii
libFOX-1.6.so.0:_ZN2FX9FXToolBar11manufactureEv
libFOX-1.6.so.0:_ZN2FX9FXToolBar13onCmdDockFlipEPNS_8FXObjectEjPv
libFOX-1.6.so.0:_ZN2FX9FXToolBar13onUpdDockFlipEPNS_8FXObjectEjPv
libFOX-1.6.so.0:_ZN2FX9FXToolBar14setDockingSideEj
libFOX-1.6.so.0:_ZN2FX9FXToolBar15getDefaultWidthEv
libFOX-1.6.so.0:_ZN2FX9FXToolBar16getDefaultHeightEv
libFOX-1.6.so.0:_ZN2FX9FXToolBar4dockEPNS_10FXDockSiteEPNS_8FXWindowEh
libFOX-1.6.so.0:_ZN2FX9FXToolBar4dockEPNS_10FXDockSiteEiih
libFOX-1.6.so.0:_ZN2FX9FXToolBar6handleEPNS_8FXObjectEjPv
libFOX-1.6.so.0:_ZN2FX9FXToolBar6layoutEv
libFOX-1.6.so.0:_ZN2FX9FXToolBarC1EPNS_11FXCompositeES2_jiiiiiiiiii
libFOX-1.6.so.0:_ZN2FX9FXToolBarC1EPNS_11FXCompositeEjiiiiiiiiii
libFOX-1.6.so.0:_ZN2FX9FXToolBarC2EPNS_11FXCompositeES2_jiiiiiiiiii
libFOX-1.6.so.0:_ZN2FX9FXToolBarC2EPNS_11FXCompositeEjiiiiiiiiii
libFOX-1.6.so.0:_ZN2FX9FXToolTip11manufactureEv
libFOX-1.6.so.0:_ZN2FX9FXToolTip12setTextColorEj
libFOX-1.6.so.0:_ZN2FX9FXToolTip15getDefaultWidthEv
libFOX-1.6.so.0:_ZN2FX9FXToolTip16getDefaultHeightEv
libFOX-1.6.so.0:_ZN2FX9FXToolTip19onCmdGetStringValueEPNS_8FXObjectEjPv
libFOX-1.6.so.0:_ZN2FX9FXToolTip19onCmdSetStringValueEPNS_8FXObjectEjPv
libFOX-1.6.so.0:_ZN2FX9FXToolTip4loadERNS_8FXStreamE
libFOX-1.6.so.0:_ZN2FX9FXToolTip4showEv
libFOX-1.6.so.0:_ZN2FX9FXToolTip5placeEii
libFOX-1.6.so.0:_ZN2FX9FXToolTip6createEv
libFOX-1.6.so.0:_ZN2FX9FXToolTip6detachEv
libFOX-1.6.so.0:_ZN2FX9FXToolTip6handleEPNS_8FXObjectEjPv
libFOX-1.6.so.0:_ZN2FX9FXToolTip7onPaintEPNS_8FXObjectEjPv
libFOX-1.6.so.0:_ZN2FX9FXToolTip7setFontEPNS_6FXFontE
libFOX-1.6.so.0:_ZN2FX9FXToolTip7setTextERKNS_8FXStringE
libFOX-1.6.so.0:_ZN2FX9FXToolTip8onUpdateEPNS_8FXObjectEjPv
libFOX-1.6.so.0:_ZN2FX9FXToolTip9autoplaceEv
libFOX-1.6.so.0:_ZN2FX9FXToolTip9onTipHideEPNS_8FXObjectEjPv
libFOX-1.6.so.0:_ZN2FX9FXToolTip9onTipShowEPNS_8FXObjectEjPv
libFOX-1.6.so.0:_ZN2FX9FXToolTipC1EPNS_5FXAppEjiiii
libFOX-1.6.so.0:_ZN2FX9FXToolTipC1Ev
libFOX-1.6.so.0:_ZN2FX9FXToolTipC2EPNS_5FXAppEjiiii
libFOX-1.6.so.0:_ZN2FX9FXToolTipC2Ev
libFOX-1.6.so.0:_ZN2FX9FXToolTipD0Ev
libFOX-1.6.so.0:_ZN2FX9FXToolTipD1Ev
libFOX-1.6.so.0:_ZN2FX9FXToolTipD2Ev
libFOX-1.6.so.0:_ZN2FX9FXUIntValERKNS_8FXStringEi
libFOX-1.6.so.0:_ZN2FX9FXXBMIcon10loadPixelsERNS_8FXStreamE
libFOX-1.6.so.0:_ZN2FX9FXXBMIcon11manufactureEv
libFOX-1.6.so.0:_ZN2FX9FXXBMIcon6handleEPNS_8FXObjectEjPv
libFOX-1.6.so.0:_ZN2FX9FXXBMIconC1EPNS_5FXAppEPKhS4_jjii
libFOX-1.6.so.0:_ZN2FX9FXXBMIconC2EPNS_5FXAppEPKhS4_jjii
libFOX-1.6.so.0:_ZN2FX9FXXBMIconD0Ev
libFOX-1.6.so.0:_ZN2FX9FXXBMIconD1Ev
libFOX-1.6.so.0:_ZN2FX9FXXBMIconD2Ev
libFOX-1.6.so.0:_ZN2FX9FXXPMIcon10loadPixelsERNS_8FXStreamE
libFOX-1.6.so.0:_ZN2FX9FXXPMIcon11manufactureEv
libFOX-1.6.so.0:_ZN2FX9FXXPMIcon6handleEPNS_8FXObjectEjPv
libFOX-1.6.so.0:_ZN2FX9FXXPMIconC1EPNS_5FXAppEPPKcjjii
libFOX-1.6.so.0:_ZN2FX9FXXPMIconC2EPNS_5FXAppEPPKcjjii
libFOX-1.6.so.0:_ZN2FX9FXXPMIconD0Ev
libFOX-1.6.so.0:_ZN2FX9FXXPMIconD1Ev
libFOX-1.6.so.0:_ZN2FX9FXXPMIconD2Ev
libFOX-1.6.so.0:_ZN2FX9decomposeERKNS_8FXStringEj
libFOX-1.6.so.0:_ZN2FX9dosToUnixERNS_8FXStringE
libFOX-1.6.so.0:_ZN2FX9fromAsciiERKNS_8FXStringE
libFOX-1.6.so.0:_ZN2FX9fxdllOpenEPKc
libFOX-1.6.so.0:_ZN2FX9fxfromDOSERPcRi
libFOX-1.6.so.0:_ZN2FX9fxloadBMPERNS_8FXStreamERPjRiS4_
libFOX-1.6.so.0:_ZN2FX9fxloadGIFERNS_8FXStreamERPjRiS4_
libFOX-1.6.so.0:_ZN2FX9fxloadICOERNS_8FXStreamERPjRiS4_S4_S4_
libFOX-1.6.so.0:_ZN2FX9fxloadIFFERNS_8FXStreamERPjRiS4_
libFOX-1.6.so.0:_ZN2FX9fxloadJPGERNS_8FXStreamERPjRiS4_S4_
libFOX-1.6.so.0:_ZN2FX9fxloadPCXERNS_8FXStreamERPjRiS4_
libFOX-1.6.so.0:_ZN2FX9fxloadPNGERNS_8FXStreamERPjRiS4_
libFOX-1.6.so.0:_ZN2FX9fxloadPPMERNS_8FXStreamERPjRiS4_
libFOX-1.6.so.0:_ZN2FX9fxloadRASERNS_8FXStreamERPjRiS4_
libFOX-1.6.so.0:_ZN2FX9fxloadRGBERNS_8FXStreamERPjRiS4_
libFOX-1.6.so.0:_ZN2FX9fxloadTGAERNS_8FXStreamERPjRiS4_
libFOX-1.6.so.0:_ZN2FX9fxloadTIFERNS_8FXStreamERPjRiS4_Rt
libFOX-1.6.so.0:_ZN2FX9fxloadXBMERNS_8FXStreamERPjRiS4_S4_S4_
libFOX-1.6.so.0:_ZN2FX9fxloadXBMERPjPKhS3_ii
libFOX-1.6.so.0:_ZN2FX9fxloadXPMEPPKcRPjRiS5_
libFOX-1.6.so.0:_ZN2FX9fxloadXPMERNS_8FXStreamERPjRiS4_
libFOX-1.6.so.0:_ZN2FX9fxmessageEPKcz
libFOX-1.6.so.0:_ZN2FX9fxsaveBMPERNS_8FXStreamEPKjii
libFOX-1.6.so.0:_ZN2FX9fxsaveGIFERNS_8FXStreamEPKjiib
libFOX-1.6.so.0:_ZN2FX9fxsaveICOERNS_8FXStreamEPKjiiii
libFOX-1.6.so.0:_ZN2FX9fxsaveJPGERNS_8FXStreamEPKjiii
libFOX-1.6.so.0:_ZN2FX9fxsavePCXERNS_8FXStreamEPKjii
libFOX-1.6.so.0:_ZN2FX9fxsavePNGERNS_8FXStreamEPKjii
libFOX-1.6.so.0:_ZN2FX9fxsavePPMERNS_8FXStreamEPKjii
libFOX-1.6.so.0:_ZN2FX9fxsaveRASERNS_8FXStreamEPKjii
libFOX-1.6.so.0:_ZN2FX9fxsaveRGBERNS_8FXStreamEPKjii
libFOX-1.6.so.0:_ZN2FX9fxsaveTGAERNS_8FXStreamEPKjii
libFOX-1.6.so.0:_ZN2FX9fxsaveTIFERNS_8FXStreamEPKjiit
libFOX-1.6.so.0:_ZN2FX9fxsaveXBMERNS_8FXStreamEPKjiiii
libFOX-1.6.so.0:_ZN2FX9fxsaveXPMERNS_8FXStreamEPKjiib
libFOX-1.6.so.0:_ZN2FX9fxstrhashEPKc
libFOX-1.6.so.0:_ZN2FX9fxwarningEPKcz
libFOX-1.6.so.0:_ZN2FX9intersectERKNS_8FXRangedES2_
libFOX-1.6.so.0:_ZN2FX9intersectERKNS_8FXRangefES2_
libFOX-1.6.so.0:_ZN2FX9intersectERKNS_9FXExtentdES2_
libFOX-1.6.so.0:_ZN2FX9intersectERKNS_9FXExtentfES2_
libFOX-1.6.so.0:_ZN2FX9normalizeERKNS_7FXVec2dE
libFOX-1.6.so.0:_ZN2FX9normalizeERKNS_7FXVec2fE
libFOX-1.6.so.0:_ZN2FX9normalizeERKNS_7FXVec3dE
libFOX-1.6.so.0:_ZN2FX9normalizeERKNS_7FXVec3fE
libFOX-1.6.so.0:_ZN2FX9normalizeERKNS_7FXVec4dE
libFOX-1.6.so.0:_ZN2FX9normalizeERKNS_7FXVec4fE
libFOX-1.6.so.0:_ZN2FX9normalizeERKNS_8FXStringE
libFOX-1.6.so.0:_ZN2FX9unixToDosERNS_8FXStringE
libFOX-1.6.so.0:_ZN2FXdvERKNS_7FXMat3dEd
libFOX-1.6.so.0:_ZN2FXdvERKNS_7FXMat3fEf
libFOX-1.6.so.0:_ZN2FXdvERKNS_7FXMat4dEd
libFOX-1.6.so.0:_ZN2FXdvERKNS_7FXMat4fEf
libFOX-1.6.so.0:_ZN2FXdvEdRKNS_7FXMat3dE
libFOX-1.6.so.0:_ZN2FXdvEdRKNS_7FXMat4dE
libFOX-1.6.so.0:_ZN2FXdvEfRKNS_7FXMat3fE
libFOX-1.6.so.0:_ZN2FXdvEfRKNS_7FXMat4fE
libFOX-1.6.so.0:_ZN2FXeqEPKcRKNS_8FXStringE
libFOX-1.6.so.0:_ZN2FXeqERKNS_8FXStringEPKc
libFOX-1.6.so.0:_ZN2FXeqERKNS_8FXStringES2_
libFOX-1.6.so.0:_ZN2FXgeEPKcRKNS_8FXStringE
libFOX-1.6.so.0:_ZN2FXgeERKNS_8FXStringEPKc
libFOX-1.6.so.0:_ZN2FXgeERKNS_8FXStringES2_
libFOX-1.6.so.0:_ZN2FXgtEPKcRKNS_8FXStringE
libFOX-1.6.so.0:_ZN2FXgtERKNS_8FXStringEPKc
libFOX-1.6.so.0:_ZN2FXgtERKNS_8FXStringES2_
libFOX-1.6.so.0:_ZN2FXleEPKcRKNS_8FXStringE
libFOX-1.6.so.0:_ZN2FXleERKNS_8FXStringEPKc
libFOX-1.6.so.0:_ZN2FXleERKNS_8FXStringES2_
libFOX-1.6.so.0:_ZN2FXlsERNS_8FXStreamERKNS_11FXRectangleE
libFOX-1.6.so.0:_ZN2FXlsERNS_8FXStreamERKNS_5FXRexE
libFOX-1.6.so.0:_ZN2FXlsERNS_8FXStreamERKNS_6FXDateE
libFOX-1.6.so.0:_ZN2FXlsERNS_8FXStreamERKNS_6FXSizeE
libFOX-1.6.so.0:_ZN2FXlsERNS_8FXStreamERKNS_7FXMat3dE
libFOX-1.6.so.0:_ZN2FXlsERNS_8FXStreamERKNS_7FXMat3fE
libFOX-1.6.so.0:_ZN2FXlsERNS_8FXStreamERKNS_7FXMat4dE
libFOX-1.6.so.0:_ZN2FXlsERNS_8FXStreamERKNS_7FXMat4fE
libFOX-1.6.so.0:_ZN2FXlsERNS_8FXStreamERKNS_7FXPointE
libFOX-1.6.so.0:_ZN2FXlsERNS_8FXStreamERKNS_7FXVec2dE
libFOX-1.6.so.0:_ZN2FXlsERNS_8FXStreamERKNS_7FXVec2fE
libFOX-1.6.so.0:_ZN2FXlsERNS_8FXStreamERKNS_7FXVec3dE
libFOX-1.6.so.0:_ZN2FXlsERNS_8FXStreamERKNS_7FXVec3fE
libFOX-1.6.so.0:_ZN2FXlsERNS_8FXStreamERKNS_7FXVec4dE
libFOX-1.6.so.0:_ZN2FXlsERNS_8FXStreamERKNS_7FXVec4fE
libFOX-1.6.so.0:_ZN2FXlsERNS_8FXStreamERKNS_8FXRangedE
libFOX-1.6.so.0:_ZN2FXlsERNS_8FXStreamERKNS_8FXRangefE
libFOX-1.6.so.0:_ZN2FXlsERNS_8FXStreamERKNS_8FXStringE
libFOX-1.6.so.0:_ZN2FXlsERNS_8FXStreamERKNS_9FXExtentdE
libFOX-1.6.so.0:_ZN2FXlsERNS_8FXStreamERKNS_9FXExtentfE
libFOX-1.6.so.0:_ZN2FXlsERNS_8FXStreamERKNS_9FXSpheredE
libFOX-1.6.so.0:_ZN2FXlsERNS_8FXStreamERKNS_9FXSpherefE
libFOX-1.6.so.0:_ZN2FXltEPKcRKNS_8FXStringE
libFOX-1.6.so.0:_ZN2FXltERKNS_8FXStringEPKc
libFOX-1.6.so.0:_ZN2FXltERKNS_8FXStringES2_
libFOX-1.6.so.0:_ZN2FXmlERKNS_7FXMat3dEd
libFOX-1.6.so.0:_ZN2FXmlERKNS_7FXMat3fEf
libFOX-1.6.so.0:_ZN2FXmlERKNS_7FXMat4dEd
libFOX-1.6.so.0:_ZN2FXmlERKNS_7FXMat4fEf
libFOX-1.6.so.0:_ZN2FXmlEdRKNS_7FXMat3dE
libFOX-1.6.so.0:_ZN2FXmlEdRKNS_7FXMat4dE
libFOX-1.6.so.0:_ZN2FXmlEfRKNS_7FXMat3fE
libFOX-1.6.so.0:_ZN2FXmlEfRKNS_7FXMat4fE
libFOX-1.6.so.0:_ZN2FXneEPKcRKNS_8FXStringE
libFOX-1.6.so.0:_ZN2FXneERKNS_8FXStringEPKc
libFOX-1.6.so.0:_ZN2FXneERKNS_8FXStringES2_
libFOX-1.6.so.0:_ZN2FXplEPKcRKNS_8FXStringE
libFOX-1.6.so.0:_ZN2FXplEPKtRKNS_8FXStringE
libFOX-1.6.so.0:_ZN2FXplEPKwRKNS_8FXStringE
libFOX-1.6.so.0:_ZN2FXplERKNS_8FXStringEPKc
libFOX-1.6.so.0:_ZN2FXplERKNS_8FXStringEPKt
libFOX-1.6.so.0:_ZN2FXplERKNS_8FXStringEPKw
libFOX-1.6.so.0:_ZN2FXplERKNS_8FXStringES2_
libFOX-1.6.so.0:_ZN2FXplERKNS_8FXStringEc
libFOX-1.6.so.0:_ZN2FXplEcRKNS_8FXStringE
libFOX-1.6.so.0:_ZN2FXrsERNS_8FXStreamERNS_11FXRectangleE
libFOX-1.6.so.0:_ZN2FXrsERNS_8FXStreamERNS_5FXRexE
libFOX-1.6.so.0:_ZN2FXrsERNS_8FXStreamERNS_6FXDateE
libFOX-1.6.so.0:_ZN2FXrsERNS_8FXStreamERNS_6FXSizeE
libFOX-1.6.so.0:_ZN2FXrsERNS_8FXStreamERNS_7FXMat3dE
libFOX-1.6.so.0:_ZN2FXrsERNS_8FXStreamERNS_7FXMat3fE
libFOX-1.6.so.0:_ZN2FXrsERNS_8FXStreamERNS_7FXMat4dE
libFOX-1.6.so.0:_ZN2FXrsERNS_8FXStreamERNS_7FXMat4fE
libFOX-1.6.so.0:_ZN2FXrsERNS_8FXStreamERNS_7FXPointE
libFOX-1.6.so.0:_ZN2FXrsERNS_8FXStreamERNS_7FXVec2dE
libFOX-1.6.so.0:_ZN2FXrsERNS_8FXStreamERNS_7FXVec2fE
libFOX-1.6.so.0:_ZN2FXrsERNS_8FXStreamERNS_7FXVec3dE
libFOX-1.6.so.0:_ZN2FXrsERNS_8FXStreamERNS_7FXVec3fE
libFOX-1.6.so.0:_ZN2FXrsERNS_8FXStreamERNS_7FXVec4dE
libFOX-1.6.so.0:_ZN2FXrsERNS_8FXStreamERNS_7FXVec4fE
libFOX-1.6.so.0:_ZN2FXrsERNS_8FXStreamERNS_8FXRangedE
libFOX-1.6.so.0:_ZN2FXrsERNS_8FXStreamERNS_8FXRangefE
libFOX-1.6.so.0:_ZN2FXrsERNS_8FXStreamERNS_8FXStringE
libFOX-1.6.so.0:_ZN2FXrsERNS_8FXStreamERNS_9FXExtentdE
libFOX-1.6.so.0:_ZN2FXrsERNS_8FXStreamERNS_9FXExtentfE
libFOX-1.6.so.0:_ZN2FXrsERNS_8FXStreamERNS_9FXSpheredE
libFOX-1.6.so.0:_ZN2FXrsERNS_8FXStreamERNS_9FXSpherefE
libFOX-1.6.so.0:_ZNK2FX10FX7Segment10getJustifyEv
libFOX-1.6.so.0:_ZNK2FX10FX7Segment16get7SegmentStyleEv
libFOX-1.6.so.0:_ZNK2FX10FX7Segment4saveERNS_8FXStreamE
libFOX-1.6.so.0:_ZNK2FX10FXBMPImage10savePixelsERNS_8FXStreamE
libFOX-1.6.so.0:_ZNK2FX10FXColorBar11getBarStyleEv
libFOX-1.6.so.0:_ZNK2FX10FXColorBar4saveERNS_8FXStreamE
libFOX-1.6.so.0:_ZNK2FX10FXComboBox10getJustifyEv
libFOX-1.6.so.0:_ZNK2FX10FXComboBox10getTipTextEv
libFOX-1.6.so.0:_ZNK2FX10FXComboBox10isEditableEv
libFOX-1.6.so.0:_ZNK2FX10FXComboBox11getHelpTextEv
libFOX-1.6.so.0:_ZNK2FX10FXComboBox11getItemDataEi
libFOX-1.6.so.0:_ZNK2FX10FXComboBox11getItemTextEi
libFOX-1.6.so.0:_ZNK2FX10FXComboBox11getNumItemsEv
libFOX-1.6.so.0:_ZNK2FX10FXComboBox11getSortFuncEv
libFOX-1.6.so.0:_ZNK2FX10FXComboBox11isPaneShownEv
libFOX-1.6.so.0:_ZNK2FX10FXComboBox11setItemDataEiPv
libFOX-1.6.so.0:_ZNK2FX10FXComboBox12getBackColorEv
libFOX-1.6.so.0:_ZNK2FX10FXComboBox12getTextColorEv
libFOX-1.6.so.0:_ZNK2FX10FXComboBox13getComboStyleEv
libFOX-1.6.so.0:_ZNK2FX10FXComboBox13getNumColumnsEv
libFOX-1.6.so.0:_ZNK2FX10FXComboBox13getNumVisibleEv
libFOX-1.6.so.0:_ZNK2FX10FXComboBox13isItemCurrentEi
libFOX-1.6.so.0:_ZNK2FX10FXComboBox14findItemByDataEPKvij
libFOX-1.6.so.0:_ZNK2FX10FXComboBox14getCurrentItemEv
libFOX-1.6.so.0:_ZNK2FX10FXComboBox15getSelBackColorEv
libFOX-1.6.so.0:_ZNK2FX10FXComboBox15getSelTextColorEv
libFOX-1.6.so.0:_ZNK2FX10FXComboBox4saveERNS_8FXStreamE
libFOX-1.6.so.0:_ZNK2FX10FXComboBox7getFontEv
libFOX-1.6.so.0:_ZNK2FX10FXComboBox7getItemEi
libFOX-1.6.so.0:_ZNK2FX10FXComboBox7getTextEv
libFOX-1.6.so.0:_ZNK2FX10FXComboBox8findItemERKNS_8FXStringEij
libFOX-1.6.so.0:_ZNK2FX10FXDockSite11galleyWidthEPNS_8FXWindowERS2_iRiS4_
libFOX-1.6.so.0:_ZNK2FX10FXDockSite11wrapGalleysEv
libFOX-1.6.so.0:_ZNK2FX10FXDockSite12galleyHeightEPNS_8FXWindowERS2_iRiS4_
libFOX-1.6.so.0:_ZNK2FX10FXDocument4saveERNS_8FXStreamE
libFOX-1.6.so.0:_ZNK2FX10FXDrawable4saveERNS_8FXStreamE
libFOX-1.6.so.0:_ZNK2FX10FXDriveBox4saveERNS_8FXStreamE
libFOX-1.6.so.0:_ZNK2FX10FXDriveBox8getDriveEv
libFOX-1.6.so.0:_ZNK2FX10FXFileDict11getIconPathEv
libFOX-1.6.so.0:_ZNK2FX10FXFileDict4saveERNS_8FXStreamE
libFOX-1.6.so.0:_ZNK2FX10FXFileList10isItemFileEi
libFOX-1.6.so.0:_ZNK2FX10FXFileList10showImagesEv
libFOX-1.6.so.0:_ZNK2FX10FXFileList11isItemShareEi
libFOX-1.6.so.0:_ZNK2FX10FXFileList11showParentsEv
libFOX-1.6.so.0:_ZNK2FX10FXFileList12getItemAssocEi
libFOX-1.6.so.0:_ZNK2FX10FXFileList13showOnlyFilesEv
libFOX-1.6.so.0:_ZNK2FX10FXFileList14getCurrentFileEv
libFOX-1.6.so.0:_ZNK2FX10FXFileList15getItemFilenameEi
libFOX-1.6.so.0:_ZNK2FX10FXFileList15getItemPathnameEi
libFOX-1.6.so.0:_ZNK2FX10FXFileList15isItemDirectoryEi
libFOX-1.6.so.0:_ZNK2FX10FXFileList15showHiddenFilesEv
libFOX-1.6.so.0:_ZNK2FX10FXFileList16isItemExecutableEi
libFOX-1.6.so.0:_ZNK2FX10FXFileList19showOnlyDirectoriesEv
libFOX-1.6.so.0:_ZNK2FX10FXFileList4saveERNS_8FXStreamE
libFOX-1.6.so.0:_ZNK2FX10FXGIFImage10savePixelsERNS_8FXStreamE
libFOX-1.6.so.0:_ZNK2FX10FXGLCanvas4saveERNS_8FXStreamE
libFOX-1.6.so.0:_ZNK2FX10FXGLCanvas8isSharedEv
libFOX-1.6.so.0:_ZNK2FX10FXGLCanvas9isCurrentEv
libFOX-1.6.so.0:_ZNK2FX10FXGLObject7canDragEv
libFOX-1.6.so.0:_ZNK2FX10FXGLObject9canDeleteEv
libFOX-1.6.so.0:_ZNK2FX10FXGLSphere4saveERNS_8FXStreamE
libFOX-1.6.so.0:_ZNK2FX10FXGLViewer11getMaterialERNS_10FXMaterialE
libFOX-1.6.so.0:_ZNK2FX10FXGLViewer11getViewportERNS_10FXViewportE
libFOX-1.6.so.0:_ZNK2FX10FXGLViewer12getEyeVectorEv
libFOX-1.6.so.0:_ZNK2FX10FXGLViewer14getEyePositionEv
libFOX-1.6.so.0:_ZNK2FX10FXGLViewer4saveERNS_8FXStreamE
libFOX-1.6.so.0:_ZNK2FX10FXGLViewer8getLightERNS_7FXLightE
libFOX-1.6.so.0:_ZNK2FX10FXGLVisual13isAcceleratedEv
libFOX-1.6.so.0:_ZNK2FX10FXGLVisual14isDoubleBufferEv
libFOX-1.6.so.0:_ZNK2FX10FXGLVisual16getActualRedSizeEv
libFOX-1.6.so.0:_ZNK2FX10FXGLVisual16isBufferSwapCopyEv
libFOX-1.6.so.0:_ZNK2FX10FXGLVisual17getActualBlueSizeEv
libFOX-1.6.so.0:_ZNK2FX10FXGLVisual18getActualAlphaSizeEv
libFOX-1.6.so.0:_ZNK2FX10FXGLVisual18getActualDepthSizeEv
libFOX-1.6.so.0:_ZNK2FX10FXGLVisual18getActualGreenSizeEv
libFOX-1.6.so.0:_ZNK2FX10FXGLVisual20getActualStencilSizeEv
libFOX-1.6.so.0:_ZNK2FX10FXGLVisual21getActualAccumRedSizeEv
libFOX-1.6.so.0:_ZNK2FX10FXGLVisual22getActualAccumBlueSizeEv
libFOX-1.6.so.0:_ZNK2FX10FXGLVisual23getActualAccumAlphaSizeEv
libFOX-1.6.so.0:_ZNK2FX10FXGLVisual23getActualAccumGreenSizeEv
libFOX-1.6.so.0:_ZNK2FX10FXGLVisual4saveERNS_8FXStreamE
libFOX-1.6.so.0:_ZNK2FX10FXGLVisual8isStereoEv
libFOX-1.6.so.0:_ZNK2FX10FXGroupBox16getGroupBoxStyleEv
libFOX-1.6.so.0:_ZNK2FX10FXGroupBox4saveERNS_8FXStreamE
libFOX-1.6.so.0:_ZNK2FX10FXICOImage10savePixelsERNS_8FXStreamE
libFOX-1.6.so.0:_ZNK2FX10FXIFFImage10savePixelsERNS_8FXStreamE
libFOX-1.6.so.0:_ZNK2FX10FXIconDict4saveERNS_8FXStreamE
libFOX-1.6.so.0:_ZNK2FX10FXIconItem11drawBigIconEPKNS_10FXIconListERNS_4FXDCEiiii
libFOX-1.6.so.0:_ZNK2FX10FXIconItem11drawDetailsEPKNS_10FXIconListERNS_4FXDCEiiii
libFOX-1.6.so.0:_ZNK2FX10FXIconItem12drawMiniIconEPKNS_10FXIconListERNS_4FXDCEiiii
libFOX-1.6.so.0:_ZNK2FX10FXIconItem4drawEPKNS_10FXIconListERNS_4FXDCEiiii
libFOX-1.6.so.0:_ZNK2FX10FXIconItem4saveERNS_8FXStreamE
libFOX-1.6.so.0:_ZNK2FX10FXIconItem7hitItemEPKNS_10FXIconListEiiii
libFOX-1.6.so.0:_ZNK2FX10FXIconItem8getWidthEPKNS_10FXIconListE
libFOX-1.6.so.0:_ZNK2FX10FXIconItem9getHeightEPKNS_10FXIconListE
libFOX-1.6.so.0:_ZNK2FX10FXIconList10updateItemEi
libFOX-1.6.so.0:_ZNK2FX10FXIconList11getItemDataEi
libFOX-1.6.so.0:_ZNK2FX10FXIconList11getItemTextEi
libFOX-1.6.so.0:_ZNK2FX10FXIconList11getrowscolsERiS1_ii
libFOX-1.6.so.0:_ZNK2FX10FXIconList12getListStyleEv
libFOX-1.6.so.0:_ZNK2FX10FXIconList13getHeaderIconEi
libFOX-1.6.so.0:_ZNK2FX10FXIconList13getHeaderSizeEi
libFOX-1.6.so.0:_ZNK2FX10FXIconList13getHeaderTextEi
libFOX-1.6.so.0:_ZNK2FX10FXIconList13getNumHeadersEv
libFOX-1.6.so.0:_ZNK2FX10FXIconList13isItemCurrentEi
libFOX-1.6.so.0:_ZNK2FX10FXIconList13isItemEnabledEi
libFOX-1.6.so.0:_ZNK2FX10FXIconList13isItemVisibleEi
libFOX-1.6.so.0:_ZNK2FX10FXIconList14findItemByDataEPKvij
libFOX-1.6.so.0:_ZNK2FX10FXIconList14getItemBigIconEi
libFOX-1.6.so.0:_ZNK2FX10FXIconList14isItemSelectedEi
libFOX-1.6.so.0:_ZNK2FX10FXIconList15getItemMiniIconEi
libFOX-1.6.so.0:_ZNK2FX10FXIconList4saveERNS_8FXStreamE
libFOX-1.6.so.0:_ZNK2FX10FXIconList7getItemEi
libFOX-1.6.so.0:_ZNK2FX10FXIconList7hitItemEiiiii
libFOX-1.6.so.0:_ZNK2FX10FXIconList8canFocusEv
libFOX-1.6.so.0:_ZNK2FX10FXIconList8findItemERKNS_8FXStringEij
libFOX-1.6.so.0:_ZNK2FX10FXIconList9getItemAtEii
libFOX-1.6.so.0:_ZNK2FX10FXJPGImage10savePixelsERNS_8FXStreamE
libFOX-1.6.so.0:_ZNK2FX10FXListItem4saveERNS_8FXStreamE
libFOX-1.6.so.0:_ZNK2FX10FXListItem7hitItemEPKNS_6FXListEii
libFOX-1.6.so.0:_ZNK2FX10FXListItem8getWidthEPKNS_6FXListE
libFOX-1.6.so.0:_ZNK2FX10FXListItem9getHeightEPKNS_6FXListE
libFOX-1.6.so.0:_ZNK2FX10FXMDIChild11getTrackingEv
libFOX-1.6.so.0:_ZNK2FX10FXMDIChild11isMaximizedEv
libFOX-1.6.so.0:_ZNK2FX10FXMDIChild11isMinimizedEv
libFOX-1.6.so.0:_ZNK2FX10FXMDIChild13contentWindowEv
libFOX-1.6.so.0:_ZNK2FX10FXMDIChild4saveERNS_8FXStreamE
libFOX-1.6.so.0:_ZNK2FX10FXMDIChild7getIconEv
libFOX-1.6.so.0:_ZNK2FX10FXMDIChild7getMenuEv
libFOX-1.6.so.0:_ZNK2FX10FXMDIChild8canFocusEv
libFOX-1.6.so.0:_ZNK2FX10FXMenuPane8containsEii
libFOX-1.6.so.0:_ZNK2FX10FXPCXImage10savePixelsERNS_8FXStreamE
libFOX-1.6.so.0:_ZNK2FX10FXPNGImage10savePixelsERNS_8FXStreamE
libFOX-1.6.so.0:_ZNK2FX10FXPPMImage10savePixelsERNS_8FXStreamE
libFOX-1.6.so.0:_ZNK2FX10FXRASImage10savePixelsERNS_8FXStreamE
libFOX-1.6.so.0:_ZNK2FX10FXRGBImage10savePixelsERNS_8FXStreamE
libFOX-1.6.so.0:_ZNK2FX10FXSettings7dequoteEPc
libFOX-1.6.so.0:_ZNK2FX10FXSplitter16getSplitterStyleEv
libFOX-1.6.so.0:_ZNK2FX10FXSplitter4saveERNS_8FXStreamE
libFOX-1.6.so.0:_ZNK2FX10FXSplitter8getSplitEi
libFOX-1.6.so.0:_ZNK2FX10FXSwitcher16getSwitcherStyleEv
libFOX-1.6.so.0:_ZNK2FX10FXSwitcher4saveERNS_8FXStreamE
libFOX-1.6.so.0:_ZNK2FX10FXTGAImage10savePixelsERNS_8FXStreamE
libFOX-1.6.so.0:_ZNK2FX10FXTIFImage10savePixelsERNS_8FXStreamE
libFOX-1.6.so.0:_ZNK2FX10FXTreeItem10isParentOfEPKS0_
libFOX-1.6.so.0:_ZNK2FX10FXTreeItem14getNumChildrenEv
libFOX-1.6.so.0:_ZNK2FX10FXTreeItem4drawEPKNS_10FXTreeListERNS_4FXDCEiiii
libFOX-1.6.so.0:_ZNK2FX10FXTreeItem4saveERNS_8FXStreamE
libFOX-1.6.so.0:_ZNK2FX10FXTreeItem7hitItemEPKNS_10FXTreeListEii
libFOX-1.6.so.0:_ZNK2FX10FXTreeItem8getAboveEv
libFOX-1.6.so.0:_ZNK2FX10FXTreeItem8getBelowEv
libFOX-1.6.so.0:_ZNK2FX10FXTreeItem8getWidthEPKNS_10FXTreeListE
libFOX-1.6.so.0:_ZNK2FX10FXTreeItem9getHeightEPKNS_10FXTreeListE
libFOX-1.6.so.0:_ZNK2FX10FXTreeItem9isChildOfEPKS0_
libFOX-1.6.so.0:_ZNK2FX10FXTreeList10isItemLeafEPKNS_10FXTreeItemE
libFOX-1.6.so.0:_ZNK2FX10FXTreeList10updateItemEPNS_10FXTreeItemE
libFOX-1.6.so.0:_ZNK2FX10FXTreeList11getItemDataEPKNS_10FXTreeItemE
libFOX-1.6.so.0:_ZNK2FX10FXTreeList11getItemTextEPKNS_10FXTreeItemE
libFOX-1.6.so.0:_ZNK2FX10FXTreeList11getNumItemsEv
libFOX-1.6.so.0:_ZNK2FX10FXTreeList11setItemDataEPNS_10FXTreeItemEPv
libFOX-1.6.so.0:_ZNK2FX10FXTreeList12getListStyleEv
libFOX-1.6.so.0:_ZNK2FX10FXTreeList12isItemOpenedEPKNS_10FXTreeItemE
libFOX-1.6.so.0:_ZNK2FX10FXTreeList13isItemCurrentEPKNS_10FXTreeItemE
libFOX-1.6.so.0:_ZNK2FX10FXTreeList13isItemEnabledEPKNS_10FXTreeItemE
libFOX-1.6.so.0:_ZNK2FX10FXTreeList13isItemVisibleEPKNS_10FXTreeItemE
libFOX-1.6.so.0:_ZNK2FX10FXTreeList14findItemByDataEPKvPNS_10FXTreeItemEj
libFOX-1.6.so.0:_ZNK2FX10FXTreeList14isItemExpandedEPKNS_10FXTreeItemE
libFOX-1.6.so.0:_ZNK2FX10FXTreeList14isItemSelectedEPKNS_10FXTreeItemE
libFOX-1.6.so.0:_ZNK2FX10FXTreeList15getItemOpenIconEPKNS_10FXTreeItemE
libFOX-1.6.so.0:_ZNK2FX10FXTreeList17getItemClosedIconEPKNS_10FXTreeItemE
libFOX-1.6.so.0:_ZNK2FX10FXTreeList4saveERNS_8FXStreamE
libFOX-1.6.so.0:_ZNK2FX10FXTreeList7hitItemEPKNS_10FXTreeItemEii
libFOX-1.6.so.0:_ZNK2FX10FXTreeList8canFocusEv
libFOX-1.6.so.0:_ZNK2FX10FXTreeList8findItemERKNS_8FXStringEPNS_10FXTreeItemEj
libFOX-1.6.so.0:_ZNK2FX10FXTreeList9getItemAtEii
libFOX-1.6.so.0:_ZNK2FX10FXUndoList4sizeEv
libFOX-1.6.so.0:_ZNK2FX10FXUndoList6markedEv
libFOX-1.6.so.0:_ZNK2FX10FXUndoList7canRedoEv
libFOX-1.6.so.0:_ZNK2FX10FXUndoList7canUndoEv
libFOX-1.6.so.0:_ZNK2FX10FXUndoList8redoNameEv
libFOX-1.6.so.0:_ZNK2FX10FXUndoList8undoNameEv
libFOX-1.6.so.0:_ZNK2FX10FXUndoList9canRevertEv
libFOX-1.6.so.0:_ZNK2FX10FXXBMImage10savePixelsERNS_8FXStreamE
libFOX-1.6.so.0:_ZNK2FX10FXXPMImage10savePixelsERNS_8FXStreamE
libFOX-1.6.so.0:_ZNK2FX11FX4Splitter10getTopLeftEv
libFOX-1.6.so.0:_ZNK2FX11FX4Splitter11getExpandedEv
libFOX-1.6.so.0:_ZNK2FX11FX4Splitter11getTopRightEv
libFOX-1.6.so.0:_ZNK2FX11FX4Splitter13getBottomLeftEv
libFOX-1.6.so.0:_ZNK2FX11FX4Splitter14getBottomRightEv
libFOX-1.6.so.0:_ZNK2FX11FX4Splitter16getSplitterStyleEv
libFOX-1.6.so.0:_ZNK2FX11FX4Splitter4saveERNS_8FXStreamE
libFOX-1.6.so.0:_ZNK2FX11FXCURCursor10savePixelsERNS_8FXStreamE
libFOX-1.6.so.0:_ZNK2FX11FXChoiceBox4saveERNS_8FXStreamE
libFOX-1.6.so.0:_ZNK2FX11FXColorItem7hitItemEPKNS_6FXListEii
libFOX-1.6.so.0:_ZNK2FX11FXColorItem8getWidthEPKNS_6FXListE
libFOX-1.6.so.0:_ZNK2FX11FXColorItem9getHeightEPKNS_6FXListE
libFOX-1.6.so.0:_ZNK2FX11FXColorList12getItemColorEi
libFOX-1.6.so.0:_ZNK2FX11FXColorRing10inTriangleEii
libFOX-1.6.so.0:_ZNK2FX11FXColorRing10satValToXYERiS1_ff
libFOX-1.6.so.0:_ZNK2FX11FXColorRing12satValFromXYERfS1_ii
libFOX-1.6.so.0:_ZNK2FX11FXColorRing4saveERNS_8FXStreamE
libFOX-1.6.so.0:_ZNK2FX11FXColorRing7hueToXYERiS1_f
libFOX-1.6.so.0:_ZNK2FX11FXColorRing8inCornerEii
libFOX-1.6.so.0:_ZNK2FX11FXColorRing9hueFromXYEii
libFOX-1.6.so.0:_ZNK2FX11FXColorRing9inHueRingEii
libFOX-1.6.so.0:_ZNK2FX11FXColorWell12isOpaqueOnlyEv
libFOX-1.6.so.0:_ZNK2FX11FXColorWell4saveERNS_8FXStreamE
libFOX-1.6.so.0:_ZNK2FX11FXColorWell8canFocusEv
libFOX-1.6.so.0:_ZNK2FX11FXComposite11isCompositeEv
libFOX-1.6.so.0:_ZNK2FX11FXComposite13maxChildWidthEv
libFOX-1.6.so.0:_ZNK2FX11FXComposite14maxChildHeightEv
libFOX-1.6.so.0:_ZNK2FX11FXDirDialog12getDirectoryEv
libFOX-1.6.so.0:_ZNK2FX11FXDirDialog12getMatchModeEv
libFOX-1.6.so.0:_ZNK2FX11FXDirDialog14getDirBoxStyleEv
libFOX-1.6.so.0:_ZNK2FX11FXDirDialog15showHiddenFilesEv
libFOX-1.6.so.0:_ZNK2FX11FXDirDialog4saveERNS_8FXStreamE
libFOX-1.6.so.0:_ZNK2FX11FXDirDialog9showFilesEv
libFOX-1.6.so.0:_ZNK2FX11FXDockTitle10getJustifyEv
libFOX-1.6.so.0:_ZNK2FX11FXDockTitle4saveERNS_8FXStreamE
libFOX-1.6.so.0:_ZNK2FX11FXGIFCursor10savePixelsERNS_8FXStreamE
libFOX-1.6.so.0:_ZNK2FX11FXGLContext4saveERNS_8FXStreamE
libFOX-1.6.so.0:_ZNK2FX11FXGLContext8isSharedEv
libFOX-1.6.so.0:_ZNK2FX11FXImageView12getAlignmentEv
libFOX-1.6.so.0:_ZNK2FX11FXImageView4saveERNS_8FXStreamE
libFOX-1.6.so.0:_ZNK2FX11FXImageView8canFocusEv
libFOX-1.6.so.0:_ZNK2FX11FXMDIClient4saveERNS_8FXStreamE
libFOX-1.6.so.0:_ZNK2FX11FXMenuCheck4saveERNS_8FXStreamE
libFOX-1.6.so.0:_ZNK2FX11FXMenuRadio4saveERNS_8FXStreamE
libFOX-1.6.so.0:_ZNK2FX11FXMenuTitle4saveERNS_8FXStreamE
libFOX-1.6.so.0:_ZNK2FX11FXMenuTitle8canFocusEv
libFOX-1.6.so.0:_ZNK2FX11FXMenuTitle8containsEii
libFOX-1.6.so.0:_ZNK2FX11FXMetaClass12isSubClassOfEPKS0_
libFOX-1.6.so.0:_ZNK2FX11FXMetaClass12makeInstanceEv
libFOX-1.6.so.0:_ZNK2FX11FXMetaClass6searchEj
libFOX-1.6.so.0:_ZNK2FX11FXRectanglemlERKS0_
libFOX-1.6.so.0:_ZNK2FX11FXRectangleplERKS0_
libFOX-1.6.so.0:_ZNK2FX11FXRulerView12getArrowPosXEv
libFOX-1.6.so.0:_ZNK2FX11FXRulerView12getArrowPosYEv
libFOX-1.6.so.0:_ZNK2FX11FXRulerView12getDocumentXEv
libFOX-1.6.so.0:_ZNK2FX11FXRulerView12getDocumentYEv
libFOX-1.6.so.0:_ZNK2FX11FXRulerView13getHAlignmentEv
libFOX-1.6.so.0:_ZNK2FX11FXRulerView13getHRulerFontEv
libFOX-1.6.so.0:_ZNK2FX11FXRulerView13getHTinyTicksEv
libFOX-1.6.so.0:_ZNK2FX11FXRulerView13getVAlignmentEv
libFOX-1.6.so.0:_ZNK2FX11FXRulerView13getVRulerFontEv
libFOX-1.6.so.0:_ZNK2FX11FXRulerView13getVTinyTicksEv
libFOX-1.6.so.0:_ZNK2FX11FXRulerView14getHMajorTicksEv
libFOX-1.6.so.0:_ZNK2FX11FXRulerView14getHRulerStyleEv
libFOX-1.6.so.0:_ZNK2FX11FXRulerView14getVMajorTicksEv
libFOX-1.6.so.0:_ZNK2FX11FXRulerView14getVRulerStyleEv
libFOX-1.6.so.0:_ZNK2FX11FXRulerView15getHEdgeSpacingEv
libFOX-1.6.so.0:_ZNK2FX11FXRulerView15getHMarginLowerEv
libFOX-1.6.so.0:_ZNK2FX11FXRulerView15getHMarginUpperEv
libFOX-1.6.so.0:_ZNK2FX11FXRulerView15getHMediumTicksEv
libFOX-1.6.so.0:_ZNK2FX11FXRulerView15getHNumberTicksEv
libFOX-1.6.so.0:_ZNK2FX11FXRulerView15getVEdgeSpacingEv
libFOX-1.6.so.0:_ZNK2FX11FXRulerView15getVMarginLowerEv
libFOX-1.6.so.0:_ZNK2FX11FXRulerView15getVMarginUpperEv
libFOX-1.6.so.0:_ZNK2FX11FXRulerView15getVMediumTicksEv
libFOX-1.6.so.0:_ZNK2FX11FXRulerView15getVNumberTicksEv
libFOX-1.6.so.0:_ZNK2FX11FXRulerView16getDocumentWidthEv
libFOX-1.6.so.0:_ZNK2FX11FXRulerView16getHPixelPerTickEv
libFOX-1.6.so.0:_ZNK2FX11FXRulerView16getVPixelPerTickEv
libFOX-1.6.so.0:_ZNK2FX11FXRulerView17getDocumentHeightEv
libFOX-1.6.so.0:_ZNK2FX11FXRulerView4saveERNS_8FXStreamE
libFOX-1.6.so.0:_ZNK2FX11FXScrollBar17getScrollBarStyleEv
libFOX-1.6.so.0:_ZNK2FX11FXScrollBar4saveERNS_8FXStreamE
libFOX-1.6.so.0:_ZNK2FX11FXSeparator17getSeparatorStyleEv
libFOX-1.6.so.0:_ZNK2FX11FXStatusBar14getCornerStyleEv
libFOX-1.6.so.0:_ZNK2FX11FXStatusBar4saveERNS_8FXStreamE
libFOX-1.6.so.0:_ZNK2FX11FXTableItem10getStippleEv
libFOX-1.6.so.0:_ZNK2FX11FXTableItem11drawBordersEPKNS_7FXTableERNS_4FXDCEiiii
libFOX-1.6.so.0:_ZNK2FX11FXTableItem11drawContentEPKNS_7FXTableERNS_4FXDCEiiii
libFOX-1.6.so.0:_ZNK2FX11FXTableItem11drawPatternEPKNS_7FXTableERNS_4FXDCEiiii
libFOX-1.6.so.0:_ZNK2FX11FXTableItem14drawBackgroundEPKNS_7FXTableERNS_4FXDCEiiii
libFOX-1.6.so.0:_ZNK2FX11FXTableItem4drawEPKNS_7FXTableERNS_4FXDCEiiii
libFOX-1.6.so.0:_ZNK2FX11FXTableItem4saveERNS_8FXStreamE
libFOX-1.6.so.0:_ZNK2FX11FXTableItem8getWidthEPKNS_7FXTableE
libFOX-1.6.so.0:_ZNK2FX11FXTableItem9getHeightEPKNS_7FXTableE
libFOX-1.6.so.0:_ZNK2FX11FXTextCodec5mb2wcERwPKci
libFOX-1.6.so.0:_ZNK2FX11FXTextCodec5wc2mbEPciw
libFOX-1.6.so.0:_ZNK2FX11FXTextCodec6mb2utfEPKc
libFOX-1.6.so.0:_ZNK2FX11FXTextCodec6mb2utfEPKci
libFOX-1.6.so.0:_ZNK2FX11FXTextCodec6mb2utfEPciPKc
libFOX-1.6.so.0:_ZNK2FX11FXTextCodec6mb2utfEPciPKci
libFOX-1.6.so.0:_ZNK2FX11FXTextCodec6mb2utfEPciRKNS_8FXStringE
libFOX-1.6.so.0:_ZNK2FX11FXTextCodec6mb2utfERKNS_8FXStringE
libFOX-1.6.so.0:_ZNK2FX11FXTextCodec6utf2mbEPKc
libFOX-1.6.so.0:_ZNK2FX11FXTextCodec6utf2mbEPKci
libFOX-1.6.so.0:_ZNK2FX11FXTextCodec6utf2mbEPciPKc
libFOX-1.6.so.0:_ZNK2FX11FXTextCodec6utf2mbEPciPKci
libFOX-1.6.so.0:_ZNK2FX11FXTextCodec6utf2mbEPciRKNS_8FXStringE
libFOX-1.6.so.0:_ZNK2FX11FXTextCodec6utf2mbERKNS_8FXStringE
libFOX-1.6.so.0:_ZNK2FX11FXTextCodec9mb2utflenEPKci
libFOX-1.6.so.0:_ZNK2FX11FXTextCodec9mb2utflenERKNS_8FXStringE
libFOX-1.6.so.0:_ZNK2FX11FXTextCodec9utf2mblenEPKci
libFOX-1.6.so.0:_ZNK2FX11FXTextCodec9utf2mblenERKNS_8FXStringE
libFOX-1.6.so.0:_ZNK2FX11FXTextField10getJustifyEv
libFOX-1.6.so.0:_ZNK2FX11FXTextField10isEditableEv
libFOX-1.6.so.0:_ZNK2FX11FXTextField12getTextStyleEv
libFOX-1.6.so.0:_ZNK2FX11FXTextField12isOverstrikeEv
libFOX-1.6.so.0:_ZNK2FX11FXTextField12isPosVisibleEi
libFOX-1.6.so.0:_ZNK2FX11FXTextField13isPosSelectedEi
libFOX-1.6.so.0:_ZNK2FX11FXTextField4saveERNS_8FXStreamE
libFOX-1.6.so.0:_ZNK2FX11FXTextField5coordEi
libFOX-1.6.so.0:_ZNK2FX11FXTextField5indexEi
libFOX-1.6.so.0:_ZNK2FX11FXTextField7wordEndEi
libFOX-1.6.so.0:_ZNK2FX11FXTextField8canFocusEv
libFOX-1.6.so.0:_ZNK2FX11FXTextField8leftWordEi
libFOX-1.6.so.0:_ZNK2FX11FXTextField9rightWordEi
libFOX-1.6.so.0:_ZNK2FX11FXTextField9wordStartEi
libFOX-1.6.so.0:_ZNK2FX11FXTopWindow11isMaximizedEv
libFOX-1.6.so.0:_ZNK2FX11FXTopWindow11isMinimizedEv
libFOX-1.6.so.0:_ZNK2FX11FXTopWindow14getDecorationsEv
libFOX-1.6.so.0:_ZNK2FX11FXTopWindow15getPackingHintsEv
libFOX-1.6.so.0:_ZNK2FX11FXTopWindow4saveERNS_8FXStreamE
libFOX-1.6.so.0:_ZNK2FX11FXUTF8Codec4nameEv
libFOX-1.6.so.0:_ZNK2FX11FXUTF8Codec5mb2wcERwPKci
libFOX-1.6.so.0:_ZNK2FX11FXUTF8Codec5wc2mbEPciw
libFOX-1.6.so.0:_ZNK2FX11FXUTF8Codec7aliasesEv
libFOX-1.6.so.0:_ZNK2FX11FXUTF8Codec7mibEnumEv
libFOX-1.6.so.0:_ZNK2FX11FXUTF8Codec8mimeNameEv
libFOX-1.6.so.0:_ZNK2FX12FX88591Codec4nameEv
libFOX-1.6.so.0:_ZNK2FX12FX88591Codec5mb2wcERwPKci
libFOX-1.6.so.0:_ZNK2FX12FX88591Codec5wc2mbEPciw
libFOX-1.6.so.0:_ZNK2FX12FX88591Codec7aliasesEv
libFOX-1.6.so.0:_ZNK2FX12FX88591Codec7mibEnumEv
libFOX-1.6.so.0:_ZNK2FX12FX88591Codec8mimeNameEv
libFOX-1.6.so.0:_ZNK2FX12FX88592Codec4nameEv
libFOX-1.6.so.0:_ZNK2FX12FX88592Codec5mb2wcERwPKci
libFOX-1.6.so.0:_ZNK2FX12FX88592Codec5wc2mbEPciw
libFOX-1.6.so.0:_ZNK2FX12FX88592Codec7aliasesEv
libFOX-1.6.so.0:_ZNK2FX12FX88592Codec7mibEnumEv
libFOX-1.6.so.0:_ZNK2FX12FX88592Codec8mimeNameEv
libFOX-1.6.so.0:_ZNK2FX12FX88593Codec4nameEv
libFOX-1.6.so.0:_ZNK2FX12FX88593Codec5mb2wcERwPKci
libFOX-1.6.so.0:_ZNK2FX12FX88593Codec5wc2mbEPciw
libFOX-1.6.so.0:_ZNK2FX12FX88593Codec7aliasesEv
libFOX-1.6.so.0:_ZNK2FX12FX88593Codec7mibEnumEv
libFOX-1.6.so.0:_ZNK2FX12FX88593Codec8mimeNameEv
libFOX-1.6.so.0:_ZNK2FX12FX88594Codec4nameEv
libFOX-1.6.so.0:_ZNK2FX12FX88594Codec5mb2wcERwPKci
libFOX-1.6.so.0:_ZNK2FX12FX88594Codec5wc2mbEPciw
libFOX-1.6.so.0:_ZNK2FX12FX88594Codec7aliasesEv
libFOX-1.6.so.0:_ZNK2FX12FX88594Codec7mibEnumEv
libFOX-1.6.so.0:_ZNK2FX12FX88594Codec8mimeNameEv
libFOX-1.6.so.0:_ZNK2FX12FX88595Codec4nameEv
libFOX-1.6.so.0:_ZNK2FX12FX88595Codec5mb2wcERwPKci
libFOX-1.6.so.0:_ZNK2FX12FX88595Codec5wc2mbEPciw
libFOX-1.6.so.0:_ZNK2FX12FX88595Codec7aliasesEv
libFOX-1.6.so.0:_ZNK2FX12FX88595Codec7mibEnumEv
libFOX-1.6.so.0:_ZNK2FX12FX88595Codec8mimeNameEv
libFOX-1.6.so.0:_ZNK2FX12FX88596Codec4nameEv
libFOX-1.6.so.0:_ZNK2FX12FX88596Codec5mb2wcERwPKci
libFOX-1.6.so.0:_ZNK2FX12FX88596Codec5wc2mbEPciw
libFOX-1.6.so.0:_ZNK2FX12FX88596Codec7aliasesEv
libFOX-1.6.so.0:_ZNK2FX12FX88596Codec7mibEnumEv
libFOX-1.6.so.0:_ZNK2FX12FX88596Codec8mimeNameEv
libFOX-1.6.so.0:_ZNK2FX12FX88597Codec4nameEv
libFOX-1.6.so.0:_ZNK2FX12FX88597Codec5mb2wcERwPKci
libFOX-1.6.so.0:_ZNK2FX12FX88597Codec5wc2mbEPciw
libFOX-1.6.so.0:_ZNK2FX12FX88597Codec7aliasesEv
libFOX-1.6.so.0:_ZNK2FX12FX88597Codec7mibEnumEv
libFOX-1.6.so.0:_ZNK2FX12FX88597Codec8mimeNameEv
libFOX-1.6.so.0:_ZNK2FX12FX88598Codec4nameEv
libFOX-1.6.so.0:_ZNK2FX12FX88598Codec5mb2wcERwPKci
libFOX-1.6.so.0:_ZNK2FX12FX88598Codec5wc2mbEPciw
libFOX-1.6.so.0:_ZNK2FX12FX88598Codec7aliasesEv
libFOX-1.6.so.0:_ZNK2FX12FX88598Codec7mibEnumEv
libFOX-1.6.so.0:_ZNK2FX12FX88598Codec8mimeNameEv
libFOX-1.6.so.0:_ZNK2FX12FX88599Codec4nameEv
libFOX-1.6.so.0:_ZNK2FX12FX88599Codec5mb2wcERwPKci
libFOX-1.6.so.0:_ZNK2FX12FX88599Codec5wc2mbEPciw
libFOX-1.6.so.0:_ZNK2FX12FX88599Codec7aliasesEv
libFOX-1.6.so.0:_ZNK2FX12FX88599Codec7mibEnumEv
libFOX-1.6.so.0:_ZNK2FX12FX88599Codec8mimeNameEv
libFOX-1.6.so.0:_ZNK2FX12FXAccelTable13targetOfAccelEj
libFOX-1.6.so.0:_ZNK2FX12FXAccelTable4saveERNS_8FXStreamE
libFOX-1.6.so.0:_ZNK2FX12FXAccelTable8hasAccelEj
libFOX-1.6.so.0:_ZNK2FX12FXBitmapView12getAlignmentEv
libFOX-1.6.so.0:_ZNK2FX12FXBitmapView4saveERNS_8FXStreamE
libFOX-1.6.so.0:_ZNK2FX12FXBitmapView8canFocusEv
libFOX-1.6.so.0:_ZNK2FX12FXCP437Codec4nameEv
libFOX-1.6.so.0:_ZNK2FX12FXCP437Codec5mb2wcERwPKci
libFOX-1.6.so.0:_ZNK2FX12FXCP437Codec5wc2mbEPciw
libFOX-1.6.so.0:_ZNK2FX12FXCP437Codec7aliasesEv
libFOX-1.6.so.0:_ZNK2FX12FXCP437Codec7mibEnumEv
libFOX-1.6.so.0:_ZNK2FX12FXCP437Codec8mimeNameEv
libFOX-1.6.so.0:_ZNK2FX12FXCP850Codec4nameEv
libFOX-1.6.so.0:_ZNK2FX12FXCP850Codec5mb2wcERwPKci
libFOX-1.6.so.0:_ZNK2FX12FXCP850Codec5wc2mbEPciw
libFOX-1.6.so.0:_ZNK2FX12FXCP850Codec7aliasesEv
libFOX-1.6.so.0:_ZNK2FX12FXCP850Codec7mibEnumEv
libFOX-1.6.so.0:_ZNK2FX12FXCP850Codec8mimeNameEv
libFOX-1.6.so.0:_ZNK2FX12FXCP852Codec4nameEv
libFOX-1.6.so.0:_ZNK2FX12FXCP852Codec5mb2wcERwPKci
libFOX-1.6.so.0:_ZNK2FX12FXCP852Codec5wc2mbEPciw
libFOX-1.6.so.0:_ZNK2FX12FXCP852Codec7aliasesEv
libFOX-1.6.so.0:_ZNK2FX12FXCP852Codec7mibEnumEv
libFOX-1.6.so.0:_ZNK2FX12FXCP852Codec8mimeNameEv
libFOX-1.6.so.0:_ZNK2FX12FXCP855Codec4nameEv
libFOX-1.6.so.0:_ZNK2FX12FXCP855Codec5mb2wcERwPKci
libFOX-1.6.so.0:_ZNK2FX12FXCP855Codec5wc2mbEPciw
libFOX-1.6.so.0:_ZNK2FX12FXCP855Codec7aliasesEv
libFOX-1.6.so.0:_ZNK2FX12FXCP855Codec7mibEnumEv
libFOX-1.6.so.0:_ZNK2FX12FXCP855Codec8mimeNameEv
libFOX-1.6.so.0:_ZNK2FX12FXCP856Codec4nameEv
libFOX-1.6.so.0:_ZNK2FX12FXCP856Codec5mb2wcERwPKci
libFOX-1.6.so.0:_ZNK2FX12FXCP856Codec5wc2mbEPciw
libFOX-1.6.so.0:_ZNK2FX12FXCP856Codec7aliasesEv
libFOX-1.6.so.0:_ZNK2FX12FXCP856Codec7mibEnumEv
libFOX-1.6.so.0:_ZNK2FX12FXCP856Codec8mimeNameEv
libFOX-1.6.so.0:_ZNK2FX12FXCP857Codec4nameEv
libFOX-1.6.so.0:_ZNK2FX12FXCP857Codec5mb2wcERwPKci
libFOX-1.6.so.0:_ZNK2FX12FXCP857Codec5wc2mbEPciw
libFOX-1.6.so.0:_ZNK2FX12FXCP857Codec7aliasesEv
libFOX-1.6.so.0:_ZNK2FX12FXCP857Codec7mibEnumEv
libFOX-1.6.so.0:_ZNK2FX12FXCP857Codec8mimeNameEv
libFOX-1.6.so.0:_ZNK2FX12FXCP860Codec4nameEv
libFOX-1.6.so.0:_ZNK2FX12FXCP860Codec5mb2wcERwPKci
libFOX-1.6.so.0:_ZNK2FX12FXCP860Codec5wc2mbEPciw
libFOX-1.6.so.0:_ZNK2FX12FXCP860Codec7aliasesEv
libFOX-1.6.so.0:_ZNK2FX12FXCP860Codec7mibEnumEv
libFOX-1.6.so.0:_ZNK2FX12FXCP860Codec8mimeNameEv
libFOX-1.6.so.0:_ZNK2FX12FXCP861Codec4nameEv
libFOX-1.6.so.0:_ZNK2FX12FXCP861Codec5mb2wcERwPKci
libFOX-1.6.so.0:_ZNK2FX12FXCP861Codec5wc2mbEPciw
libFOX-1.6.so.0:_ZNK2FX12FXCP861Codec7aliasesEv
libFOX-1.6.so.0:_ZNK2FX12FXCP861Codec7mibEnumEv
libFOX-1.6.so.0:_ZNK2FX12FXCP861Codec8mimeNameEv
libFOX-1.6.so.0:_ZNK2FX12FXCP862Codec4nameEv
libFOX-1.6.so.0:_ZNK2FX12FXCP862Codec5mb2wcERwPKci
libFOX-1.6.so.0:_ZNK2FX12FXCP862Codec5wc2mbEPciw
libFOX-1.6.so.0:_ZNK2FX12FXCP862Codec7aliasesEv
libFOX-1.6.so.0:_ZNK2FX12FXCP862Codec7mibEnumEv
libFOX-1.6.so.0:_ZNK2FX12FXCP862Codec8mimeNameEv
libFOX-1.6.so.0:_ZNK2FX12FXCP863Codec4nameEv
libFOX-1.6.so.0:_ZNK2FX12FXCP863Codec5mb2wcERwPKci
libFOX-1.6.so.0:_ZNK2FX12FXCP863Codec5wc2mbEPciw
libFOX-1.6.so.0:_ZNK2FX12FXCP863Codec7aliasesEv
libFOX-1.6.so.0:_ZNK2FX12FXCP863Codec7mibEnumEv
libFOX-1.6.so.0:_ZNK2FX12FXCP863Codec8mimeNameEv
libFOX-1.6.so.0:_ZNK2FX12FXCP864Codec4nameEv
libFOX-1.6.so.0:_ZNK2FX12FXCP864Codec5mb2wcERwPKci
libFOX-1.6.so.0:_ZNK2FX12FXCP864Codec5wc2mbEPciw
libFOX-1.6.so.0:_ZNK2FX12FXCP864Codec7aliasesEv
libFOX-1.6.so.0:_ZNK2FX12FXCP864Codec7mibEnumEv
libFOX-1.6.so.0:_ZNK2FX12FXCP864Codec8mimeNameEv
libFOX-1.6.so.0:_ZNK2FX12FXCP865Codec4nameEv
libFOX-1.6.so.0:_ZNK2FX12FXCP865Codec5mb2wcERwPKci
libFOX-1.6.so.0:_ZNK2FX12FXCP865Codec5wc2mbEPciw
libFOX-1.6.so.0:_ZNK2FX12FXCP865Codec7aliasesEv
libFOX-1.6.so.0:_ZNK2FX12FXCP865Codec7mibEnumEv
libFOX-1.6.so.0:_ZNK2FX12FXCP865Codec8mimeNameEv
libFOX-1.6.so.0:_ZNK2FX12FXCP866Codec4nameEv
libFOX-1.6.so.0:_ZNK2FX12FXCP866Codec5mb2wcERwPKci
libFOX-1.6.so.0:_ZNK2FX12FXCP866Codec5wc2mbEPciw
libFOX-1.6.so.0:_ZNK2FX12FXCP866Codec7aliasesEv
libFOX-1.6.so.0:_ZNK2FX12FXCP866Codec7mibEnumEv
libFOX-1.6.so.0:_ZNK2FX12FXCP866Codec8mimeNameEv
libFOX-1.6.so.0:_ZNK2FX12FXCP869Codec4nameEv
libFOX-1.6.so.0:_ZNK2FX12FXCP869Codec5mb2wcERwPKci
libFOX-1.6.so.0:_ZNK2FX12FXCP869Codec5wc2mbEPciw
libFOX-1.6.so.0:_ZNK2FX12FXCP869Codec7aliasesEv
libFOX-1.6.so.0:_ZNK2FX12FXCP869Codec7mibEnumEv
libFOX-1.6.so.0:_ZNK2FX12FXCP869Codec8mimeNameEv
libFOX-1.6.so.0:_ZNK2FX12FXCP874Codec4nameEv
libFOX-1.6.so.0:_ZNK2FX12FXCP874Codec5mb2wcERwPKci
libFOX-1.6.so.0:_ZNK2FX12FXCP874Codec5wc2mbEPciw
libFOX-1.6.so.0:_ZNK2FX12FXCP874Codec7aliasesEv
libFOX-1.6.so.0:_ZNK2FX12FXCP874Codec7mibEnumEv
libFOX-1.6.so.0:_ZNK2FX12FXCP874Codec8mimeNameEv
libFOX-1.6.so.0:_ZNK2FX12FXColorWheel4saveERNS_8FXStreamE
libFOX-1.6.so.0:_ZNK2FX12FXColorWheel6hstoxyERiS1_ff
libFOX-1.6.so.0:_ZNK2FX12FXColorWheel6xytohsERfS1_ii
libFOX-1.6.so.0:_ZNK2FX12FXDragCorner4saveERNS_8FXStreamE
libFOX-1.6.so.0:_ZNK2FX12FXFileDialog10getPatternEv
libFOX-1.6.so.0:_ZNK2FX12FXFileDialog10showImagesEv
libFOX-1.6.so.0:_ZNK2FX12FXFileDialog11getFilenameEv
libFOX-1.6.so.0:_ZNK2FX12FXFileDialog11getReadOnlyEv
libFOX-1.6.so.0:_ZNK2FX12FXFileDialog12getDirectoryEv
libFOX-1.6.so.0:_ZNK2FX12FXFileDialog12getFilenamesEv
libFOX-1.6.so.0:_ZNK2FX12FXFileDialog12getImageSizeEv
libFOX-1.6.so.0:_ZNK2FX12FXFileDialog12getItemSpaceEv
libFOX-1.6.so.0:_ZNK2FX12FXFileDialog12getMatchModeEv
libFOX-1.6.so.0:_ZNK2FX12FXFileDialog13getSelectModeEv
libFOX-1.6.so.0:_ZNK2FX12FXFileDialog13shownReadOnlyEv
libFOX-1.6.so.0:_ZNK2FX12FXFileDialog14getNumPatternsEv
libFOX-1.6.so.0:_ZNK2FX12FXFileDialog14getPatternListEv
libFOX-1.6.so.0:_ZNK2FX12FXFileDialog14getPatternTextEi
libFOX-1.6.so.0:_ZNK2FX12FXFileDialog15allowNavigationEv
libFOX-1.6.so.0:_ZNK2FX12FXFileDialog15getFileBoxStyleEv
libFOX-1.6.so.0:_ZNK2FX12FXFileDialog15showHiddenFilesEv
libFOX-1.6.so.0:_ZNK2FX12FXFileDialog17allowPatternEntryEv
libFOX-1.6.so.0:_ZNK2FX12FXFileDialog17getCurrentPatternEv
libFOX-1.6.so.0:_ZNK2FX12FXFileDialog4saveERNS_8FXStreamE
libFOX-1.6.so.0:_ZNK2FX12FXFontDialog16getFontSelectionERNS_10FXFontDescE
libFOX-1.6.so.0:_ZNK2FX12FXFontDialog4saveERNS_8FXStreamE
libFOX-1.6.so.0:_ZNK2FX12FXGLCylinder4saveERNS_8FXStreamE
libFOX-1.6.so.0:_ZNK2FX12FXHeaderItem11getArrowDirEv
libFOX-1.6.so.0:_ZNK2FX12FXHeaderItem4saveERNS_8FXStreamE
libFOX-1.6.so.0:_ZNK2FX12FXHeaderItem8getWidthEPKNS_8FXHeaderE
libFOX-1.6.so.0:_ZNK2FX12FXHeaderItem9getHeightEPKNS_8FXHeaderE
libFOX-1.6.so.0:_ZNK2FX12FXIconSource11scaleToSizeEPNS_7FXImageEii
libFOX-1.6.so.0:_ZNK2FX12FXIconSource12loadIconDataEPKvRKNS_8FXStringE
libFOX-1.6.so.0:_ZNK2FX12FXIconSource12loadIconFileERKNS_8FXStringES3_
libFOX-1.6.so.0:_ZNK2FX12FXIconSource13loadImageDataEPKvRKNS_8FXStringE
libFOX-1.6.so.0:_ZNK2FX12FXIconSource13loadImageFileERKNS_8FXStringES3_
libFOX-1.6.so.0:_ZNK2FX12FXIconSource14loadIconStreamERNS_8FXStreamERKNS_8FXStringE
libFOX-1.6.so.0:_ZNK2FX12FXIconSource15loadImageStreamERNS_8FXStreamERKNS_8FXStringE
libFOX-1.6.so.0:_ZNK2FX12FXIconSource18loadScaledIconDataEPKviiRKNS_8FXStringE
libFOX-1.6.so.0:_ZNK2FX12FXIconSource18loadScaledIconFileERKNS_8FXStringEiiS3_
libFOX-1.6.so.0:_ZNK2FX12FXIconSource19loadScaledImageDataEPKviiRKNS_8FXStringE
libFOX-1.6.so.0:_ZNK2FX12FXIconSource19loadScaledImageFileERKNS_8FXStringEiiS3_
libFOX-1.6.so.0:_ZNK2FX12FXIconSource20loadScaledIconStreamERNS_8FXStreamEiiRKNS_8FXStringE
libFOX-1.6.so.0:_ZNK2FX12FXIconSource21loadScaledImageStreamERNS_8FXStreamEiiRKNS_8FXStringE
libFOX-1.6.so.0:_ZNK2FX12FXIconSource4saveERNS_8FXStreamE
libFOX-1.6.so.0:_ZNK2FX12FXImageFrame10getJustifyEv
libFOX-1.6.so.0:_ZNK2FX12FXImageFrame4saveERNS_8FXStreamE
libFOX-1.6.so.0:_ZNK2FX12FXKOI8RCodec4nameEv
libFOX-1.6.so.0:_ZNK2FX12FXKOI8RCodec5mb2wcERwPKci
libFOX-1.6.so.0:_ZNK2FX12FXKOI8RCodec5wc2mbEPciw
libFOX-1.6.so.0:_ZNK2FX12FXKOI8RCodec7aliasesEv
libFOX-1.6.so.0:_ZNK2FX12FXKOI8RCodec7mibEnumEv
libFOX-1.6.so.0:_ZNK2FX12FXKOI8RCodec8mimeNameEv
libFOX-1.6.so.0:_ZNK2FX12FXMenuButton13getAttachmentEv
libFOX-1.6.so.0:_ZNK2FX12FXMenuButton13getPopupStyleEv
libFOX-1.6.so.0:_ZNK2FX12FXMenuButton14getButtonStyleEv
libFOX-1.6.so.0:_ZNK2FX12FXMenuButton4saveERNS_8FXStreamE
libFOX-1.6.so.0:_ZNK2FX12FXMenuButton8canFocusEv
libFOX-1.6.so.0:_ZNK2FX12FXMenuButton8containsEii
libFOX-1.6.so.0:_ZNK2FX12FXObjectList4findEPKNS_8FXObjectEi
libFOX-1.6.so.0:_ZNK2FX12FXObjectList4saveERNS_8FXStreamE
libFOX-1.6.so.0:_ZNK2FX12FXObjectList5rfindEPKNS_8FXObjectEi
libFOX-1.6.so.0:_ZNK2FX12FXOptionMenu12getCurrentNoEv
libFOX-1.6.so.0:_ZNK2FX12FXOptionMenu13getNumOptionsEv
libFOX-1.6.so.0:_ZNK2FX12FXOptionMenu4saveERNS_8FXStreamE
libFOX-1.6.so.0:_ZNK2FX12FXOptionMenu8canFocusEv
libFOX-1.6.so.0:_ZNK2FX12FXOptionMenu8containsEii
libFOX-1.6.so.0:_ZNK2FX12FXOptionMenu8isPoppedEv
libFOX-1.6.so.0:_ZNK2FX12FXRealSlider14getSliderStyleEv
libFOX-1.6.so.0:_ZNK2FX12FXRealSlider4saveERNS_8FXStreamE
libFOX-1.6.so.0:_ZNK2FX12FXRealSlider8canFocusEv
libFOX-1.6.so.0:_ZNK2FX12FXScrollArea14getScrollStyleEv
libFOX-1.6.so.0:_ZNK2FX12FXScrollArea20isVerticalScrollableEv
libFOX-1.6.so.0:_ZNK2FX12FXScrollArea22isHorizontalScrollableEv
libFOX-1.6.so.0:_ZNK2FX12FXStatusLine4saveERNS_8FXStreamE
libFOX-1.6.so.0:_ZNK2FX12FXToolBarTab11getTabStyleEv
libFOX-1.6.so.0:_ZNK2FX12FXToolBarTab4saveERNS_8FXStreamE
libFOX-1.6.so.0:_ZNK2FX12FXToolBarTab8canFocusEv
libFOX-1.6.so.0:_ZNK2FX12FXTranslator2trEPKcS2_S2_
libFOX-1.6.so.0:_ZNK2FX12FXTranslator4saveERNS_8FXStreamE
libFOX-1.6.so.0:_ZNK2FX12FXUTF16Codec4nameEv
libFOX-1.6.so.0:_ZNK2FX12FXUTF16Codec5mb2wcERwPKci
libFOX-1.6.so.0:_ZNK2FX12FXUTF16Codec5wc2mbEPciw
libFOX-1.6.so.0:_ZNK2FX12FXUTF16Codec6mb2utfEPciPKci
libFOX-1.6.so.0:_ZNK2FX12FXUTF16Codec6utf2mbEPciPKci
libFOX-1.6.so.0:_ZNK2FX12FXUTF16Codec7aliasesEv
libFOX-1.6.so.0:_ZNK2FX12FXUTF16Codec7mibEnumEv
libFOX-1.6.so.0:_ZNK2FX12FXUTF16Codec8mimeNameEv
libFOX-1.6.so.0:_ZNK2FX12FXUTF16Codec9mb2utflenEPKci
libFOX-1.6.so.0:_ZNK2FX12FXUTF16Codec9utf2mblenEPKci
libFOX-1.6.so.0:_ZNK2FX12FXUTF32Codec4nameEv
libFOX-1.6.so.0:_ZNK2FX12FXUTF32Codec5mb2wcERwPKci
libFOX-1.6.so.0:_ZNK2FX12FXUTF32Codec5wc2mbEPciw
libFOX-1.6.so.0:_ZNK2FX12FXUTF32Codec6mb2utfEPciPKci
libFOX-1.6.so.0:_ZNK2FX12FXUTF32Codec6utf2mbEPciPKci
libFOX-1.6.so.0:_ZNK2FX12FXUTF32Codec7aliasesEv
libFOX-1.6.so.0:_ZNK2FX12FXUTF32Codec7mibEnumEv
libFOX-1.6.so.0:_ZNK2FX12FXUTF32Codec8mimeNameEv
libFOX-1.6.so.0:_ZNK2FX12FXUTF32Codec9mb2utflenEPKci
libFOX-1.6.so.0:_ZNK2FX12FXUTF32Codec9utf2mblenEPKci
libFOX-1.6.so.0:_ZNK2FX13FX885910Codec4nameEv
libFOX-1.6.so.0:_ZNK2FX13FX885910Codec5mb2wcERwPKci
libFOX-1.6.so.0:_ZNK2FX13FX885910Codec5wc2mbEPciw
libFOX-1.6.so.0:_ZNK2FX13FX885910Codec7aliasesEv
libFOX-1.6.so.0:_ZNK2FX13FX885910Codec7mibEnumEv
libFOX-1.6.so.0:_ZNK2FX13FX885910Codec8mimeNameEv
libFOX-1.6.so.0:_ZNK2FX13FX885911Codec4nameEv
libFOX-1.6.so.0:_ZNK2FX13FX885911Codec5mb2wcERwPKci
libFOX-1.6.so.0:_ZNK2FX13FX885911Codec5wc2mbEPciw
libFOX-1.6.so.0:_ZNK2FX13FX885911Codec7aliasesEv
libFOX-1.6.so.0:_ZNK2FX13FX885911Codec7mibEnumEv
libFOX-1.6.so.0:_ZNK2FX13FX885911Codec8mimeNameEv
libFOX-1.6.so.0:_ZNK2FX13FX885913Codec4nameEv
libFOX-1.6.so.0:_ZNK2FX13FX885913Codec5mb2wcERwPKci
libFOX-1.6.so.0:_ZNK2FX13FX885913Codec5wc2mbEPciw
libFOX-1.6.so.0:_ZNK2FX13FX885913Codec7aliasesEv
libFOX-1.6.so.0:_ZNK2FX13FX885913Codec7mibEnumEv
libFOX-1.6.so.0:_ZNK2FX13FX885913Codec8mimeNameEv
libFOX-1.6.so.0:_ZNK2FX13FX885914Codec4nameEv
libFOX-1.6.so.0:_ZNK2FX13FX885914Codec5mb2wcERwPKci
libFOX-1.6.so.0:_ZNK2FX13FX885914Codec5wc2mbEPciw
libFOX-1.6.so.0:_ZNK2FX13FX885914Codec7aliasesEv
libFOX-1.6.so.0:_ZNK2FX13FX885914Codec7mibEnumEv
libFOX-1.6.so.0:_ZNK2FX13FX885914Codec8mimeNameEv
libFOX-1.6.so.0:_ZNK2FX13FX885915Codec4nameEv
libFOX-1.6.so.0:_ZNK2FX13FX885915Codec5mb2wcERwPKci
libFOX-1.6.so.0:_ZNK2FX13FX885915Codec5wc2mbEPciw
libFOX-1.6.so.0:_ZNK2FX13FX885915Codec7aliasesEv
libFOX-1.6.so.0:_ZNK2FX13FX885915Codec7mibEnumEv
libFOX-1.6.so.0:_ZNK2FX13FX885915Codec8mimeNameEv
libFOX-1.6.so.0:_ZNK2FX13FX885916Codec4nameEv
libFOX-1.6.so.0:_ZNK2FX13FX885916Codec5mb2wcERwPKci
libFOX-1.6.so.0:_ZNK2FX13FX885916Codec5wc2mbEPciw
libFOX-1.6.so.0:_ZNK2FX13FX885916Codec7aliasesEv
libFOX-1.6.so.0:_ZNK2FX13FX885916Codec7mibEnumEv
libFOX-1.6.so.0:_ZNK2FX13FX885916Codec8mimeNameEv
libFOX-1.6.so.0:_ZNK2FX13FXArrowButton10getJustifyEv
libFOX-1.6.so.0:_ZNK2FX13FXArrowButton13getArrowStyleEv
libFOX-1.6.so.0:_ZNK2FX13FXArrowButton4saveERNS_8FXStreamE
libFOX-1.6.so.0:_ZNK2FX13FXArrowButton8canFocusEv
libFOX-1.6.so.0:_ZNK2FX13FXBitmapFrame10getJustifyEv
libFOX-1.6.so.0:_ZNK2FX13FXBitmapFrame4saveERNS_8FXStreamE
libFOX-1.6.so.0:_ZNK2FX13FXCP1250Codec4nameEv
libFOX-1.6.so.0:_ZNK2FX13FXCP1250Codec5mb2wcERwPKci
libFOX-1.6.so.0:_ZNK2FX13FXCP1250Codec5wc2mbEPciw
libFOX-1.6.so.0:_ZNK2FX13FXCP1250Codec7aliasesEv
libFOX-1.6.so.0:_ZNK2FX13FXCP1250Codec7mibEnumEv
libFOX-1.6.so.0:_ZNK2FX13FXCP1250Codec8mimeNameEv
libFOX-1.6.so.0:_ZNK2FX13FXCP1251Codec4nameEv
libFOX-1.6.so.0:_ZNK2FX13FXCP1251Codec5mb2wcERwPKci
libFOX-1.6.so.0:_ZNK2FX13FXCP1251Codec5wc2mbEPciw
libFOX-1.6.so.0:_ZNK2FX13FXCP1251Codec7aliasesEv
libFOX-1.6.so.0:_ZNK2FX13FXCP1251Codec7mibEnumEv
libFOX-1.6.so.0:_ZNK2FX13FXCP1251Codec8mimeNameEv
libFOX-1.6.so.0:_ZNK2FX13FXCP1252Codec4nameEv
libFOX-1.6.so.0:_ZNK2FX13FXCP1252Codec5mb2wcERwPKci
libFOX-1.6.so.0:_ZNK2FX13FXCP1252Codec5wc2mbEPciw
libFOX-1.6.so.0:_ZNK2FX13FXCP1252Codec7aliasesEv
libFOX-1.6.so.0:_ZNK2FX13FXCP1252Codec7mibEnumEv
libFOX-1.6.so.0:_ZNK2FX13FXCP1252Codec8mimeNameEv
libFOX-1.6.so.0:_ZNK2FX13FXCP1253Codec4nameEv
libFOX-1.6.so.0:_ZNK2FX13FXCP1253Codec5mb2wcERwPKci
libFOX-1.6.so.0:_ZNK2FX13FXCP1253Codec5wc2mbEPciw
libFOX-1.6.so.0:_ZNK2FX13FXCP1253Codec7aliasesEv
libFOX-1.6.so.0:_ZNK2FX13FXCP1253Codec7mibEnumEv
libFOX-1.6.so.0:_ZNK2FX13FXCP1253Codec8mimeNameEv
libFOX-1.6.so.0:_ZNK2FX13FXCP1254Codec4nameEv
libFOX-1.6.so.0:_ZNK2FX13FXCP1254Codec5mb2wcERwPKci
libFOX-1.6.so.0:_ZNK2FX13FXCP1254Codec5wc2mbEPciw
libFOX-1.6.so.0:_ZNK2FX13FXCP1254Codec7aliasesEv
libFOX-1.6.so.0:_ZNK2FX13FXCP1254Codec7mibEnumEv
libFOX-1.6.so.0:_ZNK2FX13FXCP1254Codec8mimeNameEv
libFOX-1.6.so.0:_ZNK2FX13FXCP1255Codec4nameEv
libFOX-1.6.so.0:_ZNK2FX13FXCP1255Codec5mb2wcERwPKci
libFOX-1.6.so.0:_ZNK2FX13FXCP1255Codec5wc2mbEPciw
libFOX-1.6.so.0:_ZNK2FX13FXCP1255Codec7aliasesEv
libFOX-1.6.so.0:_ZNK2FX13FXCP1255Codec7mibEnumEv
libFOX-1.6.so.0:_ZNK2FX13FXCP1255Codec8mimeNameEv
libFOX-1.6.so.0:_ZNK2FX13FXCP1256Codec4nameEv
libFOX-1.6.so.0:_ZNK2FX13FXCP1256Codec5mb2wcERwPKci
libFOX-1.6.so.0:_ZNK2FX13FXCP1256Codec5wc2mbEPciw
libFOX-1.6.so.0:_ZNK2FX13FXCP1256Codec7aliasesEv
libFOX-1.6.so.0:_ZNK2FX13FXCP1256Codec7mibEnumEv
libFOX-1.6.so.0:_ZNK2FX13FXCP1256Codec8mimeNameEv
libFOX-1.6.so.0:_ZNK2FX13FXCP1257Codec4nameEv
libFOX-1.6.so.0:_ZNK2FX13FXCP1257Codec5mb2wcERwPKci
libFOX-1.6.so.0:_ZNK2FX13FXCP1257Codec5wc2mbEPciw
libFOX-1.6.so.0:_ZNK2FX13FXCP1257Codec7aliasesEv
libFOX-1.6.so.0:_ZNK2FX13FXCP1257Codec7mibEnumEv
libFOX-1.6.so.0:_ZNK2FX13FXCP1257Codec8mimeNameEv
libFOX-1.6.so.0:_ZNK2FX13FXCP1258Codec4nameEv
libFOX-1.6.so.0:_ZNK2FX13FXCP1258Codec5mb2wcERwPKci
libFOX-1.6.so.0:_ZNK2FX13FXCP1258Codec5wc2mbEPciw
libFOX-1.6.so.0:_ZNK2FX13FXCP1258Codec7aliasesEv
libFOX-1.6.so.0:_ZNK2FX13FXCP1258Codec7mibEnumEv
libFOX-1.6.so.0:_ZNK2FX13FXCP1258Codec8mimeNameEv
libFOX-1.6.so.0:_ZNK2FX13FXCheckButton19getCheckButtonStyleEv
libFOX-1.6.so.0:_ZNK2FX13FXCheckButton4saveERNS_8FXStreamE
libFOX-1.6.so.0:_ZNK2FX13FXCheckButton8canFocusEv
libFOX-1.6.so.0:_ZNK2FX13FXColorDialog12isOpaqueOnlyEv
libFOX-1.6.so.0:_ZNK2FX13FXColorDialog4saveERNS_8FXStreamE
libFOX-1.6.so.0:_ZNK2FX13FXColorDialog7getRGBAEv
libFOX-1.6.so.0:_ZNK2FX13FXDirSelector12getDirectoryEv
libFOX-1.6.so.0:_ZNK2FX13FXDirSelector12getMatchModeEv
libFOX-1.6.so.0:_ZNK2FX13FXDirSelector14getDirBoxStyleEv
libFOX-1.6.so.0:_ZNK2FX13FXDirSelector15showHiddenFilesEv
libFOX-1.6.so.0:_ZNK2FX13FXDirSelector4saveERNS_8FXStreamE
libFOX-1.6.so.0:_ZNK2FX13FXDirSelector9showFilesEv
libFOX-1.6.so.0:_ZNK2FX13FXDockHandler4saveERNS_8FXStreamE
libFOX-1.6.so.0:_ZNK2FX13FXDockHandler8canFocusEv
libFOX-1.6.so.0:_ZNK2FX13FXFoldingItem10isParentOfEPKS0_
libFOX-1.6.so.0:_ZNK2FX13FXFoldingItem14getNumChildrenEv
libFOX-1.6.so.0:_ZNK2FX13FXFoldingItem4drawEPKNS_13FXFoldingListERNS_4FXDCEiiii
libFOX-1.6.so.0:_ZNK2FX13FXFoldingItem4saveERNS_8FXStreamE
libFOX-1.6.so.0:_ZNK2FX13FXFoldingItem7hitItemEPKNS_13FXFoldingListEii
libFOX-1.6.so.0:_ZNK2FX13FXFoldingItem8getAboveEv
libFOX-1.6.so.0:_ZNK2FX13FXFoldingItem8getBelowEv
libFOX-1.6.so.0:_ZNK2FX13FXFoldingItem8getWidthEPKNS_13FXFoldingListE
libFOX-1.6.so.0:_ZNK2FX13FXFoldingItem9getHeightEPKNS_13FXFoldingListE
libFOX-1.6.so.0:_ZNK2FX13FXFoldingItem9isChildOfEPKS0_
libFOX-1.6.so.0:_ZNK2FX13FXFoldingList10isItemLeafEPKNS_13FXFoldingItemE
libFOX-1.6.so.0:_ZNK2FX13FXFoldingList11getItemDataEPKNS_13FXFoldingItemE
libFOX-1.6.so.0:_ZNK2FX13FXFoldingList11getItemTextEPKNS_13FXFoldingItemE
libFOX-1.6.so.0:_ZNK2FX13FXFoldingList11getNumItemsEv
libFOX-1.6.so.0:_ZNK2FX13FXFoldingList11setItemDataEPNS_13FXFoldingItemEPv
libFOX-1.6.so.0:_ZNK2FX13FXFoldingList12getListStyleEv
libFOX-1.6.so.0:_ZNK2FX13FXFoldingList12isItemOpenedEPKNS_13FXFoldingItemE
libFOX-1.6.so.0:_ZNK2FX13FXFoldingList13getHeaderIconEi
libFOX-1.6.so.0:_ZNK2FX13FXFoldingList13getHeaderSizeEi
libFOX-1.6.so.0:_ZNK2FX13FXFoldingList13getHeaderTextEi
libFOX-1.6.so.0:_ZNK2FX13FXFoldingList13getNumHeadersEv
libFOX-1.6.so.0:_ZNK2FX13FXFoldingList13isItemCurrentEPKNS_13FXFoldingItemE
libFOX-1.6.so.0:_ZNK2FX13FXFoldingList13isItemEnabledEPKNS_13FXFoldingItemE
libFOX-1.6.so.0:_ZNK2FX13FXFoldingList13isItemVisibleEPKNS_13FXFoldingItemE
libFOX-1.6.so.0:_ZNK2FX13FXFoldingList14findItemByDataEPKvPNS_13FXFoldingItemEj
libFOX-1.6.so.0:_ZNK2FX13FXFoldingList14isItemExpandedEPKNS_13FXFoldingItemE
libFOX-1.6.so.0:_ZNK2FX13FXFoldingList14isItemSelectedEPKNS_13FXFoldingItemE
libFOX-1.6.so.0:_ZNK2FX13FXFoldingList15getItemOpenIconEPKNS_13FXFoldingItemE
libFOX-1.6.so.0:_ZNK2FX13FXFoldingList17getItemClosedIconEPKNS_13FXFoldingItemE
libFOX-1.6.so.0:_ZNK2FX13FXFoldingList4saveERNS_8FXStreamE
libFOX-1.6.so.0:_ZNK2FX13FXFoldingList7hitItemEPKNS_13FXFoldingItemEii
libFOX-1.6.so.0:_ZNK2FX13FXFoldingList8canFocusEv
libFOX-1.6.so.0:_ZNK2FX13FXFoldingList8findItemERKNS_8FXStringEPNS_13FXFoldingItemEj
libFOX-1.6.so.0:_ZNK2FX13FXFoldingList9getItemAtEii
libFOX-1.6.so.0:_ZNK2FX13FXGradientBar10getSegmentEii
libFOX-1.6.so.0:_ZNK2FX13FXGradientBar11getBarStyleEv
libFOX-1.6.so.0:_ZNK2FX13FXGradientBar12getGradientsERPNS_10FXGradientERi
libFOX-1.6.so.0:_ZNK2FX13FXGradientBar15getSegmentBlendEi
libFOX-1.6.so.0:_ZNK2FX13FXGradientBar15getSegmentLowerEi
libFOX-1.6.so.0:_ZNK2FX13FXGradientBar15getSegmentUpperEi
libFOX-1.6.so.0:_ZNK2FX13FXGradientBar16getSegmentMiddleEi
libFOX-1.6.so.0:_ZNK2FX13FXGradientBar17isSegmentSelectedEi
libFOX-1.6.so.0:_ZNK2FX13FXGradientBar18getSegmentLowerPosEi
libFOX-1.6.so.0:_ZNK2FX13FXGradientBar18getSegmentUpperPosEi
libFOX-1.6.so.0:_ZNK2FX13FXGradientBar19getSegmentMiddlePosEi
libFOX-1.6.so.0:_ZNK2FX13FXGradientBar20getSegmentLowerColorEi
libFOX-1.6.so.0:_ZNK2FX13FXGradientBar20getSegmentUpperColorEi
libFOX-1.6.so.0:_ZNK2FX13FXGradientBar4saveERNS_8FXStreamE
libFOX-1.6.so.0:_ZNK2FX13FXGradientBar7getGripEiii
libFOX-1.6.so.0:_ZNK2FX13FXGradientBar8getValueEii
libFOX-1.6.so.0:_ZNK2FX13FXInputDialog13getNumColumnsEv
libFOX-1.6.so.0:_ZNK2FX13FXInputDialog7getTextEv
libFOX-1.6.so.0:_ZNK2FX13FXMenuCaption12getMenuStyleEv
libFOX-1.6.so.0:_ZNK2FX13FXMenuCaption4saveERNS_8FXStreamE
libFOX-1.6.so.0:_ZNK2FX13FXMenuCascade4saveERNS_8FXStreamE
libFOX-1.6.so.0:_ZNK2FX13FXMenuCascade8canFocusEv
libFOX-1.6.so.0:_ZNK2FX13FXMenuCascade8containsEii
libFOX-1.6.so.0:_ZNK2FX13FXMenuCommand4saveERNS_8FXStreamE
libFOX-1.6.so.0:_ZNK2FX13FXMenuCommand8canFocusEv
libFOX-1.6.so.0:_ZNK2FX13FXPrintDialog4saveERNS_8FXStreamE
libFOX-1.6.so.0:_ZNK2FX13FXProgressBar11getBarStyleEv
libFOX-1.6.so.0:_ZNK2FX13FXProgressBar4saveERNS_8FXStreamE
libFOX-1.6.so.0:_ZNK2FX13FXRadioButton19getRadioButtonStyleEv
libFOX-1.6.so.0:_ZNK2FX13FXRadioButton4saveERNS_8FXStreamE
libFOX-1.6.so.0:_ZNK2FX13FXRadioButton8canFocusEv
libFOX-1.6.so.0:_ZNK2FX13FXRealSpinner10getTipTextEv
libFOX-1.6.so.0:_ZNK2FX13FXRealSpinner10isEditableEv
libFOX-1.6.so.0:_ZNK2FX13FXRealSpinner11getHelpTextEv
libFOX-1.6.so.0:_ZNK2FX13FXRealSpinner12getTextColorEv
libFOX-1.6.so.0:_ZNK2FX13FXRealSpinner13getNumColumnsEv
libFOX-1.6.so.0:_ZNK2FX13FXRealSpinner13isTextVisibleEv
libFOX-1.6.so.0:_ZNK2FX13FXRealSpinner14getCursorColorEv
libFOX-1.6.so.0:_ZNK2FX13FXRealSpinner15getSelBackColorEv
libFOX-1.6.so.0:_ZNK2FX13FXRealSpinner15getSelTextColorEv
libFOX-1.6.so.0:_ZNK2FX13FXRealSpinner15getSpinnerStyleEv
libFOX-1.6.so.0:_ZNK2FX13FXRealSpinner15getUpArrowColorEv
libFOX-1.6.so.0:_ZNK2FX13FXRealSpinner17getDownArrowColorEv
libFOX-1.6.so.0:_ZNK2FX13FXRealSpinner4saveERNS_8FXStreamE
libFOX-1.6.so.0:_ZNK2FX13FXRealSpinner7getFontEv
libFOX-1.6.so.0:_ZNK2FX13FXRealSpinner8isCyclicEv
libFOX-1.6.so.0:_ZNK2FX13FXRecentFiles4saveERNS_8FXStreamE
libFOX-1.6.so.0:_ZNK2FX13FXRecentFiles7getFileEi
libFOX-1.6.so.0:_ZNK2FX13FXShutterItem10getTipTextEv
libFOX-1.6.so.0:_ZNK2FX13FXShutterItem11getHelpTextEv
libFOX-1.6.so.0:_ZNK2FX13FXToolBarGrip11isDoubleBarEv
libFOX-1.6.so.0:_ZNK2FX13FXToolBarGrip4saveERNS_8FXStreamE
libFOX-1.6.so.0:_ZNK2FX13FXToolBarGrip8canFocusEv
libFOX-1.6.so.0:_ZNK2FX13FXTreeListBox10getTipTextEv
libFOX-1.6.so.0:_ZNK2FX13FXTreeListBox10isItemLeafEPKNS_10FXTreeItemE
libFOX-1.6.so.0:_ZNK2FX13FXTreeListBox11getHelpTextEv
libFOX-1.6.so.0:_ZNK2FX13FXTreeListBox11getItemDataEPKNS_10FXTreeItemE
libFOX-1.6.so.0:_ZNK2FX13FXTreeListBox11getItemTextEPKNS_10FXTreeItemE
libFOX-1.6.so.0:_ZNK2FX13FXTreeListBox11getLastItemEv
libFOX-1.6.so.0:_ZNK2FX13FXTreeListBox11getNumItemsEv
libFOX-1.6.so.0:_ZNK2FX13FXTreeListBox11getSortFuncEv
libFOX-1.6.so.0:_ZNK2FX13FXTreeListBox11isPaneShownEv
libFOX-1.6.so.0:_ZNK2FX13FXTreeListBox11setItemDataEPNS_10FXTreeItemEPv
libFOX-1.6.so.0:_ZNK2FX13FXTreeListBox12getFirstItemEv
libFOX-1.6.so.0:_ZNK2FX13FXTreeListBox12getListStyleEv
libFOX-1.6.so.0:_ZNK2FX13FXTreeListBox13getNumVisibleEv
libFOX-1.6.so.0:_ZNK2FX13FXTreeListBox13isItemCurrentEPKNS_10FXTreeItemE
libFOX-1.6.so.0:_ZNK2FX13FXTreeListBox14findItemByDataEPKvPNS_10FXTreeItemEj
libFOX-1.6.so.0:_ZNK2FX13FXTreeListBox14getCurrentItemEv
libFOX-1.6.so.0:_ZNK2FX13FXTreeListBox15getItemOpenIconEPKNS_10FXTreeItemE
libFOX-1.6.so.0:_ZNK2FX13FXTreeListBox17getItemClosedIconEPKNS_10FXTreeItemE
libFOX-1.6.so.0:_ZNK2FX13FXTreeListBox4saveERNS_8FXStreamE
libFOX-1.6.so.0:_ZNK2FX13FXTreeListBox7getFontEv
libFOX-1.6.so.0:_ZNK2FX13FXTreeListBox8findItemERKNS_8FXStringEPNS_10FXTreeItemEj
libFOX-1.6.so.0:_ZNK2FX14FXCommandGroup4sizeEv
libFOX-1.6.so.0:_ZNK2FX14FXFileSelector10getPatternEv
libFOX-1.6.so.0:_ZNK2FX14FXFileSelector10showImagesEv
libFOX-1.6.so.0:_ZNK2FX14FXFileSelector11getFilenameEv
libFOX-1.6.so.0:_ZNK2FX14FXFileSelector11getReadOnlyEv
libFOX-1.6.so.0:_ZNK2FX14FXFileSelector12getDirectoryEv
libFOX-1.6.so.0:_ZNK2FX14FXFileSelector12getFilenamesEv
libFOX-1.6.so.0:_ZNK2FX14FXFileSelector12getImageSizeEv
libFOX-1.6.so.0:_ZNK2FX14FXFileSelector12getItemSpaceEv
libFOX-1.6.so.0:_ZNK2FX14FXFileSelector12getMatchModeEv
libFOX-1.6.so.0:_ZNK2FX14FXFileSelector13shownReadOnlyEv
libFOX-1.6.so.0:_ZNK2FX14FXFileSelector14getNumPatternsEv
libFOX-1.6.so.0:_ZNK2FX14FXFileSelector14getPatternListEv
libFOX-1.6.so.0:_ZNK2FX14FXFileSelector14getPatternTextEi
libFOX-1.6.so.0:_ZNK2FX14FXFileSelector15getFileBoxStyleEv
libFOX-1.6.so.0:_ZNK2FX14FXFileSelector15showHiddenFilesEv
libFOX-1.6.so.0:_ZNK2FX14FXFileSelector16getSelectedFilesEv
libFOX-1.6.so.0:_ZNK2FX14FXFileSelector17allowPatternEntryEv
libFOX-1.6.so.0:_ZNK2FX14FXFileSelector17getCurrentPatternEv
libFOX-1.6.so.0:_ZNK2FX14FXFileSelector20getSelectedFilesOnlyEv
libFOX-1.6.so.0:_ZNK2FX14FXFileSelector4saveERNS_8FXStreamE
libFOX-1.6.so.0:_ZNK2FX14FXFontSelector16getFontSelectionERNS_10FXFontDescE
libFOX-1.6.so.0:_ZNK2FX14FXFontSelector4saveERNS_8FXStreamE
libFOX-1.6.so.0:_ZNK2FX14FXScrollWindow13contentWindowEv
libFOX-1.6.so.0:_ZNK2FX14FXSplashWindow4saveERNS_8FXStreamE
libFOX-1.6.so.0:_ZNK2FX14FXToggleButton14getToggleStyleEv
libFOX-1.6.so.0:_ZNK2FX14FXToggleButton4saveERNS_8FXStreamE
libFOX-1.6.so.0:_ZNK2FX14FXToggleButton8canFocusEv
libFOX-1.6.so.0:_ZNK2FX14FXToolBarShell13getFrameStyleEv
libFOX-1.6.so.0:_ZNK2FX14FXToolBarShell4saveERNS_8FXStreamE
libFOX-1.6.so.0:_ZNK2FX14FXUTF16BECodec4nameEv
libFOX-1.6.so.0:_ZNK2FX14FXUTF16BECodec5mb2wcERwPKci
libFOX-1.6.so.0:_ZNK2FX14FXUTF16BECodec5wc2mbEPciw
libFOX-1.6.so.0:_ZNK2FX14FXUTF16BECodec7aliasesEv
libFOX-1.6.so.0:_ZNK2FX14FXUTF16BECodec7mibEnumEv
libFOX-1.6.so.0:_ZNK2FX14FXUTF16BECodec8mimeNameEv
libFOX-1.6.so.0:_ZNK2FX14FXUTF16LECodec4nameEv
libFOX-1.6.so.0:_ZNK2FX14FXUTF16LECodec5mb2wcERwPKci
libFOX-1.6.so.0:_ZNK2FX14FXUTF16LECodec5wc2mbEPciw
libFOX-1.6.so.0:_ZNK2FX14FXUTF16LECodec7aliasesEv
libFOX-1.6.so.0:_ZNK2FX14FXUTF16LECodec7mibEnumEv
libFOX-1.6.so.0:_ZNK2FX14FXUTF16LECodec8mimeNameEv
libFOX-1.6.so.0:_ZNK2FX14FXUTF32BECodec4nameEv
libFOX-1.6.so.0:_ZNK2FX14FXUTF32BECodec5mb2wcERwPKci
libFOX-1.6.so.0:_ZNK2FX14FXUTF32BECodec5wc2mbEPciw
libFOX-1.6.so.0:_ZNK2FX14FXUTF32BECodec7aliasesEv
libFOX-1.6.so.0:_ZNK2FX14FXUTF32BECodec7mibEnumEv
libFOX-1.6.so.0:_ZNK2FX14FXUTF32BECodec8mimeNameEv
libFOX-1.6.so.0:_ZNK2FX14FXUTF32LECodec4nameEv
libFOX-1.6.so.0:_ZNK2FX14FXUTF32LECodec5mb2wcERwPKci
libFOX-1.6.so.0:_ZNK2FX14FXUTF32LECodec5wc2mbEPciw
libFOX-1.6.so.0:_ZNK2FX14FXUTF32LECodec7aliasesEv
libFOX-1.6.so.0:_ZNK2FX14FXUTF32LECodec7mibEnumEv
libFOX-1.6.so.0:_ZNK2FX14FXUTF32LECodec8mimeNameEv
libFOX-1.6.so.0:_ZNK2FX15FXColorSelector12isOpaqueOnlyEv
libFOX-1.6.so.0:_ZNK2FX15FXColorSelector4saveERNS_8FXStreamE
libFOX-1.6.so.0:_ZNK2FX15FXColorSelector7getRGBAEv
libFOX-1.6.so.0:_ZNK2FX15FXMenuSeparator4saveERNS_8FXStreamE
libFOX-1.6.so.0:_ZNK2FX15FXReplaceDialog13getSearchTextEv
libFOX-1.6.so.0:_ZNK2FX15FXReplaceDialog14getReplaceTextEv
libFOX-1.6.so.0:_ZNK2FX15FXReplaceDialog4saveERNS_8FXStreamE
libFOX-1.6.so.0:_ZNK2FX16FXGLTriangleMesh4saveERNS_8FXStreamE
libFOX-1.6.so.0:_ZNK2FX16FXProgressDialog10getMessageEv
libFOX-1.6.so.0:_ZNK2FX16FXProgressDialog11getBarStyleEv
libFOX-1.6.so.0:_ZNK2FX16FXProgressDialog11getProgressEv
libFOX-1.6.so.0:_ZNK2FX16FXProgressDialog8getTotalEv
libFOX-1.6.so.0:_ZNK2FX16FXTriStateButton4saveERNS_8FXStreamE
libFOX-1.6.so.0:_ZNK2FX4FXIO6isOpenEv
libFOX-1.6.so.0:_ZNK2FX4FXIO8positionEv
libFOX-1.6.so.0:_ZNK2FX4FXId4saveERNS_8FXStreamE
libFOX-1.6.so.0:_ZNK2FX5FXApp10hasTimeoutEPNS_8FXObjectEj
libFOX-1.6.so.0:_ZNK2FX5FXApp11dumpWidgetsEv
libFOX-1.6.so.0:_ZNK2FX5FXApp11getKeyStateEj
libFOX-1.6.so.0:_ZNK2FX5FXApp11getModalityEv
libFOX-1.6.so.0:_ZNK2FX5FXApp12findWindowAtEiim
libFOX-1.6.so.0:_ZNK2FX5FXApp14getFocusWindowEv
libFOX-1.6.so.0:_ZNK2FX5FXApp14getModalWindowEv
libFOX-1.6.so.0:_ZNK2FX5FXApp14hasInputMethodEv
libFOX-1.6.so.0:_ZNK2FX5FXApp15getDragTypeNameEm
libFOX-1.6.so.0:_ZNK2FX5FXApp16findWindowWithIdEm
libFOX-1.6.so.0:_ZNK2FX5FXApp16registerDragTypeERKNS_8FXStringE
libFOX-1.6.so.0:_ZNK2FX5FXApp4saveERNS_8FXStreamE
libFOX-1.6.so.0:_ZNK2FX5FXApp7isModalEPNS_8FXWindowE
libFOX-1.6.so.0:_ZNK2FX5FXApp8hasChoreEPNS_8FXObjectEj
libFOX-1.6.so.0:_ZNK2FX5FXDir4nameEv
libFOX-1.6.so.0:_ZNK2FX5FXDir6isOpenEv
libFOX-1.6.so.0:_ZNK2FX5FXRex5matchEPKciPiS3_iiii
libFOX-1.6.so.0:_ZNK2FX5FXRex5matchERKNS_8FXStringEPiS4_iiii
libFOX-1.6.so.0:_ZNK2FX5FXRexeqERKS0_
libFOX-1.6.so.0:_ZNK2FX5FXRexneERKS0_
libFOX-1.6.so.0:_ZNK2FX6FXDate11daysInMonthEv
libFOX-1.6.so.0:_ZNK2FX6FXDate3dayEv
libFOX-1.6.so.0:_ZNK2FX6FXDate4yearEv
libFOX-1.6.so.0:_ZNK2FX6FXDate5monthEv
libFOX-1.6.so.0:_ZNK2FX6FXDate7getDateERiS1_S1_
libFOX-1.6.so.0:_ZNK2FX6FXDate8leapYearEv
libFOX-1.6.so.0:_ZNK2FX6FXDate9dayOfWeekEv
libFOX-1.6.so.0:_ZNK2FX6FXDate9dayOfYearEv
libFOX-1.6.so.0:_ZNK2FX6FXDial12getDialStyleEv
libFOX-1.6.so.0:_ZNK2FX6FXDial4saveERNS_8FXStreamE
libFOX-1.6.so.0:_ZNK2FX6FXDial8canFocusEv
libFOX-1.6.so.0:_ZNK2FX6FXDict4findEPKc
libFOX-1.6.so.0:_ZNK2FX6FXDict4lastEv
libFOX-1.6.so.0:_ZNK2FX6FXDict4nextEi
libFOX-1.6.so.0:_ZNK2FX6FXDict4prevEi
libFOX-1.6.so.0:_ZNK2FX6FXDict5firstEv
libFOX-1.6.so.0:_ZNK2FX6FXFile8positionEv
libFOX-1.6.so.0:_ZNK2FX6FXFont10getFoundryEv
libFOX-1.6.so.0:_ZNK2FX6FXFont10getMaxCharEv
libFOX-1.6.so.0:_ZNK2FX6FXFont10getMinCharEv
libFOX-1.6.so.0:_ZNK2FX6FXFont10isFontMonoEv
libFOX-1.6.so.0:_ZNK2FX6FXFont11getFontDescERNS_10FXFontDescE
libFOX-1.6.so.0:_ZNK2FX6FXFont11leftBearingEw
libFOX-1.6.so.0:_ZNK2FX6FXFont12getCharWidthEw
libFOX-1.6.so.0:_ZNK2FX6FXFont12getFontWidthEv
libFOX-1.6.so.0:_ZNK2FX6FXFont12getTextWidthEPKcj
libFOX-1.6.so.0:_ZNK2FX6FXFont12getTextWidthERKNS_8FXStringE
libFOX-1.6.so.0:_ZNK2FX6FXFont12rightBearingEw
libFOX-1.6.so.0:_ZNK2FX6FXFont13getFontAscentEv
libFOX-1.6.so.0:_ZNK2FX6FXFont13getFontHeightEv
libFOX-1.6.so.0:_ZNK2FX6FXFont13getTextHeightEPKcj
libFOX-1.6.so.0:_ZNK2FX6FXFont13getTextHeightERKNS_8FXStringE
libFOX-1.6.so.0:_ZNK2FX6FXFont14getFontDescentEv
libFOX-1.6.so.0:_ZNK2FX6FXFont14getFontLeadingEv
libFOX-1.6.so.0:_ZNK2FX6FXFont14getFontSpacingEv
libFOX-1.6.so.0:_ZNK2FX6FXFont4saveERNS_8FXStreamE
libFOX-1.6.so.0:_ZNK2FX6FXFont7getFontEv
libFOX-1.6.so.0:_ZNK2FX6FXFont7hasCharEw
libFOX-1.6.so.0:_ZNK2FX6FXFont9getFamilyEv
libFOX-1.6.so.0:_ZNK2FX6FXHash4findEPv
libFOX-1.6.so.0:_ZNK2FX6FXKnob12getKnobStyleEv
libFOX-1.6.so.0:_ZNK2FX6FXKnob4saveERNS_8FXStreamE
libFOX-1.6.so.0:_ZNK2FX6FXKnob8canFocusEv
libFOX-1.6.so.0:_ZNK2FX6FXList10updateItemEi
libFOX-1.6.so.0:_ZNK2FX6FXList11getItemDataEi
libFOX-1.6.so.0:_ZNK2FX6FXList11getItemIconEi
libFOX-1.6.so.0:_ZNK2FX6FXList11getItemTextEi
libFOX-1.6.so.0:_ZNK2FX6FXList12getItemWidthEi
libFOX-1.6.so.0:_ZNK2FX6FXList12getListStyleEv
libFOX-1.6.so.0:_ZNK2FX6FXList13getItemHeightEi
libFOX-1.6.so.0:_ZNK2FX6FXList13isItemCurrentEi
libFOX-1.6.so.0:_ZNK2FX6FXList13isItemEnabledEi
libFOX-1.6.so.0:_ZNK2FX6FXList13isItemVisibleEi
libFOX-1.6.so.0:_ZNK2FX6FXList14findItemByDataEPKvij
libFOX-1.6.so.0:_ZNK2FX6FXList14isItemSelectedEi
libFOX-1.6.so.0:_ZNK2FX6FXList4saveERNS_8FXStreamE
libFOX-1.6.so.0:_ZNK2FX6FXList7getItemEi
libFOX-1.6.so.0:_ZNK2FX6FXList7hitItemEiii
libFOX-1.6.so.0:_ZNK2FX6FXList8canFocusEv
libFOX-1.6.so.0:_ZNK2FX6FXList8findItemERKNS_8FXStringEij
libFOX-1.6.so.0:_ZNK2FX6FXList9getItemAtEii
libFOX-1.6.so.0:_ZNK2FX6FXStat10isReadableEv
libFOX-1.6.so.0:_ZNK2FX6FXStat10isWritableEv
libFOX-1.6.so.0:_ZNK2FX6FXStat11isCharacterEv
libFOX-1.6.so.0:_ZNK2FX6FXStat11isDirectoryEv
libFOX-1.6.so.0:_ZNK2FX6FXStat11isSetStickyEv
libFOX-1.6.so.0:_ZNK2FX6FXStat12isExecutableEv
libFOX-1.6.so.0:_ZNK2FX6FXStat15isGroupReadableEv
libFOX-1.6.so.0:_ZNK2FX6FXStat15isGroupWritableEv
libFOX-1.6.so.0:_ZNK2FX6FXStat15isOtherReadableEv
libFOX-1.6.so.0:_ZNK2FX6FXStat15isOtherWritableEv
libFOX-1.6.so.0:_ZNK2FX6FXStat15isOwnerReadableEv
libFOX-1.6.so.0:_ZNK2FX6FXStat15isOwnerWritableEv
libFOX-1.6.so.0:_ZNK2FX6FXStat17isGroupExecutableEv
libFOX-1.6.so.0:_ZNK2FX6FXStat17isOtherExecutableEv
libFOX-1.6.so.0:_ZNK2FX6FXStat17isOwnerExecutableEv
libFOX-1.6.so.0:_ZNK2FX6FXStat23isGroupReadWriteExecuteEv
libFOX-1.6.so.0:_ZNK2FX6FXStat23isOtherReadWriteExecuteEv
libFOX-1.6.so.0:_ZNK2FX6FXStat23isOwnerReadWriteExecuteEv
libFOX-1.6.so.0:_ZNK2FX6FXStat6isFifoEv
libFOX-1.6.so.0:_ZNK2FX6FXStat6isFileEv
libFOX-1.6.so.0:_ZNK2FX6FXStat6isLinkEv
libFOX-1.6.so.0:_ZNK2FX6FXStat7isBlockEv
libFOX-1.6.so.0:_ZNK2FX6FXStat7touchedEv
libFOX-1.6.so.0:_ZNK2FX6FXStat8isHiddenEv
libFOX-1.6.so.0:_ZNK2FX6FXStat8isSetGidEv
libFOX-1.6.so.0:_ZNK2FX6FXStat8isSetUidEv
libFOX-1.6.so.0:_ZNK2FX6FXStat8isSocketEv
libFOX-1.6.so.0:_ZNK2FX6FXText10countLinesEii
libFOX-1.6.so.0:_ZNK2FX6FXText10getCharLenEi
libFOX-1.6.so.0:_ZNK2FX6FXText10getTopLineEv
libFOX-1.6.so.0:_ZNK2FX6FXText10isEditableEv
libFOX-1.6.so.0:_ZNK2FX6FXText10posVisibleEi
libFOX-1.6.so.0:_ZNK2FX6FXText11drawNumbersERNS_10FXDCWindowEiiii
libFOX-1.6.so.0:_ZNK2FX6FXText11drawTextRowERNS_10FXDCWindowEiii
libFOX-1.6.so.0:_ZNK2FX6FXText11extractTextEPcii
libFOX-1.6.so.0:_ZNK2FX6FXText11extractTextERNS_8FXStringEii
libFOX-1.6.so.0:_ZNK2FX6FXText11measureTextEiiRiS1_
libFOX-1.6.so.0:_ZNK2FX6FXText11updateRangeEii
libFOX-1.6.so.0:_ZNK2FX6FXText12drawContentsERNS_10FXDCWindowEiiii
libFOX-1.6.so.0:_ZNK2FX6FXText12extractStyleEPcii
libFOX-1.6.so.0:_ZNK2FX6FXText12extractStyleERNS_8FXStringEii
libFOX-1.6.so.0:_ZNK2FX6FXText12findMatchingEiiiwi
libFOX-1.6.so.0:_ZNK2FX6FXText12getTextStyleEv
libFOX-1.6.so.0:_ZNK2FX6FXText12isOverstrikeEv
libFOX-1.6.so.0:_ZNK2FX6FXText12isPosVisibleEi
libFOX-1.6.so.0:_ZNK2FX6FXText12matchForwardEiiwwi
libFOX-1.6.so.0:_ZNK2FX6FXText13getBottomLineEv
libFOX-1.6.so.0:_ZNK2FX6FXText13indentFromPosEii
libFOX-1.6.so.0:_ZNK2FX6FXText13isPosSelectedEi
libFOX-1.6.so.0:_ZNK2FX6FXText13matchBackwardEiiwwi
libFOX-1.6.so.0:_ZNK2FX6FXText13posFromIndentEii
libFOX-1.6.so.0:_ZNK2FX6FXText14drawBufferTextERNS_10FXDCWindowEiiiiiij
libFOX-1.6.so.0:_ZNK2FX6FXText14fillBufferRectERNS_10FXDCWindowEiiiij
libFOX-1.6.so.0:_ZNK2FX6FXText3decEi
libFOX-1.6.so.0:_ZNK2FX6FXText3incEi
libFOX-1.6.so.0:_ZNK2FX6FXText4saveERNS_8FXStreamE
libFOX-1.6.so.0:_ZNK2FX6FXText4wrapEi
libFOX-1.6.so.0:_ZNK2FX6FXText5styleEiiii
libFOX-1.6.so.0:_ZNK2FX6FXText6rowEndEi
libFOX-1.6.so.0:_ZNK2FX6FXText7getByteEi
libFOX-1.6.so.0:_ZNK2FX6FXText7getCharEi
libFOX-1.6.so.0:_ZNK2FX6FXText7getTextEPci
libFOX-1.6.so.0:_ZNK2FX6FXText7getTextERNS_8FXStringE
libFOX-1.6.so.0:_ZNK2FX6FXText7getTextEv
libFOX-1.6.so.0:_ZNK2FX6FXText7lineEndEi
libFOX-1.6.so.0:_ZNK2FX6FXText7nextRowEii
libFOX-1.6.so.0:_ZNK2FX6FXText7prevRowEii
libFOX-1.6.so.0:_ZNK2FX6FXText7wordEndEi
libFOX-1.6.so.0:_ZNK2FX6FXText8canFocusEv
libFOX-1.6.so.0:_ZNK2FX6FXText8getPosAtEii
libFOX-1.6.so.0:_ZNK2FX6FXText8getStyleEi
libFOX-1.6.so.0:_ZNK2FX6FXText8leftWordEi
libFOX-1.6.so.0:_ZNK2FX6FXText8nextLineEii
libFOX-1.6.so.0:_ZNK2FX6FXText8prevLineEii
libFOX-1.6.so.0:_ZNK2FX6FXText8rowStartEi
libFOX-1.6.so.0:_ZNK2FX6FXText8validPosEi
libFOX-1.6.so.0:_ZNK2FX6FXText9changeBegEi
libFOX-1.6.so.0:_ZNK2FX6FXText9changeEndEi
libFOX-1.6.so.0:_ZNK2FX6FXText9charWidthEwi
libFOX-1.6.so.0:_ZNK2FX6FXText9countColsEii
libFOX-1.6.so.0:_ZNK2FX6FXText9countRowsEii
libFOX-1.6.so.0:_ZNK2FX6FXText9getXOfPosEi
libFOX-1.6.so.0:_ZNK2FX6FXText9getYOfPosEi
libFOX-1.6.so.0:_ZNK2FX6FXText9lineStartEi
libFOX-1.6.so.0:_ZNK2FX6FXText9lineWidthEii
libFOX-1.6.so.0:_ZNK2FX6FXText9posToLineEii
libFOX-1.6.so.0:_ZNK2FX6FXText9rightWordEi
libFOX-1.6.so.0:_ZNK2FX6FXText9wordStartEi
libFOX-1.6.so.0:_ZNK2FX7FXFrame13getFrameStyleEv
libFOX-1.6.so.0:_ZNK2FX7FXFrame4saveERNS_8FXStreamE
libFOX-1.6.so.0:_ZNK2FX7FXImage10savePixelsERNS_8FXStreamE
libFOX-1.6.so.0:_ZNK2FX7FXImage4saveERNS_8FXStreamE
libFOX-1.6.so.0:_ZNK2FX7FXImage8hasAlphaEv
libFOX-1.6.so.0:_ZNK2FX7FXLabel10getJustifyEv
libFOX-1.6.so.0:_ZNK2FX7FXLabel10labelWidthERKNS_8FXStringE
libFOX-1.6.so.0:_ZNK2FX7FXLabel11labelHeightERKNS_8FXStringE
libFOX-1.6.so.0:_ZNK2FX7FXLabel15getIconPositionEv
libFOX-1.6.so.0:_ZNK2FX7FXLabel4saveERNS_8FXStreamE
libFOX-1.6.so.0:_ZNK2FX7FXMat3d3detEv
libFOX-1.6.so.0:_ZNK2FX7FXMat3d6invertEv
libFOX-1.6.so.0:_ZNK2FX7FXMat3d9transposeEv
libFOX-1.6.so.0:_ZNK2FX7FXMat3dmiERKS0_
libFOX-1.6.so.0:_ZNK2FX7FXMat3dmlERKNS_7FXVec2dE
libFOX-1.6.so.0:_ZNK2FX7FXMat3dmlERKNS_7FXVec3dE
libFOX-1.6.so.0:_ZNK2FX7FXMat3dmlERKS0_
libFOX-1.6.so.0:_ZNK2FX7FXMat3dngEv
libFOX-1.6.so.0:_ZNK2FX7FXMat3dplERKS0_
libFOX-1.6.so.0:_ZNK2FX7FXMat3f3detEv
libFOX-1.6.so.0:_ZNK2FX7FXMat3f6invertEv
libFOX-1.6.so.0:_ZNK2FX7FXMat3f9transposeEv
libFOX-1.6.so.0:_ZNK2FX7FXMat3fmiERKS0_
libFOX-1.6.so.0:_ZNK2FX7FXMat3fmlERKNS_7FXVec2fE
libFOX-1.6.so.0:_ZNK2FX7FXMat3fmlERKNS_7FXVec3fE
libFOX-1.6.so.0:_ZNK2FX7FXMat3fmlERKS0_
libFOX-1.6.so.0:_ZNK2FX7FXMat3fngEv
libFOX-1.6.so.0:_ZNK2FX7FXMat3fplERKS0_
libFOX-1.6.so.0:_ZNK2FX7FXMat4d3detEv
libFOX-1.6.so.0:_ZNK2FX7FXMat4d6invertEv
libFOX-1.6.so.0:_ZNK2FX7FXMat4d9transposeEv
libFOX-1.6.so.0:_ZNK2FX7FXMat4dmiERKS0_
libFOX-1.6.so.0:_ZNK2FX7FXMat4dmlERKNS_7FXVec3dE
libFOX-1.6.so.0:_ZNK2FX7FXMat4dmlERKNS_7FXVec4dE
libFOX-1.6.so.0:_ZNK2FX7FXMat4dmlERKS0_
libFOX-1.6.so.0:_ZNK2FX7FXMat4dngEv
libFOX-1.6.so.0:_ZNK2FX7FXMat4dplERKS0_
libFOX-1.6.so.0:_ZNK2FX7FXMat4f3detEv
libFOX-1.6.so.0:_ZNK2FX7FXMat4f6invertEv
libFOX-1.6.so.0:_ZNK2FX7FXMat4f9transposeEv
libFOX-1.6.so.0:_ZNK2FX7FXMat4fmiERKS0_
libFOX-1.6.so.0:_ZNK2FX7FXMat4fmlERKNS_7FXVec3fE
libFOX-1.6.so.0:_ZNK2FX7FXMat4fmlERKNS_7FXVec4fE
libFOX-1.6.so.0:_ZNK2FX7FXMat4fmlERKS0_
libFOX-1.6.so.0:_ZNK2FX7FXMat4fngEv
libFOX-1.6.so.0:_ZNK2FX7FXMat4fplERKS0_
libFOX-1.6.so.0:_ZNK2FX7FXPopup12getGrabOwnerEv
libFOX-1.6.so.0:_ZNK2FX7FXPopup13doesSaveUnderEv
libFOX-1.6.so.0:_ZNK2FX7FXPopup13getFrameStyleEv
libFOX-1.6.so.0:_ZNK2FX7FXPopup13getShrinkWrapEv
libFOX-1.6.so.0:_ZNK2FX7FXPopup14getOrientationEv
libFOX-1.6.so.0:_ZNK2FX7FXPopup20doesOverrideRedirectEv
libFOX-1.6.so.0:_ZNK2FX7FXQuatd10unitinvertEv
libFOX-1.6.so.0:_ZNK2FX7FXQuatd12getAxisAngleERNS_7FXVec3dERd
libFOX-1.6.so.0:_ZNK2FX7FXQuatd15getPitchRollYawERdS1_S1_
libFOX-1.6.so.0:_ZNK2FX7FXQuatd15getPitchYawRollERdS1_S1_
libFOX-1.6.so.0:_ZNK2FX7FXQuatd15getRollPitchYawERdS1_S1_
libFOX-1.6.so.0:_ZNK2FX7FXQuatd15getRollYawPitchERdS1_S1_
libFOX-1.6.so.0:_ZNK2FX7FXQuatd15getYawPitchRollERdS1_S1_
libFOX-1.6.so.0:_ZNK2FX7FXQuatd15getYawRollPitchERdS1_S1_
libFOX-1.6.so.0:_ZNK2FX7FXQuatd3expEv
libFOX-1.6.so.0:_ZNK2FX7FXQuatd3logEv
libFOX-1.6.so.0:_ZNK2FX7FXQuatd4conjEv
libFOX-1.6.so.0:_ZNK2FX7FXQuatd6invertEv
libFOX-1.6.so.0:_ZNK2FX7FXQuatd7getAxesERNS_7FXVec3dES2_S2_
libFOX-1.6.so.0:_ZNK2FX7FXQuatd8getXAxisEv
libFOX-1.6.so.0:_ZNK2FX7FXQuatd8getYAxisEv
libFOX-1.6.so.0:_ZNK2FX7FXQuatd8getZAxisEv
libFOX-1.6.so.0:_ZNK2FX7FXQuatdmlERKNS_7FXVec3dE
libFOX-1.6.so.0:_ZNK2FX7FXQuatdmlERKS0_
libFOX-1.6.so.0:_ZNK2FX7FXQuatf10unitinvertEv
libFOX-1.6.so.0:_ZNK2FX7FXQuatf12getAxisAngleERNS_7FXVec3fERf
libFOX-1.6.so.0:_ZNK2FX7FXQuatf15getPitchRollYawERfS1_S1_
libFOX-1.6.so.0:_ZNK2FX7FXQuatf15getPitchYawRollERfS1_S1_
libFOX-1.6.so.0:_ZNK2FX7FXQuatf15getRollPitchYawERfS1_S1_
libFOX-1.6.so.0:_ZNK2FX7FXQuatf15getRollYawPitchERfS1_S1_
libFOX-1.6.so.0:_ZNK2FX7FXQuatf15getYawPitchRollERfS1_S1_
libFOX-1.6.so.0:_ZNK2FX7FXQuatf15getYawRollPitchERfS1_S1_
libFOX-1.6.so.0:_ZNK2FX7FXQuatf3expEv
libFOX-1.6.so.0:_ZNK2FX7FXQuatf3logEv
libFOX-1.6.so.0:_ZNK2FX7FXQuatf4conjEv
libFOX-1.6.so.0:_ZNK2FX7FXQuatf6invertEv
libFOX-1.6.so.0:_ZNK2FX7FXQuatf7getAxesERNS_7FXVec3fES2_S2_
libFOX-1.6.so.0:_ZNK2FX7FXQuatf8getXAxisEv
libFOX-1.6.so.0:_ZNK2FX7FXQuatf8getYAxisEv
libFOX-1.6.so.0:_ZNK2FX7FXQuatf8getZAxisEv
libFOX-1.6.so.0:_ZNK2FX7FXQuatfmlERKNS_7FXVec3fE
libFOX-1.6.so.0:_ZNK2FX7FXQuatfmlERKS0_
libFOX-1.6.so.0:_ZNK2FX7FXRuler13getRulerStyleEv
libFOX-1.6.so.0:_ZNK2FX7FXRuler14getContentSizeEv
libFOX-1.6.so.0:_ZNK2FX7FXRuler16getDocumentLowerEv
libFOX-1.6.so.0:_ZNK2FX7FXRuler16getDocumentUpperEv
libFOX-1.6.so.0:_ZNK2FX7FXRuler17getRulerAlignmentEv
libFOX-1.6.so.0:_ZNK2FX7FXRuler4saveERNS_8FXStreamE
libFOX-1.6.so.0:_ZNK2FX7FXTable10getColumnXEi
libFOX-1.6.so.0:_ZNK2FX7FXTable10getRowIconEi
libFOX-1.6.so.0:_ZNK2FX7FXTable10getRowTextEi
libFOX-1.6.so.0:_ZNK2FX7FXTable10isEditableEv
libFOX-1.6.so.0:_ZNK2FX7FXTable10updateItemEii
libFOX-1.6.so.0:_ZNK2FX7FXTable11extractTextERNS_8FXStringEiiiiPKcS4_
libFOX-1.6.so.0:_ZNK2FX7FXTable11extractTextERPcRiiiiiPKcS5_
libFOX-1.6.so.0:_ZNK2FX7FXTable11getItemDataEii
libFOX-1.6.so.0:_ZNK2FX7FXTable11getItemIconEii
libFOX-1.6.so.0:_ZNK2FX7FXTable11getItemTextEii
libFOX-1.6.so.0:_ZNK2FX7FXTable11updateRangeEiiii
libFOX-1.6.so.0:_ZNK2FX7FXTable12getCellColorEii
libFOX-1.6.so.0:_ZNK2FX7FXTable12getRowHeightEi
libFOX-1.6.so.0:_ZNK2FX7FXTable13getColumnIconEi
libFOX-1.6.so.0:_ZNK2FX7FXTable13getColumnTextEi
libFOX-1.6.so.0:_ZNK2FX7FXTable13getRowJustifyEi
libFOX-1.6.so.0:_ZNK2FX7FXTable13getTableStyleEv
libFOX-1.6.so.0:_ZNK2FX7FXTable13isItemCurrentEii
libFOX-1.6.so.0:_ZNK2FX7FXTable13isItemEnabledEii
libFOX-1.6.so.0:_ZNK2FX7FXTable13isItemVisibleEii
libFOX-1.6.so.0:_ZNK2FX7FXTable13isRowSelectedEi
libFOX-1.6.so.0:_ZNK2FX7FXTable14getColumnWidthEi
libFOX-1.6.so.0:_ZNK2FX7FXTable14getItemBordersEii
libFOX-1.6.so.0:_ZNK2FX7FXTable14getItemJustifyEii
libFOX-1.6.so.0:_ZNK2FX7FXTable14getItemStippleEii
libFOX-1.6.so.0:_ZNK2FX7FXTable14isItemSelectedEii
libFOX-1.6.so.0:_ZNK2FX7FXTable14isItemSpanningEii
libFOX-1.6.so.0:_ZNK2FX7FXTable15getMinRowHeightEi
libFOX-1.6.so.0:_ZNK2FX7FXTable16getColumnJustifyEi
libFOX-1.6.so.0:_ZNK2FX7FXTable16getRowHeaderFontEv
libFOX-1.6.so.0:_ZNK2FX7FXTable16getRowHeaderModeEv
libFOX-1.6.so.0:_ZNK2FX7FXTable16isColumnSelectedEi
libFOX-1.6.so.0:_ZNK2FX7FXTable17getMinColumnWidthEi
libFOX-1.6.so.0:_ZNK2FX7FXTable17getRowHeaderWidthEv
libFOX-1.6.so.0:_ZNK2FX7FXTable17getRowRenumberingEv
libFOX-1.6.so.0:_ZNK2FX7FXTable18getRowIconPositionEi
libFOX-1.6.so.0:_ZNK2FX7FXTable18isAnythingSelectedEv
libFOX-1.6.so.0:_ZNK2FX7FXTable19getColumnHeaderFontEv
libFOX-1.6.so.0:_ZNK2FX7FXTable19getColumnHeaderModeEv
libFOX-1.6.so.0:_ZNK2FX7FXTable19getItemIconPositionEii
libFOX-1.6.so.0:_ZNK2FX7FXTable20getColumnRenumberingEv
libFOX-1.6.so.0:_ZNK2FX7FXTable21getColumnHeaderHeightEv
libFOX-1.6.so.0:_ZNK2FX7FXTable21getColumnIconPositionEi
libFOX-1.6.so.0:_ZNK2FX7FXTable4saveERNS_8FXStreamE
libFOX-1.6.so.0:_ZNK2FX7FXTable6colAtXEi
libFOX-1.6.so.0:_ZNK2FX7FXTable6endColEii
libFOX-1.6.so.0:_ZNK2FX7FXTable6endRowEii
libFOX-1.6.so.0:_ZNK2FX7FXTable6rowAtYEi
libFOX-1.6.so.0:_ZNK2FX7FXTable7getItemEii
libFOX-1.6.so.0:_ZNK2FX7FXTable7getRowYEi
libFOX-1.6.so.0:_ZNK2FX7FXTable8canFocusEv
libFOX-1.6.so.0:_ZNK2FX7FXTable8startColEii
libFOX-1.6.so.0:_ZNK2FX7FXTable8startRowEii
libFOX-1.6.so.0:_ZNK2FX7FXTable9countTextERiS1_PKciS3_S3_
libFOX-1.6.so.0:_ZNK2FX7FXTable9countTextERiS1_RKNS_8FXStringEPKcS6_
libFOX-1.6.so.0:_ZNK2FX7FXVec2dmlERKNS_7FXMat3dE
libFOX-1.6.so.0:_ZNK2FX7FXVec2fmlERKNS_7FXMat3fE
libFOX-1.6.so.0:_ZNK2FX7FXVec3dcvjEv
libFOX-1.6.so.0:_ZNK2FX7FXVec3dmlERKNS_7FXMat3dE
libFOX-1.6.so.0:_ZNK2FX7FXVec3dmlERKNS_7FXMat4dE
libFOX-1.6.so.0:_ZNK2FX7FXVec3fcvjEv
libFOX-1.6.so.0:_ZNK2FX7FXVec3fmlERKNS_7FXMat3fE
libFOX-1.6.so.0:_ZNK2FX7FXVec3fmlERKNS_7FXMat4fE
libFOX-1.6.so.0:_ZNK2FX7FXVec4d7crossesERKNS_7FXVec3dES3_
libFOX-1.6.so.0:_ZNK2FX7FXVec4d8distanceERKNS_7FXVec3dE
libFOX-1.6.so.0:_ZNK2FX7FXVec4dcvjEv
libFOX-1.6.so.0:_ZNK2FX7FXVec4dmlERKNS_7FXMat4dE
libFOX-1.6.so.0:_ZNK2FX7FXVec4f7crossesERKNS_7FXVec3fES3_
libFOX-1.6.so.0:_ZNK2FX7FXVec4f8distanceERKNS_7FXVec3fE
libFOX-1.6.so.0:_ZNK2FX7FXVec4fcvjEv
libFOX-1.6.so.0:_ZNK2FX7FXVec4fmlERKNS_7FXMat4fE
libFOX-1.6.so.0:_ZNK2FX8FXBitmap10savePixelsERNS_8FXStreamE
libFOX-1.6.so.0:_ZNK2FX8FXBitmap4saveERNS_8FXStreamE
libFOX-1.6.so.0:_ZNK2FX8FXButton14getButtonStyleEv
libFOX-1.6.so.0:_ZNK2FX8FXButton8canFocusEv
libFOX-1.6.so.0:_ZNK2FX8FXCanvas8canFocusEv
libFOX-1.6.so.0:_ZNK2FX8FXCursor10savePixelsERNS_8FXStreamE
libFOX-1.6.so.0:_ZNK2FX8FXCursor4saveERNS_8FXStreamE
libFOX-1.6.so.0:_ZNK2FX8FXCursor7isColorEv
libFOX-1.6.so.0:_ZNK2FX8FXDirBox12getDirectoryEv
libFOX-1.6.so.0:_ZNK2FX8FXDirBox15getItemPathnameEPNS_10FXTreeItemE
libFOX-1.6.so.0:_ZNK2FX8FXDirBox4saveERNS_8FXStreamE
libFOX-1.6.so.0:_ZNK2FX8FXGLCone4saveERNS_8FXStreamE
libFOX-1.6.so.0:_ZNK2FX8FXGLCube4saveERNS_8FXStreamE
libFOX-1.6.so.0:_ZNK2FX8FXGLLine4saveERNS_8FXStreamE
libFOX-1.6.so.0:_ZNK2FX8FXHeader10updateItemEi
libFOX-1.6.so.0:_ZNK2FX8FXHeader11getArrowDirEi
libFOX-1.6.so.0:_ZNK2FX8FXHeader11getItemDataEi
libFOX-1.6.so.0:_ZNK2FX8FXHeader11getItemIconEi
libFOX-1.6.so.0:_ZNK2FX8FXHeader11getItemSizeEi
libFOX-1.6.so.0:_ZNK2FX8FXHeader11getItemTextEi
libFOX-1.6.so.0:_ZNK2FX8FXHeader12getTotalSizeEv
libFOX-1.6.so.0:_ZNK2FX8FXHeader13getItemOffsetEi
libFOX-1.6.so.0:_ZNK2FX8FXHeader13isItemPressedEi
libFOX-1.6.so.0:_ZNK2FX8FXHeader14getHeaderStyleEv
libFOX-1.6.so.0:_ZNK2FX8FXHeader14getItemJustifyEi
libFOX-1.6.so.0:_ZNK2FX8FXHeader19getItemIconPositionEi
libFOX-1.6.so.0:_ZNK2FX8FXHeader4saveERNS_8FXStreamE
libFOX-1.6.so.0:_ZNK2FX8FXHeader7getItemEi
libFOX-1.6.so.0:_ZNK2FX8FXHeader9getItemAtEi
libFOX-1.6.so.0:_ZNK2FX8FXMatrix10colOfChildEPKNS_8FXWindowE
libFOX-1.6.so.0:_ZNK2FX8FXMatrix10getNumRowsEv
libFOX-1.6.so.0:_ZNK2FX8FXMatrix10rowOfChildEPKNS_8FXWindowE
libFOX-1.6.so.0:_ZNK2FX8FXMatrix13childAtRowColEii
libFOX-1.6.so.0:_ZNK2FX8FXMatrix13getNumColumnsEv
libFOX-1.6.so.0:_ZNK2FX8FXMatrix14getMatrixStyleEv
libFOX-1.6.so.0:_ZNK2FX8FXObject10isMemberOfEPKNS_11FXMetaClassE
libFOX-1.6.so.0:_ZNK2FX8FXObject12getClassNameEv
libFOX-1.6.so.0:_ZNK2FX8FXObject4saveERNS_8FXStreamE
libFOX-1.6.so.0:_ZNK2FX8FXOption8canFocusEv
libFOX-1.6.so.0:_ZNK2FX8FXPacker13getFrameStyleEv
libFOX-1.6.so.0:_ZNK2FX8FXPacker15getPackingHintsEv
libFOX-1.6.so.0:_ZNK2FX8FXPacker4saveERNS_8FXStreamE
libFOX-1.6.so.0:_ZNK2FX8FXRanged5emptyEv
libFOX-1.6.so.0:_ZNK2FX8FXRanged6centerEv
libFOX-1.6.so.0:_ZNK2FX8FXRanged6radiusEv
libFOX-1.6.so.0:_ZNK2FX8FXRanged7longestEv
libFOX-1.6.so.0:_ZNK2FX8FXRanged8containsERKNS_7FXVec3dE
libFOX-1.6.so.0:_ZNK2FX8FXRanged8containsERKNS_9FXSpheredE
libFOX-1.6.so.0:_ZNK2FX8FXRanged8containsERKS0_
libFOX-1.6.so.0:_ZNK2FX8FXRanged8containsEddd
libFOX-1.6.so.0:_ZNK2FX8FXRanged8diagonalEv
libFOX-1.6.so.0:_ZNK2FX8FXRanged8diameterEv
libFOX-1.6.so.0:_ZNK2FX8FXRanged8shortestEv
libFOX-1.6.so.0:_ZNK2FX8FXRanged9intersectERKNS_7FXVec4dE
libFOX-1.6.so.0:_ZNK2FX8FXRangef5emptyEv
libFOX-1.6.so.0:_ZNK2FX8FXRangef6centerEv
libFOX-1.6.so.0:_ZNK2FX8FXRangef6radiusEv
libFOX-1.6.so.0:_ZNK2FX8FXRangef7longestEv
libFOX-1.6.so.0:_ZNK2FX8FXRangef8containsERKNS_7FXVec3fE
libFOX-1.6.so.0:_ZNK2FX8FXRangef8containsERKNS_9FXSpherefE
libFOX-1.6.so.0:_ZNK2FX8FXRangef8containsERKS0_
libFOX-1.6.so.0:_ZNK2FX8FXRangef8containsEfff
libFOX-1.6.so.0:_ZNK2FX8FXRangef8diagonalEv
libFOX-1.6.so.0:_ZNK2FX8FXRangef8diameterEv
libFOX-1.6.so.0:_ZNK2FX8FXRangef8shortestEv
libFOX-1.6.so.0:_ZNK2FX8FXRangef9intersectERKNS_7FXVec4fE
libFOX-1.6.so.0:_ZNK2FX8FXRegion5emptyEv
libFOX-1.6.so.0:_ZNK2FX8FXRegion6boundsEv
libFOX-1.6.so.0:_ZNK2FX8FXRegion8containsEii
libFOX-1.6.so.0:_ZNK2FX8FXRegion8containsEiiii
libFOX-1.6.so.0:_ZNK2FX8FXRegioneoERKS0_
libFOX-1.6.so.0:_ZNK2FX8FXRegioneqERKS0_
libFOX-1.6.so.0:_ZNK2FX8FXRegionmiERKS0_
libFOX-1.6.so.0:_ZNK2FX8FXRegionmlERKS0_
libFOX-1.6.so.0:_ZNK2FX8FXRegionneERKS0_
libFOX-1.6.so.0:_ZNK2FX8FXRegionplERKS0_
libFOX-1.6.so.0:_ZNK2FX8FXSlider14getSliderStyleEv
libFOX-1.6.so.0:_ZNK2FX8FXSlider4saveERNS_8FXStreamE
libFOX-1.6.so.0:_ZNK2FX8FXSlider8canFocusEv
libFOX-1.6.so.0:_ZNK2FX8FXSpring4saveERNS_8FXStreamE
libFOX-1.6.so.0:_ZNK2FX8FXStream11isBigEndianEv
libFOX-1.6.so.0:_ZNK2FX8FXStream8getSpaceEv
libFOX-1.6.so.0:_ZNK2FX8FXString12find_last_ofEPKci
libFOX-1.6.so.0:_ZNK2FX8FXString12find_last_ofEPKcii
libFOX-1.6.so.0:_ZNK2FX8FXString12find_last_ofERKS0_i
libFOX-1.6.so.0:_ZNK2FX8FXString12find_last_ofEci
libFOX-1.6.so.0:_ZNK2FX8FXString13find_first_ofEPKci
libFOX-1.6.so.0:_ZNK2FX8FXString13find_first_ofEPKcii
libFOX-1.6.so.0:_ZNK2FX8FXString13find_first_ofERKS0_i
libFOX-1.6.so.0:_ZNK2FX8FXString13find_first_ofEci
libFOX-1.6.so.0:_ZNK2FX8FXString16find_last_not_ofEPKci
libFOX-1.6.so.0:_ZNK2FX8FXString16find_last_not_ofEPKcii
libFOX-1.6.so.0:_ZNK2FX8FXString16find_last_not_ofERKS0_i
libFOX-1.6.so.0:_ZNK2FX8FXString16find_last_not_ofEci
libFOX-1.6.so.0:_ZNK2FX8FXString17find_first_not_ofEPKci
libFOX-1.6.so.0:_ZNK2FX8FXString17find_first_not_ofEPKcii
libFOX-1.6.so.0:_ZNK2FX8FXString17find_first_not_ofERKS0_i
libFOX-1.6.so.0:_ZNK2FX8FXString17find_first_not_ofEci
libFOX-1.6.so.0:_ZNK2FX8FXString2wcEi
libFOX-1.6.so.0:_ZNK2FX8FXString3decEi
libFOX-1.6.so.0:_ZNK2FX8FXString3incEi
libFOX-1.6.so.0:_ZNK2FX8FXString3midEii
libFOX-1.6.so.0:_ZNK2FX8FXString4findEPKci
libFOX-1.6.so.0:_ZNK2FX8FXString4findEPKcii
libFOX-1.6.so.0:_ZNK2FX8FXString4findERKS0_i
libFOX-1.6.so.0:_ZNK2FX8FXString4findEci
libFOX-1.6.so.0:_ZNK2FX8FXString4findEcii
libFOX-1.6.so.0:_ZNK2FX8FXString4hashEv
libFOX-1.6.so.0:_ZNK2FX8FXString4leftEi
libFOX-1.6.so.0:_ZNK2FX8FXString4scanEPKcz
libFOX-1.6.so.0:_ZNK2FX8FXString5afterEci
libFOX-1.6.so.0:_ZNK2FX8FXString5countEii
libFOX-1.6.so.0:_ZNK2FX8FXString5countEv
libFOX-1.6.so.0:_ZNK2FX8FXString5indexEi
libFOX-1.6.so.0:_ZNK2FX8FXString5rfindEPKci
libFOX-1.6.so.0:_ZNK2FX8FXString5rfindEPKcii
libFOX-1.6.so.0:_ZNK2FX8FXString5rfindERKS0_i
libFOX-1.6.so.0:_ZNK2FX8FXString5rfindEci
libFOX-1.6.so.0:_ZNK2FX8FXString5rfindEcii
libFOX-1.6.so.0:_ZNK2FX8FXString5rightEi
libFOX-1.6.so.0:_ZNK2FX8FXString5vscanEPKcP13__va_list_tag
libFOX-1.6.so.0:_ZNK2FX8FXString6beforeEci
libFOX-1.6.so.0:_ZNK2FX8FXString6offsetEi
libFOX-1.6.so.0:_ZNK2FX8FXString6rafterEci
libFOX-1.6.so.0:_ZNK2FX8FXString7rbeforeEci
libFOX-1.6.so.0:_ZNK2FX8FXString7sectionEPKcii
libFOX-1.6.so.0:_ZNK2FX8FXString7sectionEPKciii
libFOX-1.6.so.0:_ZNK2FX8FXString7sectionERKS0_ii
libFOX-1.6.so.0:_ZNK2FX8FXString7sectionEcii
libFOX-1.6.so.0:_ZNK2FX8FXString8containsEPKc
libFOX-1.6.so.0:_ZNK2FX8FXString8containsEPKci
libFOX-1.6.so.0:_ZNK2FX8FXString8containsERKS0_
libFOX-1.6.so.0:_ZNK2FX8FXString8containsEc
libFOX-1.6.so.0:_ZNK2FX8FXString8validateEi
libFOX-1.6.so.0:_ZNK2FX8FXTabBar11getTabStyleEv
libFOX-1.6.so.0:_ZNK2FX8FXTabBar4saveERNS_8FXStreamE
libFOX-1.6.so.0:_ZNK2FX8FXThread2idEv
libFOX-1.6.so.0:_ZNK2FX8FXThread7runningEv
libFOX-1.6.so.0:_ZNK2FX8FXVisual4saveERNS_8FXStreamE
libFOX-1.6.so.0:_ZNK2FX8FXWindow10acceptDropENS_12FXDragActionE
libFOX-1.6.so.0:_ZNK2FX8FXWindow10getChildAtEii
libFOX-1.6.so.0:_ZNK2FX8FXWindow10getDNDDataENS_11FXDNDOriginEmRNS_8FXStringE
libFOX-1.6.so.0:_ZNK2FX8FXWindow10getDNDDataENS_11FXDNDOriginEmRPhRj
libFOX-1.6.so.0:_ZNK2FX8FXWindow10isDraggingEv
libFOX-1.6.so.0:_ZNK2FX8FXWindow10setDNDDataENS_11FXDNDOriginEmPhj
libFOX-1.6.so.0:_ZNK2FX8FXWindow10setDNDDataENS_11FXDNDOriginEmRKNS_8FXStringE
libFOX-1.6.so.0:_ZNK2FX8FXWindow11isCompositeEv
libFOX-1.6.so.0:_ZNK2FX8FXWindow11numChildrenEv
libFOX-1.6.so.0:_ZNK2FX8FXWindow11underCursorEv
libFOX-1.6.so.0:_ZNK2FX8FXWindow12childAtIndexEi
libFOX-1.6.so.0:_ZNK2FX8FXWindow12dropFinishedENS_12FXDragActionE
libFOX-1.6.so.0:_ZNK2FX8FXWindow12hasClipboardEv
libFOX-1.6.so.0:_ZNK2FX8FXWindow12hasSelectionEv
libFOX-1.6.so.0:_ZNK2FX8FXWindow12inFocusChainEv
libFOX-1.6.so.0:_ZNK2FX8FXWindow12indexOfChildEPKS0_
libFOX-1.6.so.0:_ZNK2FX8FXWindow12isDropTargetEv
libFOX-1.6.so.0:_ZNK2FX8FXWindow13containsChildEPKS0_
libFOX-1.6.so.0:_ZNK2FX8FXWindow13doesSaveUnderEv
libFOX-1.6.so.0:_ZNK2FX8FXWindow13isDropEnabledEv
libFOX-1.6.so.0:_ZNK2FX8FXWindow14getLayoutHintsEv
libFOX-1.6.so.0:_ZNK2FX8FXWindow14offeredDNDTypeENS_11FXDNDOriginEm
libFOX-1.6.so.0:_ZNK2FX8FXWindow15grabbedKeyboardEv
libFOX-1.6.so.0:_ZNK2FX8FXWindow15inquireDNDTypesENS_11FXDNDOriginERPmRj
libFOX-1.6.so.0:_ZNK2FX8FXWindow16inquireDNDActionEv
libFOX-1.6.so.0:_ZNK2FX8FXWindow16setDragRectangleEiiiib
libFOX-1.6.so.0:_ZNK2FX8FXWindow17getCursorPositionERiS1_Rj
libFOX-1.6.so.0:_ZNK2FX8FXWindow18clearDragRectangleEv
libFOX-1.6.so.0:_ZNK2FX8FXWindow20doesOverrideRedirectEv
libFOX-1.6.so.0:_ZNK2FX8FXWindow22translateCoordinatesToERiS1_PKS0_ii
libFOX-1.6.so.0:_ZNK2FX8FXWindow24translateCoordinatesFromERiS1_PKS0_ii
libFOX-1.6.so.0:_ZNK2FX8FXWindow2trEPKcS2_
libFOX-1.6.so.0:_ZNK2FX8FXWindow4saveERNS_8FXStreamE
libFOX-1.6.so.0:_ZNK2FX8FXWindow5shownEv
libFOX-1.6.so.0:_ZNK2FX8FXWindow6scrollEiiiiii
libFOX-1.6.so.0:_ZNK2FX8FXWindow6updateEiiii
libFOX-1.6.so.0:_ZNK2FX8FXWindow6updateEv
libFOX-1.6.so.0:_ZNK2FX8FXWindow7getRootEv
libFOX-1.6.so.0:_ZNK2FX8FXWindow7grabbedEv
libFOX-1.6.so.0:_ZNK2FX8FXWindow7isShellEv
libFOX-1.6.so.0:_ZNK2FX8FXWindow7repaintEiiii
libFOX-1.6.so.0:_ZNK2FX8FXWindow7repaintEv
libFOX-1.6.so.0:_ZNK2FX8FXWindow8canFocusEv
libFOX-1.6.so.0:_ZNK2FX8FXWindow8containsEii
libFOX-1.6.so.0:_ZNK2FX8FXWindow8getShellEv
libFOX-1.6.so.0:_ZNK2FX8FXWindow8hasFocusEv
libFOX-1.6.so.0:_ZNK2FX8FXWindow8isActiveEv
libFOX-1.6.so.0:_ZNK2FX8FXWindow9didAcceptEv
libFOX-1.6.so.0:_ZNK2FX8FXWindow9isChildOfEPKS0_
libFOX-1.6.so.0:_ZNK2FX8FXWindow9isDefaultEv
libFOX-1.6.so.0:_ZNK2FX8FXWindow9isEnabledEv
libFOX-1.6.so.0:_ZNK2FX8FXWindow9isInitialEv
libFOX-1.6.so.0:_ZNK2FX8FXWindow9isOwnerOfEPKS0_
libFOX-1.6.so.0:_ZNK2FX8FXWizard12getNumPanelsEv
libFOX-1.6.so.0:_ZNK2FX8FXWizard15getCurrentPanelEv
libFOX-1.6.so.0:_ZNK2FX8FXWizard4saveERNS_8FXStreamE
libFOX-1.6.so.0:_ZNK2FX8FXWizard8getImageEv
libFOX-1.6.so.0:_ZNK2FX9FXBMPIcon10savePixelsERNS_8FXStreamE
libFOX-1.6.so.0:_ZNK2FX9FXCommand4sizeEv
libFOX-1.6.so.0:_ZNK2FX9FXCommand8canMergeEv
libFOX-1.6.so.0:_ZNK2FX9FXCommand8redoNameEv
libFOX-1.6.so.0:_ZNK2FX9FXCommand8undoNameEv
libFOX-1.6.so.0:_ZNK2FX9FXDirList10isItemFileEPKNS_10FXTreeItemE
libFOX-1.6.so.0:_ZNK2FX9FXDirList12getDirectoryEv
libFOX-1.6.so.0:_ZNK2FX9FXDirList14getCurrentFileEv
libFOX-1.6.so.0:_ZNK2FX9FXDirList15getItemPathnameEPKNS_10FXTreeItemE
libFOX-1.6.so.0:_ZNK2FX9FXDirList15isItemDirectoryEPKNS_10FXTreeItemE
libFOX-1.6.so.0:_ZNK2FX9FXDirList15showHiddenFilesEv
libFOX-1.6.so.0:_ZNK2FX9FXDirList16isItemExecutableEPKNS_10FXTreeItemE
libFOX-1.6.so.0:_ZNK2FX9FXDirList4saveERNS_8FXStreamE
libFOX-1.6.so.0:_ZNK2FX9FXDirList9showFilesEv
libFOX-1.6.so.0:_ZNK2FX9FXDockBar4saveERNS_8FXStreamE
libFOX-1.6.so.0:_ZNK2FX9FXDockBar8isDockedEv
libFOX-1.6.so.0:_ZNK2FX9FXExtentd5emptyEv
libFOX-1.6.so.0:_ZNK2FX9FXExtentd6centerEv
libFOX-1.6.so.0:_ZNK2FX9FXExtentd6radiusEv
libFOX-1.6.so.0:_ZNK2FX9FXExtentd7longestEv
libFOX-1.6.so.0:_ZNK2FX9FXExtentd8containsERKNS_7FXVec2dE
libFOX-1.6.so.0:_ZNK2FX9FXExtentd8containsERKS0_
libFOX-1.6.so.0:_ZNK2FX9FXExtentd8containsEdd
libFOX-1.6.so.0:_ZNK2FX9FXExtentd8diagonalEv
libFOX-1.6.so.0:_ZNK2FX9FXExtentd8diameterEv
libFOX-1.6.so.0:_ZNK2FX9FXExtentd8shortestEv
libFOX-1.6.so.0:_ZNK2FX9FXExtentf5emptyEv
libFOX-1.6.so.0:_ZNK2FX9FXExtentf6centerEv
libFOX-1.6.so.0:_ZNK2FX9FXExtentf6radiusEv
libFOX-1.6.so.0:_ZNK2FX9FXExtentf7longestEv
libFOX-1.6.so.0:_ZNK2FX9FXExtentf8containsERKNS_7FXVec2fE
libFOX-1.6.so.0:_ZNK2FX9FXExtentf8containsERKS0_
libFOX-1.6.so.0:_ZNK2FX9FXExtentf8containsEff
libFOX-1.6.so.0:_ZNK2FX9FXExtentf8diagonalEv
libFOX-1.6.so.0:_ZNK2FX9FXExtentf8diameterEv
libFOX-1.6.so.0:_ZNK2FX9FXExtentf8shortestEv
libFOX-1.6.so.0:_ZNK2FX9FXGIFIcon10savePixelsERNS_8FXStreamE
libFOX-1.6.so.0:_ZNK2FX9FXGLGroup4saveERNS_8FXStreamE
libFOX-1.6.so.0:_ZNK2FX9FXGLGroup7canDragEv
libFOX-1.6.so.0:_ZNK2FX9FXGLPoint4saveERNS_8FXStreamE
libFOX-1.6.so.0:_ZNK2FX9FXGLShape11getMaterialEiRNS_10FXMaterialE
libFOX-1.6.so.0:_ZNK2FX9FXGLShape4saveERNS_8FXStreamE
libFOX-1.6.so.0:_ZNK2FX9FXGLShape7canDragEv
libFOX-1.6.so.0:_ZNK2FX9FXGLShape9canDeleteEv
libFOX-1.6.so.0:_ZNK2FX9FXICOIcon10savePixelsERNS_8FXStreamE
libFOX-1.6.so.0:_ZNK2FX9FXIFFIcon10savePixelsERNS_8FXStreamE
libFOX-1.6.so.0:_ZNK2FX9FXJPGIcon10savePixelsERNS_8FXStreamE
libFOX-1.6.so.0:_ZNK2FX9FXListBox10getTipTextEv
libFOX-1.6.so.0:_ZNK2FX9FXListBox11getHelpTextEv
libFOX-1.6.so.0:_ZNK2FX9FXListBox11getItemDataEi
libFOX-1.6.so.0:_ZNK2FX9FXListBox11getItemIconEi
libFOX-1.6.so.0:_ZNK2FX9FXListBox11getItemTextEi
libFOX-1.6.so.0:_ZNK2FX9FXListBox11getNumItemsEv
libFOX-1.6.so.0:_ZNK2FX9FXListBox11getSortFuncEv
libFOX-1.6.so.0:_ZNK2FX9FXListBox11isPaneShownEv
libFOX-1.6.so.0:_ZNK2FX9FXListBox11setItemDataEiPv
libFOX-1.6.so.0:_ZNK2FX9FXListBox12getBackColorEv
libFOX-1.6.so.0:_ZNK2FX9FXListBox12getTextColorEv
libFOX-1.6.so.0:_ZNK2FX9FXListBox13getNumVisibleEv
libFOX-1.6.so.0:_ZNK2FX9FXListBox13isItemCurrentEi
libFOX-1.6.so.0:_ZNK2FX9FXListBox14findItemByDataEPKvij
libFOX-1.6.so.0:_ZNK2FX9FXListBox14getCurrentItemEv
libFOX-1.6.so.0:_ZNK2FX9FXListBox15getSelBackColorEv
libFOX-1.6.so.0:_ZNK2FX9FXListBox15getSelTextColorEv
libFOX-1.6.so.0:_ZNK2FX9FXListBox4saveERNS_8FXStreamE
libFOX-1.6.so.0:_ZNK2FX9FXListBox7getFontEv
libFOX-1.6.so.0:_ZNK2FX9FXListBox7getItemEi
libFOX-1.6.so.0:_ZNK2FX9FXListBox8findItemERKNS_8FXStringEij
libFOX-1.6.so.0:_ZNK2FX9FXMenuBar8containsEii
libFOX-1.6.so.0:_ZNK2FX9FXPCXIcon10savePixelsERNS_8FXStreamE
libFOX-1.6.so.0:_ZNK2FX9FXPNGIcon10savePixelsERNS_8FXStreamE
libFOX-1.6.so.0:_ZNK2FX9FXPPMIcon10savePixelsERNS_8FXStreamE
libFOX-1.6.so.0:_ZNK2FX9FXRASIcon10savePixelsERNS_8FXStreamE
libFOX-1.6.so.0:_ZNK2FX9FXRGBIcon10savePixelsERNS_8FXStreamE
libFOX-1.6.so.0:_ZNK2FX9FXSphered8containsERKNS_7FXVec3dE
libFOX-1.6.so.0:_ZNK2FX9FXSphered8containsERKNS_8FXRangedE
libFOX-1.6.so.0:_ZNK2FX9FXSphered8containsERKS0_
libFOX-1.6.so.0:_ZNK2FX9FXSphered8containsEddd
libFOX-1.6.so.0:_ZNK2FX9FXSphered9intersectERKNS_7FXVec3dES3_
libFOX-1.6.so.0:_ZNK2FX9FXSphered9intersectERKNS_7FXVec4dE
libFOX-1.6.so.0:_ZNK2FX9FXSpheref8containsERKNS_7FXVec3fE
libFOX-1.6.so.0:_ZNK2FX9FXSpheref8containsERKNS_8FXRangefE
libFOX-1.6.so.0:_ZNK2FX9FXSpheref8containsERKS0_
libFOX-1.6.so.0:_ZNK2FX9FXSpheref8containsEfff
libFOX-1.6.so.0:_ZNK2FX9FXSpheref9intersectERKNS_7FXVec3fES3_
libFOX-1.6.so.0:_ZNK2FX9FXSpheref9intersectERKNS_7FXVec4fE
libFOX-1.6.so.0:_ZNK2FX9FXSpinner10getTipTextEv
libFOX-1.6.so.0:_ZNK2FX9FXSpinner10isEditableEv
libFOX-1.6.so.0:_ZNK2FX9FXSpinner11getHelpTextEv
libFOX-1.6.so.0:_ZNK2FX9FXSpinner12getTextColorEv
libFOX-1.6.so.0:_ZNK2FX9FXSpinner13getNumColumnsEv
libFOX-1.6.so.0:_ZNK2FX9FXSpinner13isTextVisibleEv
libFOX-1.6.so.0:_ZNK2FX9FXSpinner14getCursorColorEv
libFOX-1.6.so.0:_ZNK2FX9FXSpinner15getSelBackColorEv
libFOX-1.6.so.0:_ZNK2FX9FXSpinner15getSelTextColorEv
libFOX-1.6.so.0:_ZNK2FX9FXSpinner15getSpinnerStyleEv
libFOX-1.6.so.0:_ZNK2FX9FXSpinner15getUpArrowColorEv
libFOX-1.6.so.0:_ZNK2FX9FXSpinner17getDownArrowColorEv
libFOX-1.6.so.0:_ZNK2FX9FXSpinner4saveERNS_8FXStreamE
libFOX-1.6.so.0:_ZNK2FX9FXSpinner7getFontEv
libFOX-1.6.so.0:_ZNK2FX9FXSpinner8isCyclicEv
libFOX-1.6.so.0:_ZNK2FX9FXTGAIcon10savePixelsERNS_8FXStreamE
libFOX-1.6.so.0:_ZNK2FX9FXTIFIcon10savePixelsERNS_8FXStreamE
libFOX-1.6.so.0:_ZNK2FX9FXTabItem17getTabOrientationEv
libFOX-1.6.so.0:_ZNK2FX9FXTabItem8canFocusEv
libFOX-1.6.so.0:_ZNK2FX9FXToolBar14getDockingSideEv
libFOX-1.6.so.0:_ZNK2FX9FXToolTip13doesSaveUnderEv
libFOX-1.6.so.0:_ZNK2FX9FXToolTip20doesOverrideRedirectEv
libFOX-1.6.so.0:_ZNK2FX9FXToolTip4saveERNS_8FXStreamE
libFOX-1.6.so.0:_ZNK2FX9FXXBMIcon10savePixelsERNS_8FXStreamE
libFOX-1.6.so.0:_ZNK2FX9FXXPMIcon10savePixelsERNS_8FXStreamE
libFOX-1.6.so.0:fxfindfox
